
E:/ece243/project/ece243project/realone/main.axf:     file format elf32-littlearm


Disassembly of section .text:

00000000 <__cs3_interrupt_vector>:
       0:	18 f0 9f e5 18 f0 9f e5 18 f0 9f e5 18 f0 9f e5     ................
      10:	18 f0 9f e5 18 f0 9f e5 18 f0 9f e5 18 f0 9f e5     ................
      20:	40 00 00 00 78 5c 00 00 7c 5c 00 00 80 5c 00 00     @...x\..|\...\..
      30:	84 5c 00 00 74 5c 00 00 88 5c 00 00 8c 5c 00 00     .\..t\...\...\..

00000040 <__cs3_reset>:
      40:	ea000026 	b	e0 <__cs3_start_asm_sim>

00000044 <__cs3_start_c>:
      44:	e59f608c 	ldr	r6, [pc, #140]	; d8 <__cs3_start_c+0x94>
      48:	e3560000 	cmp	r6, #0
      4c:	e92d4080 	push	{r7, lr}
      50:	e2466001 	sub	r6, r6, #1
      54:	0a00001e 	beq	d4 <__cs3_start_c+0x90>
      58:	e59f507c 	ldr	r5, [pc, #124]	; dc <__cs3_start_c+0x98>
      5c:	e3a00000 	mov	r0, #0
      60:	e3a01000 	mov	r1, #0
      64:	e515200c 	ldr	r2, [r5, #-12]
      68:	e515e010 	ldr	lr, [r5, #-16]
      6c:	e5154008 	ldr	r4, [r5, #-8]
      70:	e15e0002 	cmp	lr, r2
      74:	00822004 	addeq	r2, r2, r4
      78:	0a000009 	beq	a4 <__cs3_start_c+0x60>
      7c:	e3540000 	cmp	r4, #0
      80:	0a000007 	beq	a4 <__cs3_start_c+0x60>
      84:	e1a07002 	mov	r7, r2
      88:	e1a0c002 	mov	r12, r2
      8c:	e8be000c 	ldm	lr!, {r2, r3}
      90:	e8ac000c 	stmia	r12!, {r2, r3}
      94:	e067300c 	rsb	r3, r7, r12
      98:	e1540003 	cmp	r4, r3
      9c:	e1a0200c 	mov	r2, r12
      a0:	1afffff9 	bne	8c <__cs3_start_c+0x48>
      a4:	e515e004 	ldr	lr, [r5, #-4]
      a8:	e35e0000 	cmp	lr, #0
      ac:	11a03002 	movne	r3, r2
      b0:	0a000003 	beq	c4 <__cs3_start_c+0x80>
      b4:	e8a30003 	stmia	r3!, {r0, r1}
      b8:	e062c003 	rsb	r12, r2, r3
      bc:	e15e000c 	cmp	lr, r12
      c0:	1afffffb 	bne	b4 <__cs3_start_c+0x70>
      c4:	e2466001 	sub	r6, r6, #1
      c8:	e3760001 	cmn	r6, #1
      cc:	e2855014 	add	r5, r5, #20
      d0:	1affffe3 	bne	64 <__cs3_start_c+0x20>
      d4:	eb0016cd 	bl	5c10 <__cs3_premain>
      d8:	00000001 	.word	0x00000001
      dc:	00008350 	.word	0x00008350

000000e0 <__cs3_start_asm_sim>:
      e0:	e28f103c 	add	r1, pc, #60	; 0x3c
      e4:	e3a00016 	mov	r0, #22
      e8:	ef123456 	svc	0x00123456
      ec:	e3500000 	cmp	r0, #0
      f0:	ba000008 	blt	118 <__cs3_start_asm_sim+0x38>
      f4:	e59f2028 	ldr	r2, [pc, #40]	; 124 <__cs3_heap_start_ptr>
      f8:	e59fd01c 	ldr	sp, [pc, #28]	; 11c <__cs3_start_asm_sim+0x3c>
      fc:	e5920008 	ldr	r0, [r2, #8]
     100:	e3500000 	cmp	r0, #0
     104:	11a0d000 	movne	sp, r0
     108:	e59f1010 	ldr	r1, [pc, #16]	; 120 <__cs3_start_asm_sim+0x40>
     10c:	e5920004 	ldr	r0, [r2, #4]
     110:	e3500000 	cmp	r0, #0
     114:	15810000 	strne	r0, [r1]
     118:	eaffffc9 	b	44 <__cs3_start_c>
     11c:	3ffffff8 	.word	0x3ffffff8
     120:	000087e8 	.word	0x000087e8

00000124 <__cs3_heap_start_ptr>:
     124:	00012480 	.word	0x00012480

00000128 <_start>:
     128:	e51fd000 	ldr	sp, [pc, #-0]	; 130 <_start+0x8>
     12c:	eaffffc4 	b	44 <__cs3_start_c>
     130:	3ffffff8 	.word	0x3ffffff8

00000134 <deregister_tm_clones>:
     134:	e92d4008 	push	{r3, lr}
     138:	e59f002c 	ldr	r0, [pc, #44]	; 16c <deregister_tm_clones+0x38>
     13c:	e59f302c 	ldr	r3, [pc, #44]	; 170 <deregister_tm_clones+0x3c>
     140:	e0603003 	rsb	r3, r0, r3
     144:	e3530006 	cmp	r3, #6
     148:	8a000001 	bhi	154 <deregister_tm_clones+0x20>
     14c:	e8bd4008 	pop	{r3, lr}
     150:	e12fff1e 	bx	lr
     154:	e59f3018 	ldr	r3, [pc, #24]	; 174 <deregister_tm_clones+0x40>
     158:	e3530000 	cmp	r3, #0
     15c:	0afffffa 	beq	14c <deregister_tm_clones+0x18>
     160:	e1a0e00f 	mov	lr, pc
     164:	e12fff13 	bx	r3
     168:	eafffff7 	b	14c <deregister_tm_clones+0x18>
     16c:	000087f0 	.word	0x000087f0
     170:	000087f3 	.word	0x000087f3
     174:	00000000 	.word	0x00000000

00000178 <register_tm_clones>:
     178:	e92d4008 	push	{r3, lr}
     17c:	e59f0034 	ldr	r0, [pc, #52]	; 1b8 <register_tm_clones+0x40>
     180:	e59f3034 	ldr	r3, [pc, #52]	; 1bc <register_tm_clones+0x44>
     184:	e0603003 	rsb	r3, r0, r3
     188:	e1a03143 	asr	r3, r3, #2
     18c:	e0833fa3 	add	r3, r3, r3, lsr #31
     190:	e1b010c3 	asrs	r1, r3, #1
     194:	1a000001 	bne	1a0 <register_tm_clones+0x28>
     198:	e8bd4008 	pop	{r3, lr}
     19c:	e12fff1e 	bx	lr
     1a0:	e59f2018 	ldr	r2, [pc, #24]	; 1c0 <register_tm_clones+0x48>
     1a4:	e3520000 	cmp	r2, #0
     1a8:	0afffffa 	beq	198 <register_tm_clones+0x20>
     1ac:	e1a0e00f 	mov	lr, pc
     1b0:	e12fff12 	bx	r2
     1b4:	eafffff7 	b	198 <register_tm_clones+0x20>
     1b8:	000087f0 	.word	0x000087f0
     1bc:	000087f0 	.word	0x000087f0
     1c0:	00000000 	.word	0x00000000

000001c4 <__do_global_dtors_aux>:
     1c4:	e92d4010 	push	{r4, lr}
     1c8:	e59f402c 	ldr	r4, [pc, #44]	; 1fc <__do_global_dtors_aux+0x38>
     1cc:	e5d43000 	ldrb	r3, [r4]
     1d0:	e3530000 	cmp	r3, #0
     1d4:	1a000006 	bne	1f4 <__do_global_dtors_aux+0x30>
     1d8:	ebffffd5 	bl	134 <deregister_tm_clones>
     1dc:	e59f301c 	ldr	r3, [pc, #28]	; 200 <__do_global_dtors_aux+0x3c>
     1e0:	e3530000 	cmp	r3, #0
     1e4:	159f0018 	ldrne	r0, [pc, #24]	; 204 <__do_global_dtors_aux+0x40>
     1e8:	1320f000 	nopne	{0}
     1ec:	e3a03001 	mov	r3, #1
     1f0:	e5c43000 	strb	r3, [r4]
     1f4:	e8bd4010 	pop	{r4, lr}
     1f8:	e12fff1e 	bx	lr
     1fc:	000087f0 	.word	0x000087f0
     200:	00000000 	.word	0x00000000
     204:	00005d18 	.word	0x00005d18

00000208 <frame_dummy>:
     208:	e92d4008 	push	{r3, lr}
     20c:	e59f3034 	ldr	r3, [pc, #52]	; 248 <frame_dummy+0x40>
     210:	e3530000 	cmp	r3, #0
     214:	159f0030 	ldrne	r0, [pc, #48]	; 24c <frame_dummy+0x44>
     218:	159f1030 	ldrne	r1, [pc, #48]	; 250 <frame_dummy+0x48>
     21c:	1320f000 	nopne	{0}
     220:	e59f002c 	ldr	r0, [pc, #44]	; 254 <frame_dummy+0x4c>
     224:	e5903000 	ldr	r3, [r0]
     228:	e3530000 	cmp	r3, #0
     22c:	0a000003 	beq	240 <frame_dummy+0x38>
     230:	e59f3020 	ldr	r3, [pc, #32]	; 258 <frame_dummy+0x50>
     234:	e3530000 	cmp	r3, #0
     238:	11a0e00f 	movne	lr, pc
     23c:	112fff13 	bxne	r3
     240:	e8bd4008 	pop	{r3, lr}
     244:	eaffffcb 	b	178 <register_tm_clones>
     248:	00000000 	.word	0x00000000
     24c:	00005d18 	.word	0x00005d18
     250:	000087f4 	.word	0x000087f4
     254:	00008350 	.word	0x00008350
     258:	00000000 	.word	0x00000000

0000025c <main>:
#include "tests/tests.h"

int main(void)
{
     25c:	e92d4800 	push	{r11, lr}
     260:	e28db004 	add	r11, sp, #4
    // led_test();
    // uart_test();
    //audio_test();
    // hex_test();
     audio_transform_test();
     264:	eb0003b8 	bl	114c <audio_transform_test>
    //display_test();
    // color_test();

    for (;;); 
     268:	eafffffe 	b	268 <main+0xc>

0000026c <VIS_ERROR_Handler>:
#include "values.h"
void VIS_ERROR_Handler() {
     26c:	e52db004 	push	{r11}		; (str r11, [sp, #-4]!)
     270:	e28db000 	add	r11, sp, #0
    // if error happens, stop here
    for (;;);
     274:	eafffffe 	b	274 <VIS_ERROR_Handler+0x8>

00000278 <VIS_Uart_TxChar>:
#include "JTAG_UART.h"

static volatile int * red_LED_ptr = (int *)0xFF200000;
const char intToChar[10] = {'0','1','2','3','4','5','6','7','8','9'};  

void VIS_Uart_TxChar(volatile int * JTAG_UART_ptr, char c) {
     278:	e52db004 	push	{r11}		; (str r11, [sp, #-4]!)
     27c:	e28db000 	add	r11, sp, #0
     280:	e24dd00c 	sub	sp, sp, #12
     284:	e50b0008 	str	r0, [r11, #-8]
     288:	e1a03001 	mov	r3, r1
     28c:	e54b3009 	strb	r3, [r11, #-9]
    *(red_LED_ptr) = 0x1; // turn on LEDR[0]
     290:	e3083358 	movw	r3, #33624	; 0x8358
     294:	e3403000 	movt	r3, #0
     298:	e5933000 	ldr	r3, [r3]
     29c:	e3a02001 	mov	r2, #1
     2a0:	e5832000 	str	r2, [r3]
    while (!((*(JTAG_UART_ptr + 1)) & 0xFFFF0000)) {
     2a4:	e1a00000 	nop			; (mov r0, r0)
     2a8:	e51b3008 	ldr	r3, [r11, #-8]
     2ac:	e2833004 	add	r3, r3, #4
     2b0:	e5933000 	ldr	r3, [r3]
     2b4:	e1a03823 	lsr	r3, r3, #16
     2b8:	e1a03803 	lsl	r3, r3, #16
     2bc:	e3530000 	cmp	r3, #0
     2c0:	0afffff8 	beq	2a8 <VIS_Uart_TxChar+0x30>
        // if space, echo character, else wait
    } 
    *(JTAG_UART_ptr) = c;
     2c4:	e55b2009 	ldrb	r2, [r11, #-9]
     2c8:	e51b3008 	ldr	r3, [r11, #-8]
     2cc:	e5832000 	str	r2, [r3]
    *(red_LED_ptr) = 0x0; // turn off LEDR[0]
     2d0:	e3083358 	movw	r3, #33624	; 0x8358
     2d4:	e3403000 	movt	r3, #0
     2d8:	e5933000 	ldr	r3, [r3]
     2dc:	e3a02000 	mov	r2, #0
     2e0:	e5832000 	str	r2, [r3]
}
     2e4:	e28bd000 	add	sp, r11, #0
     2e8:	e8bd0800 	ldmfd	sp!, {r11}
     2ec:	e12fff1e 	bx	lr

000002f0 <VIS_Uart_Tx>:

void VIS_Uart_Tx(volatile int * JTAG_UART_ptr, char * s, int size) {
     2f0:	e92d4800 	push	{r11, lr}
     2f4:	e28db004 	add	r11, sp, #4
     2f8:	e24dd018 	sub	sp, sp, #24
     2fc:	e50b0010 	str	r0, [r11, #-16]
     300:	e50b1014 	str	r1, [r11, #-20]	; 0xffffffec
     304:	e50b2018 	str	r2, [r11, #-24]	; 0xffffffe8
    
    for (int i = 0; i < size; i++)
     308:	e3a03000 	mov	r3, #0
     30c:	e50b3008 	str	r3, [r11, #-8]
     310:	ea000009 	b	33c <VIS_Uart_Tx+0x4c>
        VIS_Uart_TxChar(JTAG_UART_ptr, s[i]);
     314:	e51b3008 	ldr	r3, [r11, #-8]
     318:	e51b2014 	ldr	r2, [r11, #-20]	; 0xffffffec
     31c:	e0823003 	add	r3, r2, r3
     320:	e5d33000 	ldrb	r3, [r3]
     324:	e51b0010 	ldr	r0, [r11, #-16]
     328:	e1a01003 	mov	r1, r3
     32c:	ebffffd1 	bl	278 <VIS_Uart_TxChar>
    *(red_LED_ptr) = 0x0; // turn off LEDR[0]
}

void VIS_Uart_Tx(volatile int * JTAG_UART_ptr, char * s, int size) {
    
    for (int i = 0; i < size; i++)
     330:	e51b3008 	ldr	r3, [r11, #-8]
     334:	e2833001 	add	r3, r3, #1
     338:	e50b3008 	str	r3, [r11, #-8]
     33c:	e51b2008 	ldr	r2, [r11, #-8]
     340:	e51b3018 	ldr	r3, [r11, #-24]	; 0xffffffe8
     344:	e1520003 	cmp	r2, r3
     348:	bafffff1 	blt	314 <VIS_Uart_Tx+0x24>
        VIS_Uart_TxChar(JTAG_UART_ptr, s[i]);
}
     34c:	e24bd004 	sub	sp, r11, #4
     350:	e8bd8800 	pop	{r11, pc}

00000354 <VIS_UART_TxInt>:

void VIS_UART_TxInt(volatile int * JTAG_UART_ptr, int num) {
     354:	e92d4800 	push	{r11, lr}
     358:	e28db004 	add	r11, sp, #4
     35c:	e24dd010 	sub	sp, sp, #16
     360:	e50b0010 	str	r0, [r11, #-16]
     364:	e50b1014 	str	r1, [r11, #-20]	; 0xffffffec
    if (num < 0) {
     368:	e51b3014 	ldr	r3, [r11, #-20]	; 0xffffffec
     36c:	e3530000 	cmp	r3, #0
     370:	aa000005 	bge	38c <VIS_UART_TxInt+0x38>
        num = -num;
     374:	e51b3014 	ldr	r3, [r11, #-20]	; 0xffffffec
     378:	e2633000 	rsb	r3, r3, #0
     37c:	e50b3014 	str	r3, [r11, #-20]	; 0xffffffec
        VIS_Uart_TxChar(JTAG_UART_ptr, '-');
     380:	e51b0010 	ldr	r0, [r11, #-16]
     384:	e3a0102d 	mov	r1, #45	; 0x2d
     388:	ebffffba 	bl	278 <VIS_Uart_TxChar>
    }
    if (num < 10) {
     38c:	e51b3014 	ldr	r3, [r11, #-20]	; 0xffffffec
     390:	e3530009 	cmp	r3, #9
     394:	ca000008 	bgt	3bc <VIS_UART_TxInt+0x68>
        VIS_Uart_TxChar(JTAG_UART_ptr, intToChar[num]);
     398:	e3053d20 	movw	r3, #23840	; 0x5d20
     39c:	e3403000 	movt	r3, #0
     3a0:	e51b2014 	ldr	r2, [r11, #-20]	; 0xffffffec
     3a4:	e0833002 	add	r3, r3, r2
     3a8:	e5d33000 	ldrb	r3, [r3]
     3ac:	e51b0010 	ldr	r0, [r11, #-16]
     3b0:	e1a01003 	mov	r1, r3
     3b4:	ebffffaf 	bl	278 <VIS_Uart_TxChar>
     3b8:	ea00002b 	b	46c <VIS_UART_TxInt+0x118>
    } else {
        int tens = 1;
     3bc:	e3a03001 	mov	r3, #1
     3c0:	e50b3008 	str	r3, [r11, #-8]
        while (num / tens > 0) tens *= 10;
     3c4:	ea000005 	b	3e0 <VIS_UART_TxInt+0x8c>
     3c8:	e51b2008 	ldr	r2, [r11, #-8]
     3cc:	e1a03002 	mov	r3, r2
     3d0:	e1a03103 	lsl	r3, r3, #2
     3d4:	e0833002 	add	r3, r3, r2
     3d8:	e1a03083 	lsl	r3, r3, #1
     3dc:	e50b3008 	str	r3, [r11, #-8]
     3e0:	e51b0014 	ldr	r0, [r11, #-20]	; 0xffffffec
     3e4:	e51b1008 	ldr	r1, [r11, #-8]
     3e8:	eb0012a2 	bl	4e78 <__aeabi_idiv>
     3ec:	e1a03000 	mov	r3, r0
     3f0:	e3530000 	cmp	r3, #0
     3f4:	cafffff3 	bgt	3c8 <VIS_UART_TxInt+0x74>
        while (tens > 1) {
     3f8:	ea000018 	b	460 <VIS_UART_TxInt+0x10c>
            tens /= 10;
     3fc:	e51b2008 	ldr	r2, [r11, #-8]
     400:	e3063667 	movw	r3, #26215	; 0x6667
     404:	e3463666 	movt	r3, #26214	; 0x6666
     408:	e0c31293 	smull	r1, r3, r3, r2
     40c:	e1a01143 	asr	r1, r3, #2
     410:	e1a03fc2 	asr	r3, r2, #31
     414:	e0633001 	rsb	r3, r3, r1
     418:	e50b3008 	str	r3, [r11, #-8]
            VIS_Uart_TxChar(JTAG_UART_ptr, intToChar[num / tens]);
     41c:	e51b0014 	ldr	r0, [r11, #-20]	; 0xffffffec
     420:	e51b1008 	ldr	r1, [r11, #-8]
     424:	eb001293 	bl	4e78 <__aeabi_idiv>
     428:	e1a03000 	mov	r3, r0
     42c:	e1a02003 	mov	r2, r3
     430:	e3053d20 	movw	r3, #23840	; 0x5d20
     434:	e3403000 	movt	r3, #0
     438:	e7d33002 	ldrb	r3, [r3, r2]
     43c:	e51b0010 	ldr	r0, [r11, #-16]
     440:	e1a01003 	mov	r1, r3
     444:	ebffff8b 	bl	278 <VIS_Uart_TxChar>
            num %= tens;
     448:	e51b3014 	ldr	r3, [r11, #-20]	; 0xffffffec
     44c:	e1a00003 	mov	r0, r3
     450:	e51b1008 	ldr	r1, [r11, #-8]
     454:	eb0012d1 	bl	4fa0 <__aeabi_idivmod>
     458:	e1a03001 	mov	r3, r1
     45c:	e50b3014 	str	r3, [r11, #-20]	; 0xffffffec
    if (num < 10) {
        VIS_Uart_TxChar(JTAG_UART_ptr, intToChar[num]);
    } else {
        int tens = 1;
        while (num / tens > 0) tens *= 10;
        while (tens > 1) {
     460:	e51b3008 	ldr	r3, [r11, #-8]
     464:	e3530001 	cmp	r3, #1
     468:	caffffe3 	bgt	3fc <VIS_UART_TxInt+0xa8>
            tens /= 10;
            VIS_Uart_TxChar(JTAG_UART_ptr, intToChar[num / tens]);
            num %= tens;
        }
    }
}
     46c:	e24bd004 	sub	sp, r11, #4
     470:	e8bd8800 	pop	{r11, pc}

00000474 <VIS_UART_TxEnter>:

void VIS_UART_TxEnter(volatile int * JTAG_UART_ptr) {
     474:	e92d4800 	push	{r11, lr}
     478:	e28db004 	add	r11, sp, #4
     47c:	e24dd008 	sub	sp, sp, #8
     480:	e50b0008 	str	r0, [r11, #-8]
    VIS_Uart_TxChar(JTAG_UART_ptr, '\r');
     484:	e51b0008 	ldr	r0, [r11, #-8]
     488:	e3a0100d 	mov	r1, #13
     48c:	ebffff79 	bl	278 <VIS_Uart_TxChar>
    VIS_Uart_TxChar(JTAG_UART_ptr, '\n');
     490:	e51b0008 	ldr	r0, [r11, #-8]
     494:	e3a0100a 	mov	r1, #10
     498:	ebffff76 	bl	278 <VIS_Uart_TxChar>
}
     49c:	e24bd004 	sub	sp, r11, #4
     4a0:	e8bd8800 	pop	{r11, pc}

000004a4 <VIS_Uart_RxChar>:

char VIS_Uart_RxChar(volatile int * JTAG_UART_ptr) {
     4a4:	e52db004 	push	{r11}		; (str r11, [sp, #-4]!)
     4a8:	e28db000 	add	r11, sp, #0
     4ac:	e24dd014 	sub	sp, sp, #20
     4b0:	e50b0010 	str	r0, [r11, #-16]
    int data;
    data = *(JTAG_UART_ptr); // read the JTAG_UART data register
     4b4:	e51b3010 	ldr	r3, [r11, #-16]
     4b8:	e5933000 	ldr	r3, [r3]
     4bc:	e50b3008 	str	r3, [r11, #-8]
    if (data & 0x00008000)   // check RVALID to see if there is new data
     4c0:	e51b3008 	ldr	r3, [r11, #-8]
     4c4:	e2033902 	and	r3, r3, #32768	; 0x8000
     4c8:	e3530000 	cmp	r3, #0
     4cc:	0a000002 	beq	4dc <VIS_Uart_RxChar+0x38>
        return ((char)data & 0xFF);
     4d0:	e51b3008 	ldr	r3, [r11, #-8]
     4d4:	e6ef3073 	uxtb	r3, r3
     4d8:	ea000000 	b	4e0 <VIS_Uart_RxChar+0x3c>
    else
        return ('\0');
     4dc:	e3a03000 	mov	r3, #0
}
     4e0:	e1a00003 	mov	r0, r3
     4e4:	e28bd000 	add	sp, r11, #0
     4e8:	e8bd0800 	ldmfd	sp!, {r11}
     4ec:	e12fff1e 	bx	lr

000004f0 <VIS_LED_Get>:
#include "LED.h"
#include "../values.h"

static volatile unsigned * red_LED_ptr = (unsigned *)0xFF200000;

unsigned VIS_LED_Get(unsigned index) {
     4f0:	e92d4800 	push	{r11, lr}
     4f4:	e28db004 	add	r11, sp, #4
     4f8:	e24dd010 	sub	sp, sp, #16
     4fc:	e50b0010 	str	r0, [r11, #-16]
#ifdef DEBUG
    if (index > 9) VIS_ERROR_Handler();    
     500:	e51b3010 	ldr	r3, [r11, #-16]
     504:	e3530009 	cmp	r3, #9
     508:	9a000000 	bls	510 <VIS_LED_Get+0x20>
     50c:	ebffff56 	bl	26c <VIS_ERROR_Handler>
#endif // DEBUG
    unsigned led = *(red_LED_ptr);
     510:	e308335c 	movw	r3, #33628	; 0x835c
     514:	e3403000 	movt	r3, #0
     518:	e5933000 	ldr	r3, [r3]
     51c:	e5933000 	ldr	r3, [r3]
     520:	e50b3008 	str	r3, [r11, #-8]
    return led & (0x1u << index);
     524:	e51b3010 	ldr	r3, [r11, #-16]
     528:	e3a02001 	mov	r2, #1
     52c:	e1a02312 	lsl	r2, r2, r3
     530:	e51b3008 	ldr	r3, [r11, #-8]
     534:	e0023003 	and	r3, r2, r3
}
     538:	e1a00003 	mov	r0, r3
     53c:	e24bd004 	sub	sp, r11, #4
     540:	e8bd8800 	pop	{r11, pc}

00000544 <VIS_LED_Set>:

void VIS_LED_Set(unsigned index, unsigned status) {
     544:	e92d4800 	push	{r11, lr}
     548:	e28db004 	add	r11, sp, #4
     54c:	e24dd010 	sub	sp, sp, #16
     550:	e50b0010 	str	r0, [r11, #-16]
     554:	e50b1014 	str	r1, [r11, #-20]	; 0xffffffec
#ifdef DEBUG
    if (index > 9) VIS_ERROR_Handler();    
     558:	e51b3010 	ldr	r3, [r11, #-16]
     55c:	e3530009 	cmp	r3, #9
     560:	9a000000 	bls	568 <VIS_LED_Set+0x24>
     564:	ebffff40 	bl	26c <VIS_ERROR_Handler>
    if (status != VIS_LED_SET && status != VIS_LED_RESET) VIS_ERROR_Handler();
     568:	e51b3014 	ldr	r3, [r11, #-20]	; 0xffffffec
     56c:	e3530001 	cmp	r3, #1
     570:	0a000003 	beq	584 <VIS_LED_Set+0x40>
     574:	e51b3014 	ldr	r3, [r11, #-20]	; 0xffffffec
     578:	e3530000 	cmp	r3, #0
     57c:	0a000000 	beq	584 <VIS_LED_Set+0x40>
     580:	ebffff39 	bl	26c <VIS_ERROR_Handler>
#endif // DEBUG
    unsigned led = *(red_LED_ptr);
     584:	e308335c 	movw	r3, #33628	; 0x835c
     588:	e3403000 	movt	r3, #0
     58c:	e5933000 	ldr	r3, [r3]
     590:	e5933000 	ldr	r3, [r3]
     594:	e50b3008 	str	r3, [r11, #-8]
    if (status == VIS_LED_SET) {
     598:	e51b3014 	ldr	r3, [r11, #-20]	; 0xffffffec
     59c:	e3530001 	cmp	r3, #1
     5a0:	1a000006 	bne	5c0 <VIS_LED_Set+0x7c>
        led |= 0x1u << index;
     5a4:	e51b3010 	ldr	r3, [r11, #-16]
     5a8:	e3a02001 	mov	r2, #1
     5ac:	e1a03312 	lsl	r3, r2, r3
     5b0:	e51b2008 	ldr	r2, [r11, #-8]
     5b4:	e1823003 	orr	r3, r2, r3
     5b8:	e50b3008 	str	r3, [r11, #-8]
     5bc:	ea000006 	b	5dc <VIS_LED_Set+0x98>
    } else {
        led &= ~(0x1u << index);
     5c0:	e51b3010 	ldr	r3, [r11, #-16]
     5c4:	e3a02001 	mov	r2, #1
     5c8:	e1a03312 	lsl	r3, r2, r3
     5cc:	e1e03003 	mvn	r3, r3
     5d0:	e51b2008 	ldr	r2, [r11, #-8]
     5d4:	e0023003 	and	r3, r2, r3
     5d8:	e50b3008 	str	r3, [r11, #-8]
    }
    *(red_LED_ptr) = led;
     5dc:	e308335c 	movw	r3, #33628	; 0x835c
     5e0:	e3403000 	movt	r3, #0
     5e4:	e5933000 	ldr	r3, [r3]
     5e8:	e51b2008 	ldr	r2, [r11, #-8]
     5ec:	e5832000 	str	r2, [r3]
}
     5f0:	e24bd004 	sub	sp, r11, #4
     5f4:	e8bd8800 	pop	{r11, pc}

000005f8 <VIS_LED_Toggle>:

unsigned VIS_LED_Toggle(unsigned index) {
     5f8:	e92d4800 	push	{r11, lr}
     5fc:	e28db004 	add	r11, sp, #4
     600:	e24dd010 	sub	sp, sp, #16
     604:	e50b0010 	str	r0, [r11, #-16]
#ifdef DEBUG
    if (index > 9) VIS_ERROR_Handler();    
     608:	e51b3010 	ldr	r3, [r11, #-16]
     60c:	e3530009 	cmp	r3, #9
     610:	9a000000 	bls	618 <VIS_LED_Toggle+0x20>
     614:	ebffff14 	bl	26c <VIS_ERROR_Handler>
#endif // DEBUG
    unsigned led = *(red_LED_ptr);
     618:	e308335c 	movw	r3, #33628	; 0x835c
     61c:	e3403000 	movt	r3, #0
     620:	e5933000 	ldr	r3, [r3]
     624:	e5933000 	ldr	r3, [r3]
     628:	e50b3008 	str	r3, [r11, #-8]
    led ^= 0x1u << index;
     62c:	e51b3010 	ldr	r3, [r11, #-16]
     630:	e3a02001 	mov	r2, #1
     634:	e1a03312 	lsl	r3, r2, r3
     638:	e51b2008 	ldr	r2, [r11, #-8]
     63c:	e0223003 	eor	r3, r2, r3
     640:	e50b3008 	str	r3, [r11, #-8]
    *(red_LED_ptr) = led;
     644:	e308335c 	movw	r3, #33628	; 0x835c
     648:	e3403000 	movt	r3, #0
     64c:	e5933000 	ldr	r3, [r3]
     650:	e51b2008 	ldr	r2, [r11, #-8]
     654:	e5832000 	str	r2, [r3]
    return led & (0x1u << index);
     658:	e51b3010 	ldr	r3, [r11, #-16]
     65c:	e3a02001 	mov	r2, #1
     660:	e1a02312 	lsl	r2, r2, r3
     664:	e51b3008 	ldr	r3, [r11, #-8]
     668:	e0023003 	and	r3, r2, r3
}
     66c:	e1a00003 	mov	r0, r3
     670:	e24bd004 	sub	sp, r11, #4
     674:	e8bd8800 	pop	{r11, pc}

00000678 <VIS_LED_SetAll>:

void VIS_LED_SetAll() {
     678:	e92d4800 	push	{r11, lr}
     67c:	e28db004 	add	r11, sp, #4
     680:	e24dd008 	sub	sp, sp, #8
    for (unsigned i = 0; i <= 9; i++) {
     684:	e3a03000 	mov	r3, #0
     688:	e50b3008 	str	r3, [r11, #-8]
     68c:	ea000005 	b	6a8 <VIS_LED_SetAll+0x30>
        VIS_LED_Set(i, VIS_LED_SET);
     690:	e51b0008 	ldr	r0, [r11, #-8]
     694:	e3a01001 	mov	r1, #1
     698:	ebffffa9 	bl	544 <VIS_LED_Set>
    *(red_LED_ptr) = led;
    return led & (0x1u << index);
}

void VIS_LED_SetAll() {
    for (unsigned i = 0; i <= 9; i++) {
     69c:	e51b3008 	ldr	r3, [r11, #-8]
     6a0:	e2833001 	add	r3, r3, #1
     6a4:	e50b3008 	str	r3, [r11, #-8]
     6a8:	e51b3008 	ldr	r3, [r11, #-8]
     6ac:	e3530009 	cmp	r3, #9
     6b0:	9afffff6 	bls	690 <VIS_LED_SetAll+0x18>
        VIS_LED_Set(i, VIS_LED_SET);
    }
}
     6b4:	e24bd004 	sub	sp, r11, #4
     6b8:	e8bd8800 	pop	{r11, pc}

000006bc <VIS_LED_ResetAll>:
void VIS_LED_ResetAll() {
     6bc:	e92d4800 	push	{r11, lr}
     6c0:	e28db004 	add	r11, sp, #4
     6c4:	e24dd008 	sub	sp, sp, #8
    for (unsigned i = 0; i <= 9; i++) {
     6c8:	e3a03000 	mov	r3, #0
     6cc:	e50b3008 	str	r3, [r11, #-8]
     6d0:	ea000005 	b	6ec <VIS_LED_ResetAll+0x30>
        VIS_LED_Set(i, VIS_LED_RESET);
     6d4:	e51b0008 	ldr	r0, [r11, #-8]
     6d8:	e3a01000 	mov	r1, #0
     6dc:	ebffff98 	bl	544 <VIS_LED_Set>
    for (unsigned i = 0; i <= 9; i++) {
        VIS_LED_Set(i, VIS_LED_SET);
    }
}
void VIS_LED_ResetAll() {
    for (unsigned i = 0; i <= 9; i++) {
     6e0:	e51b3008 	ldr	r3, [r11, #-8]
     6e4:	e2833001 	add	r3, r3, #1
     6e8:	e50b3008 	str	r3, [r11, #-8]
     6ec:	e51b3008 	ldr	r3, [r11, #-8]
     6f0:	e3530009 	cmp	r3, #9
     6f4:	9afffff6 	bls	6d4 <VIS_LED_ResetAll+0x18>
        VIS_LED_Set(i, VIS_LED_RESET);
    }
     6f8:	e24bd004 	sub	sp, r11, #4
     6fc:	e8bd8800 	pop	{r11, pc}

00000700 <VIS_HEX_Set>:
    [0x4] = 0b1100110, 0b1101101, 0b11111101, 0b111,
    [0x8] = 0b1111111, 0b1101111, 0b1110111, 0b1111100, 
    [0xC] = 0b111001, 0b1011110, 0b1111001, 0b1110001
};

void VIS_HEX_Set(unsigned index, unsigned data) {
     700:	e92d4800 	push	{r11, lr}
     704:	e28db004 	add	r11, sp, #4
     708:	e24dd010 	sub	sp, sp, #16
     70c:	e50b0010 	str	r0, [r11, #-16]
     710:	e50b1014 	str	r1, [r11, #-20]	; 0xffffffec
#ifdef DEBUG
    if (index > 6) VIS_ERROR_Handler();
     714:	e51b3010 	ldr	r3, [r11, #-16]
     718:	e3530006 	cmp	r3, #6
     71c:	9a000000 	bls	724 <VIS_HEX_Set+0x24>
     720:	ebfffed1 	bl	26c <VIS_ERROR_Handler>
#endif // DEBUG
    data &= 0x7F;
     724:	e51b3014 	ldr	r3, [r11, #-20]	; 0xffffffec
     728:	e203307f 	and	r3, r3, #127	; 0x7f
     72c:	e50b3014 	str	r3, [r11, #-20]	; 0xffffffec
    if (index < 4) {
     730:	e51b3010 	ldr	r3, [r11, #-16]
     734:	e3530003 	cmp	r3, #3
     738:	8a000017 	bhi	79c <VIS_HEX_Set+0x9c>
        // HEX 0 ~ 3
        unsigned original = *(HEX3_HEX0_ptr);
     73c:	e3083360 	movw	r3, #33632	; 0x8360
     740:	e3403000 	movt	r3, #0
     744:	e5933000 	ldr	r3, [r3]
     748:	e5933000 	ldr	r3, [r3]
     74c:	e50b3008 	str	r3, [r11, #-8]
        // clear the byte
        original &= ~(0xFF << (index << 3));
     750:	e51b3010 	ldr	r3, [r11, #-16]
     754:	e1a03183 	lsl	r3, r3, #3
     758:	e3a020ff 	mov	r2, #255	; 0xff
     75c:	e1a03312 	lsl	r3, r2, r3
     760:	e1e03003 	mvn	r3, r3
     764:	e51b2008 	ldr	r2, [r11, #-8]
     768:	e0023003 	and	r3, r2, r3
     76c:	e50b3008 	str	r3, [r11, #-8]
        *(HEX3_HEX0_ptr) = original | (data << (index << 3));
     770:	e3083360 	movw	r3, #33632	; 0x8360
     774:	e3403000 	movt	r3, #0
     778:	e5933000 	ldr	r3, [r3]
     77c:	e51b2010 	ldr	r2, [r11, #-16]
     780:	e1a02182 	lsl	r2, r2, #3
     784:	e51b1014 	ldr	r1, [r11, #-20]	; 0xffffffec
     788:	e1a01211 	lsl	r1, r1, r2
     78c:	e51b2008 	ldr	r2, [r11, #-8]
     790:	e1812002 	orr	r2, r1, r2
     794:	e5832000 	str	r2, [r3]
     798:	ea000018 	b	800 <VIS_HEX_Set+0x100>
    } else {
        // HEX 4 ~ 5
        unsigned original = *(HEX5_HEX4_ptr);
     79c:	e3083364 	movw	r3, #33636	; 0x8364
     7a0:	e3403000 	movt	r3, #0
     7a4:	e5933000 	ldr	r3, [r3]
     7a8:	e5933000 	ldr	r3, [r3]
     7ac:	e50b300c 	str	r3, [r11, #-12]
        // clear the byte
        original &= ~(0xFF << ((index - 4) << 3));
     7b0:	e51b3010 	ldr	r3, [r11, #-16]
     7b4:	e2433004 	sub	r3, r3, #4
     7b8:	e1a03183 	lsl	r3, r3, #3
     7bc:	e3a020ff 	mov	r2, #255	; 0xff
     7c0:	e1a03312 	lsl	r3, r2, r3
     7c4:	e1e03003 	mvn	r3, r3
     7c8:	e51b200c 	ldr	r2, [r11, #-12]
     7cc:	e0023003 	and	r3, r2, r3
     7d0:	e50b300c 	str	r3, [r11, #-12]
        *(HEX5_HEX4_ptr) = original | (data << ((index - 4) << 3));
     7d4:	e3083364 	movw	r3, #33636	; 0x8364
     7d8:	e3403000 	movt	r3, #0
     7dc:	e5933000 	ldr	r3, [r3]
     7e0:	e51b2010 	ldr	r2, [r11, #-16]
     7e4:	e2422004 	sub	r2, r2, #4
     7e8:	e1a02182 	lsl	r2, r2, #3
     7ec:	e51b1014 	ldr	r1, [r11, #-20]	; 0xffffffec
     7f0:	e1a01211 	lsl	r1, r1, r2
     7f4:	e51b200c 	ldr	r2, [r11, #-12]
     7f8:	e1812002 	orr	r2, r1, r2
     7fc:	e5832000 	str	r2, [r3]
    }
}
     800:	e24bd004 	sub	sp, r11, #4
     804:	e8bd8800 	pop	{r11, pc}

00000808 <VIS_HEX_SetDigit>:

void VIS_HEX_SetDigit(unsigned index, unsigned data) {
     808:	e92d4800 	push	{r11, lr}
     80c:	e28db004 	add	r11, sp, #4
     810:	e24dd008 	sub	sp, sp, #8
     814:	e50b0008 	str	r0, [r11, #-8]
     818:	e50b100c 	str	r1, [r11, #-12]
#ifdef DEBUG
    if (index > 6) VIS_ERROR_Handler();
     81c:	e51b3008 	ldr	r3, [r11, #-8]
     820:	e3530006 	cmp	r3, #6
     824:	9a000000 	bls	82c <VIS_HEX_SetDigit+0x24>
     828:	ebfffe8f 	bl	26c <VIS_ERROR_Handler>
    if (data > 0xF) VIS_ERROR_Handler();
     82c:	e51b300c 	ldr	r3, [r11, #-12]
     830:	e353000f 	cmp	r3, #15
     834:	9a000000 	bls	83c <VIS_HEX_SetDigit+0x34>
     838:	ebfffe8b 	bl	26c <VIS_ERROR_Handler>
#endif // DEBUG
    VIS_HEX_Set(index, HEX_HEXs[data]);
     83c:	e3083368 	movw	r3, #33640	; 0x8368
     840:	e3403000 	movt	r3, #0
     844:	e51b200c 	ldr	r2, [r11, #-12]
     848:	e7933102 	ldr	r3, [r3, r2, lsl #2]
     84c:	e51b0008 	ldr	r0, [r11, #-8]
     850:	e1a01003 	mov	r1, r3
     854:	ebffffa9 	bl	700 <VIS_HEX_Set>
}
     858:	e24bd004 	sub	sp, r11, #4
     85c:	e8bd8800 	pop	{r11, pc}

00000860 <VIS_HEX_SetUint_HEX>:

void VIS_HEX_SetUint_HEX(unsigned data) {
     860:	e92d4800 	push	{r11, lr}
     864:	e28db004 	add	r11, sp, #4
     868:	e24dd010 	sub	sp, sp, #16
     86c:	e50b0010 	str	r0, [r11, #-16]
    data &= 0xFFFFFF;
     870:	e51b3010 	ldr	r3, [r11, #-16]
     874:	e3c334ff 	bic	r3, r3, #-16777216	; 0xff000000
     878:	e50b3010 	str	r3, [r11, #-16]
    for (unsigned i = 0; i <= 5; i++) {
     87c:	e3a03000 	mov	r3, #0
     880:	e50b3008 	str	r3, [r11, #-8]
     884:	ea00000a 	b	8b4 <VIS_HEX_SetUint_HEX+0x54>
        VIS_HEX_SetDigit(i, data & (0xF));
     888:	e51b3010 	ldr	r3, [r11, #-16]
     88c:	e203300f 	and	r3, r3, #15
     890:	e51b0008 	ldr	r0, [r11, #-8]
     894:	e1a01003 	mov	r1, r3
     898:	ebffffda 	bl	808 <VIS_HEX_SetDigit>
        data >>= 4;
     89c:	e51b3010 	ldr	r3, [r11, #-16]
     8a0:	e1a03223 	lsr	r3, r3, #4
     8a4:	e50b3010 	str	r3, [r11, #-16]
    VIS_HEX_Set(index, HEX_HEXs[data]);
}

void VIS_HEX_SetUint_HEX(unsigned data) {
    data &= 0xFFFFFF;
    for (unsigned i = 0; i <= 5; i++) {
     8a8:	e51b3008 	ldr	r3, [r11, #-8]
     8ac:	e2833001 	add	r3, r3, #1
     8b0:	e50b3008 	str	r3, [r11, #-8]
     8b4:	e51b3008 	ldr	r3, [r11, #-8]
     8b8:	e3530005 	cmp	r3, #5
     8bc:	9afffff1 	bls	888 <VIS_HEX_SetUint_HEX+0x28>
        VIS_HEX_SetDigit(i, data & (0xF));
        data >>= 4;
    }
}
     8c0:	e24bd004 	sub	sp, r11, #4
     8c4:	e8bd8800 	pop	{r11, pc}

000008c8 <VIS_HEX_SetUint_DEC>:

void VIS_HEX_SetUint_DEC(unsigned data) {
     8c8:	e92d4800 	push	{r11, lr}
     8cc:	e28db004 	add	r11, sp, #4
     8d0:	e24dd010 	sub	sp, sp, #16
     8d4:	e50b0010 	str	r0, [r11, #-16]
    data %= 1000000;
     8d8:	e51b2010 	ldr	r2, [r11, #-16]
     8dc:	e30d3e83 	movw	r3, #56963	; 0xde83
     8e0:	e344331b 	movt	r3, #17179	; 0x431b
     8e4:	e0831293 	umull	r1, r3, r3, r2
     8e8:	e1a01923 	lsr	r1, r3, #18
     8ec:	e3043240 	movw	r3, #16960	; 0x4240
     8f0:	e340300f 	movt	r3, #15
     8f4:	e0030193 	mul	r3, r3, r1
     8f8:	e0633002 	rsb	r3, r3, r2
     8fc:	e50b3010 	str	r3, [r11, #-16]
    for (unsigned i = 0; i <= 5; i++) {
     900:	e3a03000 	mov	r3, #0
     904:	e50b3008 	str	r3, [r11, #-8]
     908:	ea000015 	b	964 <VIS_HEX_SetUint_DEC+0x9c>
        VIS_HEX_SetDigit(i, data %10);
     90c:	e51b1010 	ldr	r1, [r11, #-16]
     910:	e30c3ccd 	movw	r3, #52429	; 0xcccd
     914:	e34c3ccc 	movt	r3, #52428	; 0xcccc
     918:	e0832193 	umull	r2, r3, r3, r1
     91c:	e1a021a3 	lsr	r2, r3, #3
     920:	e1a03002 	mov	r3, r2
     924:	e1a03103 	lsl	r3, r3, #2
     928:	e0833002 	add	r3, r3, r2
     92c:	e1a03083 	lsl	r3, r3, #1
     930:	e0632001 	rsb	r2, r3, r1
     934:	e51b0008 	ldr	r0, [r11, #-8]
     938:	e1a01002 	mov	r1, r2
     93c:	ebffffb1 	bl	808 <VIS_HEX_SetDigit>
        data /= 10;
     940:	e51b2010 	ldr	r2, [r11, #-16]
     944:	e30c3ccd 	movw	r3, #52429	; 0xcccd
     948:	e34c3ccc 	movt	r3, #52428	; 0xcccc
     94c:	e0831293 	umull	r1, r3, r3, r2
     950:	e1a031a3 	lsr	r3, r3, #3
     954:	e50b3010 	str	r3, [r11, #-16]
    }
}

void VIS_HEX_SetUint_DEC(unsigned data) {
    data %= 1000000;
    for (unsigned i = 0; i <= 5; i++) {
     958:	e51b3008 	ldr	r3, [r11, #-8]
     95c:	e2833001 	add	r3, r3, #1
     960:	e50b3008 	str	r3, [r11, #-8]
     964:	e51b3008 	ldr	r3, [r11, #-8]
     968:	e3530005 	cmp	r3, #5
     96c:	9affffe6 	bls	90c <VIS_HEX_SetUint_DEC+0x44>
        VIS_HEX_SetDigit(i, data %10);
        data /= 10;
    }
     970:	e24bd004 	sub	sp, r11, #4
     974:	e8bd8800 	pop	{r11, pc}

00000978 <led_test>:

static volatile int *JTAG_UART_ptr = (int *)JTAG_UART_BASE; // JTAG UART address
static volatile int * audio_ptr   = (int *)AUDIO_BASE; // Audio in address

// LED test passed
void led_test() {
     978:	e92d4800 	push	{r11, lr}
     97c:	e28db004 	add	r11, sp, #4
    VIS_LED_Set(1, VIS_LED_SET);
     980:	e3a00001 	mov	r0, #1
     984:	e3a01001 	mov	r1, #1
     988:	ebfffeed 	bl	544 <VIS_LED_Set>
    VIS_LED_Set(3, VIS_LED_SET);
     98c:	e3a00003 	mov	r0, #3
     990:	e3a01001 	mov	r1, #1
     994:	ebfffeea 	bl	544 <VIS_LED_Set>
    VIS_LED_Set(5, VIS_LED_SET);
     998:	e3a00005 	mov	r0, #5
     99c:	e3a01001 	mov	r1, #1
     9a0:	ebfffee7 	bl	544 <VIS_LED_Set>
    VIS_LED_Set(7, VIS_LED_SET);
     9a4:	e3a00007 	mov	r0, #7
     9a8:	e3a01001 	mov	r1, #1
     9ac:	ebfffee4 	bl	544 <VIS_LED_Set>
    VIS_LED_Toggle(9);
     9b0:	e3a00009 	mov	r0, #9
     9b4:	ebffff0f 	bl	5f8 <VIS_LED_Toggle>
    VIS_LED_Toggle(2);
     9b8:	e3a00002 	mov	r0, #2
     9bc:	ebffff0d 	bl	5f8 <VIS_LED_Toggle>
    VIS_LED_Toggle(2);
     9c0:	e3a00002 	mov	r0, #2
     9c4:	ebffff0b 	bl	5f8 <VIS_LED_Toggle>
    VIS_LED_Set(4, VIS_LED_SET);
     9c8:	e3a00004 	mov	r0, #4
     9cc:	e3a01001 	mov	r1, #1
     9d0:	ebfffedb 	bl	544 <VIS_LED_Set>
    VIS_LED_Set(4, VIS_LED_RESET);
     9d4:	e3a00004 	mov	r0, #4
     9d8:	e3a01000 	mov	r1, #0
     9dc:	ebfffed8 	bl	544 <VIS_LED_Set>
}
     9e0:	e8bd8800 	pop	{r11, pc}

000009e4 <audio_test>:

void audio_test() {
     9e4:	e92d4800 	push	{r11, lr}
     9e8:	e28db004 	add	r11, sp, #4
     9ec:	e24ddc19 	sub	sp, sp, #6400	; 0x1900
     9f0:	e24dd008 	sub	sp, sp, #8
 /* used for audio record/playback */
    int fifospace, buffer_index = 0;
     9f4:	e3a03000 	mov	r3, #0
     9f8:	e50b3008 	str	r3, [r11, #-8]
    int left_buffer[BUF_SIZE];
    int right_buffer[BUF_SIZE];

    fifospace = *(audio_ptr + 1); // read the audio port fifospace register
     9fc:	e30833ac 	movw	r3, #33708	; 0x83ac
     a00:	e3403000 	movt	r3, #0
     a04:	e5933000 	ldr	r3, [r3]
     a08:	e5933004 	ldr	r3, [r3, #4]
     a0c:	e50b300c 	str	r3, [r11, #-12]
        // is full
        // while ((fifospace & 0x000000FF) && (buffer_index < BUF_SIZE)) {
        while(1) {
            // left_buffer[buffer_index]  = *(audio_ptr + 2);
            // right_buffer[buffer_index] = *(audio_ptr + 3);
            while (!(fifospace & 0x000000FF));
     a10:	ea000000 	b	a18 <audio_test+0x34>
            if (VIS_Uart_RxChar(JTAG_UART_ptr) != 0) {
                // reset counter
                buffer_index = 0;
            }
            // fifospace = *(audio_ptr + 1); // read the audio port fifospace register
        }
     a14:	e1a00000 	nop			; (mov r0, r0)
        // is full
        // while ((fifospace & 0x000000FF) && (buffer_index < BUF_SIZE)) {
        while(1) {
            // left_buffer[buffer_index]  = *(audio_ptr + 2);
            // right_buffer[buffer_index] = *(audio_ptr + 3);
            while (!(fifospace & 0x000000FF));
     a18:	e1a00000 	nop			; (mov r0, r0)
     a1c:	e51b300c 	ldr	r3, [r11, #-12]
     a20:	e6ef3073 	uxtb	r3, r3
     a24:	e3530000 	cmp	r3, #0
     a28:	0afffffb 	beq	a1c <audio_test+0x38>
            *(audio_ptr + 2)  = *(audio_ptr + 2) >> 6;
     a2c:	e30833ac 	movw	r3, #33708	; 0x83ac
     a30:	e3403000 	movt	r3, #0
     a34:	e5933000 	ldr	r3, [r3]
     a38:	e2832008 	add	r2, r3, #8
     a3c:	e30833ac 	movw	r3, #33708	; 0x83ac
     a40:	e3403000 	movt	r3, #0
     a44:	e5933000 	ldr	r3, [r3]
     a48:	e2833008 	add	r3, r3, #8
     a4c:	e5933000 	ldr	r3, [r3]
     a50:	e1a03343 	asr	r3, r3, #6
     a54:	e5823000 	str	r3, [r2]
            *(audio_ptr + 3)  = *(audio_ptr + 3) >> 6;
     a58:	e30833ac 	movw	r3, #33708	; 0x83ac
     a5c:	e3403000 	movt	r3, #0
     a60:	e5933000 	ldr	r3, [r3]
     a64:	e283200c 	add	r2, r3, #12
     a68:	e30833ac 	movw	r3, #33708	; 0x83ac
     a6c:	e3403000 	movt	r3, #0
     a70:	e5933000 	ldr	r3, [r3]
     a74:	e283300c 	add	r3, r3, #12
     a78:	e5933000 	ldr	r3, [r3]
     a7c:	e1a03343 	asr	r3, r3, #6
     a80:	e5823000 	str	r3, [r2]
            ++buffer_index;
     a84:	e51b3008 	ldr	r3, [r11, #-8]
     a88:	e2833001 	add	r3, r3, #1
     a8c:	e50b3008 	str	r3, [r11, #-8]
            if (buffer_index >= 0xFFFFFF) buffer_index = 0;
     a90:	e51b2008 	ldr	r2, [r11, #-8]
     a94:	e30f3ffe 	movw	r3, #65534	; 0xfffe
     a98:	e34030ff 	movt	r3, #255	; 0xff
     a9c:	e1520003 	cmp	r2, r3
     aa0:	da000001 	ble	aac <audio_test+0xc8>
     aa4:	e3a03000 	mov	r3, #0
     aa8:	e50b3008 	str	r3, [r11, #-8]
            VIS_HEX_SetUint_HEX(buffer_index);
     aac:	e51b3008 	ldr	r3, [r11, #-8]
     ab0:	e1a00003 	mov	r0, r3
     ab4:	ebffff69 	bl	860 <VIS_HEX_SetUint_HEX>
            if (VIS_Uart_RxChar(JTAG_UART_ptr) != 0) {
     ab8:	e30833a8 	movw	r3, #33704	; 0x83a8
     abc:	e3403000 	movt	r3, #0
     ac0:	e5933000 	ldr	r3, [r3]
     ac4:	e1a00003 	mov	r0, r3
     ac8:	ebfffe75 	bl	4a4 <VIS_Uart_RxChar>
     acc:	e1a03000 	mov	r3, r0
     ad0:	e3530000 	cmp	r3, #0
     ad4:	0affffce 	beq	a14 <audio_test+0x30>
                // reset counter
                buffer_index = 0;
     ad8:	e3a03000 	mov	r3, #0
     adc:	e50b3008 	str	r3, [r11, #-8]
            }
            // fifospace = *(audio_ptr + 1); // read the audio port fifospace register
        }
     ae0:	eaffffcb 	b	a14 <audio_test+0x30>

00000ae4 <uart_test>:
        VIS_UART_TxInt(JTAG_UART_ptr, left_buffer[i]);
        VIS_Uart_Tx(JTAG_UART_ptr, "\r\n", strlen("\r\n"));
    }
}

void uart_test() {
     ae4:	e92d4810 	push	{r4, r11, lr}
     ae8:	e28db008 	add	r11, sp, #8
     aec:	e24dd024 	sub	sp, sp, #36	; 0x24
    
    char text_string[] = "\nJTAG UART test\n> \0";
     af0:	e3053d2c 	movw	r3, #23852	; 0x5d2c
     af4:	e3403000 	movt	r3, #0
     af8:	e24bc028 	sub	r12, r11, #40	; 0x28
     afc:	e1a0e003 	mov	lr, r3
     b00:	e8be000f 	ldm	lr!, {r0, r1, r2, r3}
     b04:	e8ac000f 	stmia	r12!, {r0, r1, r2, r3}
     b08:	e59e3000 	ldr	r3, [lr]
     b0c:	e58c3000 	str	r3, [r12]
    char c;

    VIS_Uart_Tx(JTAG_UART_ptr, text_string, strlen(text_string));
     b10:	e30833a8 	movw	r3, #33704	; 0x83a8
     b14:	e3403000 	movt	r3, #0
     b18:	e5934000 	ldr	r4, [r3]
     b1c:	e24b3028 	sub	r3, r11, #40	; 0x28
     b20:	e1a00003 	mov	r0, r3
     b24:	eb00136b 	bl	58d8 <strlen>
     b28:	e1a03000 	mov	r3, r0
     b2c:	e24b2028 	sub	r2, r11, #40	; 0x28
     b30:	e1a00004 	mov	r0, r4
     b34:	e1a01002 	mov	r1, r2
     b38:	e1a02003 	mov	r2, r3
     b3c:	ebfffdeb 	bl	2f0 <VIS_Uart_Tx>

    for (int i = 0; i < BUF_SIZE; i++) {
     b40:	e3a03000 	mov	r3, #0
     b44:	e50b3010 	str	r3, [r11, #-16]
     b48:	ea00000e 	b	b88 <uart_test+0xa4>
        VIS_UART_TxInt(JTAG_UART_ptr, i);
     b4c:	e30833a8 	movw	r3, #33704	; 0x83a8
     b50:	e3403000 	movt	r3, #0
     b54:	e5933000 	ldr	r3, [r3]
     b58:	e1a00003 	mov	r0, r3
     b5c:	e51b1010 	ldr	r1, [r11, #-16]
     b60:	ebfffdfb 	bl	354 <VIS_UART_TxInt>
        VIS_Uart_TxChar(JTAG_UART_ptr, ' ');
     b64:	e30833a8 	movw	r3, #33704	; 0x83a8
     b68:	e3403000 	movt	r3, #0
     b6c:	e5933000 	ldr	r3, [r3]
     b70:	e1a00003 	mov	r0, r3
     b74:	e3a01020 	mov	r1, #32
     b78:	ebfffdbe 	bl	278 <VIS_Uart_TxChar>
    char text_string[] = "\nJTAG UART test\n> \0";
    char c;

    VIS_Uart_Tx(JTAG_UART_ptr, text_string, strlen(text_string));

    for (int i = 0; i < BUF_SIZE; i++) {
     b7c:	e51b3010 	ldr	r3, [r11, #-16]
     b80:	e2833001 	add	r3, r3, #1
     b84:	e50b3010 	str	r3, [r11, #-16]
     b88:	e51b2010 	ldr	r2, [r11, #-16]
     b8c:	e300331f 	movw	r3, #799	; 0x31f
     b90:	e1520003 	cmp	r2, r3
     b94:	daffffec 	ble	b4c <uart_test+0x68>
     b98:	ea000000 	b	ba0 <uart_test+0xbc>
        if (c != '\0') {
            VIS_Uart_Tx(JTAG_UART_ptr, text_string, strlen(text_string));

            VIS_Uart_TxChar(JTAG_UART_ptr, c);
        }
    }
     b9c:	e1a00000 	nop			; (mov r0, r0)
    }

    /* read and echo characters */
    while (1)
    {
        c = VIS_Uart_RxChar(JTAG_UART_ptr);
     ba0:	e30833a8 	movw	r3, #33704	; 0x83a8
     ba4:	e3403000 	movt	r3, #0
     ba8:	e5933000 	ldr	r3, [r3]
     bac:	e1a00003 	mov	r0, r3
     bb0:	ebfffe3b 	bl	4a4 <VIS_Uart_RxChar>
     bb4:	e1a03000 	mov	r3, r0
     bb8:	e54b3011 	strb	r3, [r11, #-17]	; 0xffffffef
        if (c != '\0') {
     bbc:	e55b3011 	ldrb	r3, [r11, #-17]	; 0xffffffef
     bc0:	e3530000 	cmp	r3, #0
     bc4:	0afffff4 	beq	b9c <uart_test+0xb8>
            VIS_Uart_Tx(JTAG_UART_ptr, text_string, strlen(text_string));
     bc8:	e30833a8 	movw	r3, #33704	; 0x83a8
     bcc:	e3403000 	movt	r3, #0
     bd0:	e5934000 	ldr	r4, [r3]
     bd4:	e24b3028 	sub	r3, r11, #40	; 0x28
     bd8:	e1a00003 	mov	r0, r3
     bdc:	eb00133d 	bl	58d8 <strlen>
     be0:	e1a03000 	mov	r3, r0
     be4:	e24b2028 	sub	r2, r11, #40	; 0x28
     be8:	e1a00004 	mov	r0, r4
     bec:	e1a01002 	mov	r1, r2
     bf0:	e1a02003 	mov	r2, r3
     bf4:	ebfffdbd 	bl	2f0 <VIS_Uart_Tx>

            VIS_Uart_TxChar(JTAG_UART_ptr, c);
     bf8:	e30833a8 	movw	r3, #33704	; 0x83a8
     bfc:	e3403000 	movt	r3, #0
     c00:	e5932000 	ldr	r2, [r3]
     c04:	e55b3011 	ldrb	r3, [r11, #-17]	; 0xffffffef
     c08:	e1a00002 	mov	r0, r2
     c0c:	e1a01003 	mov	r1, r3
     c10:	ebfffd98 	bl	278 <VIS_Uart_TxChar>
        }
    }
     c14:	eaffffe0 	b	b9c <uart_test+0xb8>

00000c18 <hex_test>:
}

void hex_test() {
     c18:	e92d4810 	push	{r4, r11, lr}
     c1c:	e28db008 	add	r11, sp, #8
     c20:	e24dd024 	sub	sp, sp, #36	; 0x24
    char text_string[] = "\nPress any key to continue\n> \0";
     c24:	e3053d40 	movw	r3, #23872	; 0x5d40
     c28:	e3403000 	movt	r3, #0
     c2c:	e24bc02c 	sub	r12, r11, #44	; 0x2c
     c30:	e1a0e003 	mov	lr, r3
     c34:	e8be000f 	ldm	lr!, {r0, r1, r2, r3}
     c38:	e8ac000f 	stmia	r12!, {r0, r1, r2, r3}
     c3c:	e89e000f 	ldm	lr, {r0, r1, r2, r3}
     c40:	e8ac0007 	stmia	r12!, {r0, r1, r2}
     c44:	e1cc30b0 	strh	r3, [r12]
     c48:	e28cc002 	add	r12, r12, #2
     c4c:	e1a03823 	lsr	r3, r3, #16
     c50:	e5cc3000 	strb	r3, [r12]
    VIS_HEX_Set(0, (0x1U << 6) + 0x1U);
     c54:	e3a00000 	mov	r0, #0
     c58:	e3a01041 	mov	r1, #65	; 0x41
     c5c:	ebfffea7 	bl	700 <VIS_HEX_Set>
    VIS_Uart_Tx(JTAG_UART_ptr, text_string, strlen(text_string));
     c60:	e30833a8 	movw	r3, #33704	; 0x83a8
     c64:	e3403000 	movt	r3, #0
     c68:	e5934000 	ldr	r4, [r3]
     c6c:	e24b302c 	sub	r3, r11, #44	; 0x2c
     c70:	e1a00003 	mov	r0, r3
     c74:	eb001317 	bl	58d8 <strlen>
     c78:	e1a03000 	mov	r3, r0
     c7c:	e24b202c 	sub	r2, r11, #44	; 0x2c
     c80:	e1a00004 	mov	r0, r4
     c84:	e1a01002 	mov	r1, r2
     c88:	e1a02003 	mov	r2, r3
     c8c:	ebfffd97 	bl	2f0 <VIS_Uart_Tx>
    while(VIS_Uart_RxChar(JTAG_UART_ptr) == '\0');
     c90:	e1a00000 	nop			; (mov r0, r0)
     c94:	e30833a8 	movw	r3, #33704	; 0x83a8
     c98:	e3403000 	movt	r3, #0
     c9c:	e5933000 	ldr	r3, [r3]
     ca0:	e1a00003 	mov	r0, r3
     ca4:	ebfffdfe 	bl	4a4 <VIS_Uart_RxChar>
     ca8:	e1a03000 	mov	r3, r0
     cac:	e3530000 	cmp	r3, #0
     cb0:	0afffff7 	beq	c94 <hex_test+0x7c>
    VIS_HEX_SetDigit(1, 0x3);
     cb4:	e3a00001 	mov	r0, #1
     cb8:	e3a01003 	mov	r1, #3
     cbc:	ebfffed1 	bl	808 <VIS_HEX_SetDigit>
    VIS_Uart_Tx(JTAG_UART_ptr, text_string, strlen(text_string));
     cc0:	e30833a8 	movw	r3, #33704	; 0x83a8
     cc4:	e3403000 	movt	r3, #0
     cc8:	e5934000 	ldr	r4, [r3]
     ccc:	e24b302c 	sub	r3, r11, #44	; 0x2c
     cd0:	e1a00003 	mov	r0, r3
     cd4:	eb0012ff 	bl	58d8 <strlen>
     cd8:	e1a03000 	mov	r3, r0
     cdc:	e24b202c 	sub	r2, r11, #44	; 0x2c
     ce0:	e1a00004 	mov	r0, r4
     ce4:	e1a01002 	mov	r1, r2
     ce8:	e1a02003 	mov	r2, r3
     cec:	ebfffd7f 	bl	2f0 <VIS_Uart_Tx>
    while(VIS_Uart_RxChar(JTAG_UART_ptr) == '\0');
     cf0:	e1a00000 	nop			; (mov r0, r0)
     cf4:	e30833a8 	movw	r3, #33704	; 0x83a8
     cf8:	e3403000 	movt	r3, #0
     cfc:	e5933000 	ldr	r3, [r3]
     d00:	e1a00003 	mov	r0, r3
     d04:	ebfffde6 	bl	4a4 <VIS_Uart_RxChar>
     d08:	e1a03000 	mov	r3, r0
     d0c:	e3530000 	cmp	r3, #0
     d10:	0afffff7 	beq	cf4 <hex_test+0xdc>
    VIS_HEX_SetDigit(2, 0x2);
     d14:	e3a00002 	mov	r0, #2
     d18:	e3a01002 	mov	r1, #2
     d1c:	ebfffeb9 	bl	808 <VIS_HEX_SetDigit>
    VIS_Uart_Tx(JTAG_UART_ptr, text_string, strlen(text_string));
     d20:	e30833a8 	movw	r3, #33704	; 0x83a8
     d24:	e3403000 	movt	r3, #0
     d28:	e5934000 	ldr	r4, [r3]
     d2c:	e24b302c 	sub	r3, r11, #44	; 0x2c
     d30:	e1a00003 	mov	r0, r3
     d34:	eb0012e7 	bl	58d8 <strlen>
     d38:	e1a03000 	mov	r3, r0
     d3c:	e24b202c 	sub	r2, r11, #44	; 0x2c
     d40:	e1a00004 	mov	r0, r4
     d44:	e1a01002 	mov	r1, r2
     d48:	e1a02003 	mov	r2, r3
     d4c:	ebfffd67 	bl	2f0 <VIS_Uart_Tx>
    while(VIS_Uart_RxChar(JTAG_UART_ptr) == '\0');
     d50:	e1a00000 	nop			; (mov r0, r0)
     d54:	e30833a8 	movw	r3, #33704	; 0x83a8
     d58:	e3403000 	movt	r3, #0
     d5c:	e5933000 	ldr	r3, [r3]
     d60:	e1a00003 	mov	r0, r3
     d64:	ebfffdce 	bl	4a4 <VIS_Uart_RxChar>
     d68:	e1a03000 	mov	r3, r0
     d6c:	e3530000 	cmp	r3, #0
     d70:	0afffff7 	beq	d54 <hex_test+0x13c>
    VIS_HEX_SetDigit(3, 0x1);
     d74:	e3a00003 	mov	r0, #3
     d78:	e3a01001 	mov	r1, #1
     d7c:	ebfffea1 	bl	808 <VIS_HEX_SetDigit>
    VIS_Uart_Tx(JTAG_UART_ptr, text_string, strlen(text_string));
     d80:	e30833a8 	movw	r3, #33704	; 0x83a8
     d84:	e3403000 	movt	r3, #0
     d88:	e5934000 	ldr	r4, [r3]
     d8c:	e24b302c 	sub	r3, r11, #44	; 0x2c
     d90:	e1a00003 	mov	r0, r3
     d94:	eb0012cf 	bl	58d8 <strlen>
     d98:	e1a03000 	mov	r3, r0
     d9c:	e24b202c 	sub	r2, r11, #44	; 0x2c
     da0:	e1a00004 	mov	r0, r4
     da4:	e1a01002 	mov	r1, r2
     da8:	e1a02003 	mov	r2, r3
     dac:	ebfffd4f 	bl	2f0 <VIS_Uart_Tx>
    while(VIS_Uart_RxChar(JTAG_UART_ptr) == '\0');
     db0:	e1a00000 	nop			; (mov r0, r0)
     db4:	e30833a8 	movw	r3, #33704	; 0x83a8
     db8:	e3403000 	movt	r3, #0
     dbc:	e5933000 	ldr	r3, [r3]
     dc0:	e1a00003 	mov	r0, r3
     dc4:	ebfffdb6 	bl	4a4 <VIS_Uart_RxChar>
     dc8:	e1a03000 	mov	r3, r0
     dcc:	e3530000 	cmp	r3, #0
     dd0:	0afffff7 	beq	db4 <hex_test+0x19c>
    VIS_HEX_Set(4, (0x1U << 6) + 0x1U);
     dd4:	e3a00004 	mov	r0, #4
     dd8:	e3a01041 	mov	r1, #65	; 0x41
     ddc:	ebfffe47 	bl	700 <VIS_HEX_Set>
    VIS_Uart_Tx(JTAG_UART_ptr, text_string, strlen(text_string));
     de0:	e30833a8 	movw	r3, #33704	; 0x83a8
     de4:	e3403000 	movt	r3, #0
     de8:	e5934000 	ldr	r4, [r3]
     dec:	e24b302c 	sub	r3, r11, #44	; 0x2c
     df0:	e1a00003 	mov	r0, r3
     df4:	eb0012b7 	bl	58d8 <strlen>
     df8:	e1a03000 	mov	r3, r0
     dfc:	e24b202c 	sub	r2, r11, #44	; 0x2c
     e00:	e1a00004 	mov	r0, r4
     e04:	e1a01002 	mov	r1, r2
     e08:	e1a02003 	mov	r2, r3
     e0c:	ebfffd37 	bl	2f0 <VIS_Uart_Tx>
    while(VIS_Uart_RxChar(JTAG_UART_ptr) == '\0');
     e10:	e1a00000 	nop			; (mov r0, r0)
     e14:	e30833a8 	movw	r3, #33704	; 0x83a8
     e18:	e3403000 	movt	r3, #0
     e1c:	e5933000 	ldr	r3, [r3]
     e20:	e1a00003 	mov	r0, r3
     e24:	ebfffd9e 	bl	4a4 <VIS_Uart_RxChar>
     e28:	e1a03000 	mov	r3, r0
     e2c:	e3530000 	cmp	r3, #0
     e30:	0afffff7 	beq	e14 <hex_test+0x1fc>
    VIS_HEX_SetDigit(5, 0xF);
     e34:	e3a00005 	mov	r0, #5
     e38:	e3a0100f 	mov	r1, #15
     e3c:	ebfffe71 	bl	808 <VIS_HEX_SetDigit>

    VIS_Uart_Tx(JTAG_UART_ptr, text_string, strlen(text_string));
     e40:	e30833a8 	movw	r3, #33704	; 0x83a8
     e44:	e3403000 	movt	r3, #0
     e48:	e5934000 	ldr	r4, [r3]
     e4c:	e24b302c 	sub	r3, r11, #44	; 0x2c
     e50:	e1a00003 	mov	r0, r3
     e54:	eb00129f 	bl	58d8 <strlen>
     e58:	e1a03000 	mov	r3, r0
     e5c:	e24b202c 	sub	r2, r11, #44	; 0x2c
     e60:	e1a00004 	mov	r0, r4
     e64:	e1a01002 	mov	r1, r2
     e68:	e1a02003 	mov	r2, r3
     e6c:	ebfffd1f 	bl	2f0 <VIS_Uart_Tx>
    while(VIS_Uart_RxChar(JTAG_UART_ptr) == '\0');
     e70:	e1a00000 	nop			; (mov r0, r0)
     e74:	e30833a8 	movw	r3, #33704	; 0x83a8
     e78:	e3403000 	movt	r3, #0
     e7c:	e5933000 	ldr	r3, [r3]
     e80:	e1a00003 	mov	r0, r3
     e84:	ebfffd86 	bl	4a4 <VIS_Uart_RxChar>
     e88:	e1a03000 	mov	r3, r0
     e8c:	e3530000 	cmp	r3, #0
     e90:	0afffff7 	beq	e74 <hex_test+0x25c>

    VIS_HEX_SetUint_DEC(123456);
     e94:	e30e0240 	movw	r0, #57920	; 0xe240
     e98:	e3400001 	movt	r0, #1
     e9c:	ebfffe89 	bl	8c8 <VIS_HEX_SetUint_DEC>
    VIS_Uart_Tx(JTAG_UART_ptr, text_string, strlen(text_string));
     ea0:	e30833a8 	movw	r3, #33704	; 0x83a8
     ea4:	e3403000 	movt	r3, #0
     ea8:	e5934000 	ldr	r4, [r3]
     eac:	e24b302c 	sub	r3, r11, #44	; 0x2c
     eb0:	e1a00003 	mov	r0, r3
     eb4:	eb001287 	bl	58d8 <strlen>
     eb8:	e1a03000 	mov	r3, r0
     ebc:	e24b202c 	sub	r2, r11, #44	; 0x2c
     ec0:	e1a00004 	mov	r0, r4
     ec4:	e1a01002 	mov	r1, r2
     ec8:	e1a02003 	mov	r2, r3
     ecc:	ebfffd07 	bl	2f0 <VIS_Uart_Tx>
    while(VIS_Uart_RxChar(JTAG_UART_ptr) == '\0');
     ed0:	e1a00000 	nop			; (mov r0, r0)
     ed4:	e30833a8 	movw	r3, #33704	; 0x83a8
     ed8:	e3403000 	movt	r3, #0
     edc:	e5933000 	ldr	r3, [r3]
     ee0:	e1a00003 	mov	r0, r3
     ee4:	ebfffd6e 	bl	4a4 <VIS_Uart_RxChar>
     ee8:	e1a03000 	mov	r3, r0
     eec:	e3530000 	cmp	r3, #0
     ef0:	0afffff7 	beq	ed4 <hex_test+0x2bc>

    VIS_HEX_SetUint_HEX(0x123ACF);
     ef4:	e3030acf 	movw	r0, #15055	; 0x3acf
     ef8:	e3400012 	movt	r0, #18
     efc:	ebfffe57 	bl	860 <VIS_HEX_SetUint_HEX>
    
}
     f00:	e24bd008 	sub	sp, r11, #8
     f04:	e8bd8810 	pop	{r4, r11, pc}

00000f08 <display_test>:

void display_test() {
     f08:	e92d4810 	push	{r4, r11, lr}
     f0c:	e28db008 	add	r11, sp, #8
     f10:	e24ddefa 	sub	sp, sp, #4000	; 0xfa0
     f14:	e24dd00c 	sub	sp, sp, #12
    VIS_VGA_SetBuffer(SDRAM_BASE, FPGA_ONCHIP_BASE);
     f18:	e3a00103 	mov	r0, #-1073741824	; 0xc0000000
     f1c:	e3a01332 	mov	r1, #-939524096	; 0xc8000000
     f20:	eb000458 	bl	2088 <VIS_VGA_SetBuffer>
    unsigned k = 100;
     f24:	e3a03064 	mov	r3, #100	; 0x64
     f28:	e50b3014 	str	r3, [r11, #-20]	; 0xffffffec
    unsigned fakeSpect[MAX_LINES] = {0}; 
     f2c:	e24b3efa 	sub	r3, r11, #4000	; 0xfa0
     f30:	e243300c 	sub	r3, r3, #12
     f34:	e2433008 	sub	r3, r3, #8
     f38:	e3a02efa 	mov	r2, #4000	; 0xfa0
     f3c:	e1a00003 	mov	r0, r3
     f40:	e3a01000 	mov	r1, #0
     f44:	eb0011f8 	bl	572c <memset>
    while(1) {
        for (unsigned i = 0; i < k; i++) {
     f48:	e3a03000 	mov	r3, #0
     f4c:	e50b3010 	str	r3, [r11, #-16]
     f50:	ea00006b 	b	1104 <display_test+0x1fc>
            if (i != 0 && rand() % 10 < 2)
     f54:	e51b3010 	ldr	r3, [r11, #-16]
     f58:	e3530000 	cmp	r3, #0
     f5c:	0a00002d 	beq	1018 <display_test+0x110>
     f60:	eb001245 	bl	587c <rand>
     f64:	e1a01000 	mov	r1, r0
     f68:	e3063667 	movw	r3, #26215	; 0x6667
     f6c:	e3463666 	movt	r3, #26214	; 0x6666
     f70:	e0c30193 	smull	r0, r3, r3, r1
     f74:	e1a02143 	asr	r2, r3, #2
     f78:	e1a03fc1 	asr	r3, r1, #31
     f7c:	e0632002 	rsb	r2, r3, r2
     f80:	e1a03002 	mov	r3, r2
     f84:	e1a03103 	lsl	r3, r3, #2
     f88:	e0833002 	add	r3, r3, r2
     f8c:	e1a03083 	lsl	r3, r3, #1
     f90:	e0632001 	rsb	r2, r3, r1
     f94:	e3520001 	cmp	r2, #1
     f98:	ca00001e 	bgt	1018 <display_test+0x110>
                fakeSpect[i] = fakeSpect[i - 1] + (rand() % 800 - 400);
     f9c:	e51b3010 	ldr	r3, [r11, #-16]
     fa0:	e2432001 	sub	r2, r3, #1
     fa4:	e30f3058 	movw	r3, #61528	; 0xf058
     fa8:	e34f3fff 	movt	r3, #65535	; 0xffff
     fac:	e1a02102 	lsl	r2, r2, #2
     fb0:	e24b100c 	sub	r1, r11, #12
     fb4:	e0812002 	add	r2, r1, r2
     fb8:	e0823003 	add	r3, r2, r3
     fbc:	e5934000 	ldr	r4, [r3]
     fc0:	eb00122d 	bl	587c <rand>
     fc4:	e1a02000 	mov	r2, r0
     fc8:	e308351f 	movw	r3, #34079	; 0x851f
     fcc:	e34531eb 	movt	r3, #20971	; 0x51eb
     fd0:	e0c30293 	smull	r0, r3, r3, r2
     fd4:	e1a01443 	asr	r1, r3, #8
     fd8:	e1a03fc2 	asr	r3, r2, #31
     fdc:	e0633001 	rsb	r3, r3, r1
     fe0:	e3a01e32 	mov	r1, #800	; 0x320
     fe4:	e0030391 	mul	r3, r1, r3
     fe8:	e0633002 	rsb	r3, r3, r2
     fec:	e0843003 	add	r3, r4, r3
     ff0:	e2432e19 	sub	r2, r3, #400	; 0x190
     ff4:	e51b1010 	ldr	r1, [r11, #-16]
     ff8:	e30f3058 	movw	r3, #61528	; 0xf058
     ffc:	e34f3fff 	movt	r3, #65535	; 0xffff
    1000:	e1a01101 	lsl	r1, r1, #2
    1004:	e24b000c 	sub	r0, r11, #12
    1008:	e0801001 	add	r1, r0, r1
    100c:	e0813003 	add	r3, r1, r3
    1010:	e5832000 	str	r2, [r3]
    1014:	ea000037 	b	10f8 <display_test+0x1f0>
            else if (rand() % 10 < 3)
    1018:	eb001217 	bl	587c <rand>
    101c:	e1a01000 	mov	r1, r0
    1020:	e3063667 	movw	r3, #26215	; 0x6667
    1024:	e3463666 	movt	r3, #26214	; 0x6666
    1028:	e0c32193 	smull	r2, r3, r3, r1
    102c:	e1a02143 	asr	r2, r3, #2
    1030:	e1a03fc1 	asr	r3, r1, #31
    1034:	e0632002 	rsb	r2, r3, r2
    1038:	e1a03002 	mov	r3, r2
    103c:	e1a03103 	lsl	r3, r3, #2
    1040:	e0833002 	add	r3, r3, r2
    1044:	e1a03083 	lsl	r3, r3, #1
    1048:	e0632001 	rsb	r2, r3, r1
    104c:	e3520002 	cmp	r2, #2
    1050:	ca000014 	bgt	10a8 <display_test+0x1a0>
                fakeSpect[i] = rand() % 20000;
    1054:	eb001208 	bl	587c <rand>
    1058:	e1a02000 	mov	r2, r0
    105c:	e3083bad 	movw	r3, #35757	; 0x8bad
    1060:	e34638db 	movt	r3, #26843	; 0x68db
    1064:	e0c30293 	smull	r0, r3, r3, r2
    1068:	e1a016c3 	asr	r1, r3, #13
    106c:	e1a03fc2 	asr	r3, r2, #31
    1070:	e0633001 	rsb	r3, r3, r1
    1074:	e3041e20 	movw	r1, #20000	; 0x4e20
    1078:	e0030391 	mul	r3, r1, r3
    107c:	e0633002 	rsb	r3, r3, r2
    1080:	e1a02003 	mov	r2, r3
    1084:	e51b1010 	ldr	r1, [r11, #-16]
    1088:	e30f3058 	movw	r3, #61528	; 0xf058
    108c:	e34f3fff 	movt	r3, #65535	; 0xffff
    1090:	e1a01101 	lsl	r1, r1, #2
    1094:	e24b000c 	sub	r0, r11, #12
    1098:	e0801001 	add	r1, r0, r1
    109c:	e0813003 	add	r3, r1, r3
    10a0:	e5832000 	str	r2, [r3]
    10a4:	ea000013 	b	10f8 <display_test+0x1f0>
            else 
                fakeSpect[i] = rand() % 12000;
    10a8:	eb0011f3 	bl	587c <rand>
    10ac:	e1a02000 	mov	r2, r0
    10b0:	e30139f1 	movw	r3, #6641	; 0x19f1
    10b4:	e3403576 	movt	r3, #1398	; 0x576
    10b8:	e0c31293 	smull	r1, r3, r3, r2
    10bc:	e1a01443 	asr	r1, r3, #8
    10c0:	e1a03fc2 	asr	r3, r2, #31
    10c4:	e0633001 	rsb	r3, r3, r1
    10c8:	e3021ee0 	movw	r1, #12000	; 0x2ee0
    10cc:	e0030391 	mul	r3, r1, r3
    10d0:	e0633002 	rsb	r3, r3, r2
    10d4:	e1a02003 	mov	r2, r3
    10d8:	e51b1010 	ldr	r1, [r11, #-16]
    10dc:	e30f3058 	movw	r3, #61528	; 0xf058
    10e0:	e34f3fff 	movt	r3, #65535	; 0xffff
    10e4:	e1a01101 	lsl	r1, r1, #2
    10e8:	e24b000c 	sub	r0, r11, #12
    10ec:	e0801001 	add	r1, r0, r1
    10f0:	e0813003 	add	r3, r1, r3
    10f4:	e5832000 	str	r2, [r3]
void display_test() {
    VIS_VGA_SetBuffer(SDRAM_BASE, FPGA_ONCHIP_BASE);
    unsigned k = 100;
    unsigned fakeSpect[MAX_LINES] = {0}; 
    while(1) {
        for (unsigned i = 0; i < k; i++) {
    10f8:	e51b3010 	ldr	r3, [r11, #-16]
    10fc:	e2833001 	add	r3, r3, #1
    1100:	e50b3010 	str	r3, [r11, #-16]
    1104:	e51b2010 	ldr	r2, [r11, #-16]
    1108:	e51b3014 	ldr	r3, [r11, #-20]	; 0xffffffec
    110c:	e1520003 	cmp	r2, r3
    1110:	3affff8f 	bcc	f54 <display_test+0x4c>
            else if (rand() % 10 < 3)
                fakeSpect[i] = rand() % 20000;
            else 
                fakeSpect[i] = rand() % 12000;
        }
        VIS_VGA_UpdateFrame(k, fakeSpect);
    1114:	e24b3efa 	sub	r3, r11, #4000	; 0xfa0
    1118:	e243300c 	sub	r3, r3, #12
    111c:	e2433008 	sub	r3, r3, #8
    1120:	e51b0014 	ldr	r0, [r11, #-20]	; 0xffffffec
    1124:	e1a01003 	mov	r1, r3
    1128:	eb000261 	bl	1ab4 <VIS_VGA_UpdateFrame>
        // VIS_VGA_ColorTest();
    }
    112c:	eaffff85 	b	f48 <display_test+0x40>

00001130 <color_test>:
}

void color_test() {
    1130:	e92d4800 	push	{r11, lr}
    1134:	e28db004 	add	r11, sp, #4
    VIS_VGA_SetBuffer(SDRAM_BASE, FPGA_ONCHIP_BASE);
    1138:	e3a00103 	mov	r0, #-1073741824	; 0xc0000000
    113c:	e3a01332 	mov	r1, #-939524096	; 0xc8000000
    1140:	eb0003d0 	bl	2088 <VIS_VGA_SetBuffer>
    VIS_VGA_ColorTest();
    1144:	eb000396 	bl	1fa4 <VIS_VGA_ColorTest>
}
    1148:	e8bd8800 	pop	{r11, pc}

0000114c <audio_transform_test>:

void audio_transform_test() {
    114c:	e92d4bf0 	push	{r4, r5, r6, r7, r8, r9, r11, lr}
    1150:	e28db01c 	add	r11, sp, #28
    1154:	e24dd0c0 	sub	sp, sp, #192	; 0xc0
    VIS_VGA_SetBuffer(SDRAM_BASE, FPGA_ONCHIP_BASE);
    1158:	e3a00103 	mov	r0, #-1073741824	; 0xc0000000
    115c:	e3a01332 	mov	r1, #-939524096	; 0xc8000000
    1160:	eb0003c8 	bl	2088 <VIS_VGA_SetBuffer>
    volatile int * red_LED_ptr = (int *)LEDR_BASE;
    1164:	e3a03000 	mov	r3, #0
    1168:	e34f3f20 	movt	r3, #65312	; 0xff20
    116c:	e50b302c 	str	r3, [r11, #-44]	; 0xffffffd4
    volatile int * audio_ptr   = (int *)AUDIO_BASE;
    1170:	e3a03dc1 	mov	r3, #12352	; 0x3040
    1174:	e34f3f20 	movt	r3, #65312	; 0xff20
    1178:	e50b3030 	str	r3, [r11, #-48]	; 0xffffffd0

    /* used for audio record/playback */
    int fifospace;
    int buffer_index = 0;
    117c:	e3a03000 	mov	r3, #0
    1180:	e50b3020 	str	r3, [r11, #-32]	; 0xffffffe0
    int fourierIndex = 0;
    1184:	e3a03000 	mov	r3, #0
    1188:	e50b3034 	str	r3, [r11, #-52]	; 0xffffffcc
    const int fourierLength = 128;
    118c:	e3a03080 	mov	r3, #128	; 0x80
    1190:	e50b3038 	str	r3, [r11, #-56]	; 0xffffffc8
    Complex cArray[fourierLength];
    1194:	e51b3038 	ldr	r3, [r11, #-56]	; 0xffffffc8
    1198:	e2433001 	sub	r3, r3, #1
    119c:	e50b303c 	str	r3, [r11, #-60]	; 0xffffffc4
    11a0:	e51b1038 	ldr	r1, [r11, #-56]	; 0xffffffc8
    11a4:	e1a02001 	mov	r2, r1
    11a8:	e3a03000 	mov	r3, #0
    11ac:	e1a01d22 	lsr	r1, r2, #26
    11b0:	e1a05303 	lsl	r5, r3, #6
    11b4:	e1815005 	orr	r5, r1, r5
    11b8:	e1a04302 	lsl	r4, r2, #6
    11bc:	e51b1038 	ldr	r1, [r11, #-56]	; 0xffffffc8
    11c0:	e1a02001 	mov	r2, r1
    11c4:	e3a03000 	mov	r3, #0
    11c8:	e1a01d22 	lsr	r1, r2, #26
    11cc:	e1a07303 	lsl	r7, r3, #6
    11d0:	e1817007 	orr	r7, r1, r7
    11d4:	e1a06302 	lsl	r6, r2, #6
    11d8:	e51b3038 	ldr	r3, [r11, #-56]	; 0xffffffc8
    11dc:	e1a03183 	lsl	r3, r3, #3
    11e0:	e2833003 	add	r3, r3, #3
    11e4:	e2833007 	add	r3, r3, #7
    11e8:	e1a031a3 	lsr	r3, r3, #3
    11ec:	e1a03183 	lsl	r3, r3, #3
    11f0:	e04dd003 	sub	sp, sp, r3
    11f4:	e1a0300d 	mov	r3, sp
    11f8:	e2833003 	add	r3, r3, #3
    11fc:	e1a03123 	lsr	r3, r3, #2
    1200:	e1a03103 	lsl	r3, r3, #2
    1204:	e50b3040 	str	r3, [r11, #-64]	; 0xffffffc0
    int ignore = 6;
    1208:	e3a03006 	mov	r3, #6
    120c:	e50b3044 	str	r3, [r11, #-68]	; 0xffffffbc
    unsigned result[fourierLength/2-ignore];
    1210:	e51b2038 	ldr	r2, [r11, #-56]	; 0xffffffc8
    1214:	e1a03fa2 	lsr	r3, r2, #31
    1218:	e0833002 	add	r3, r3, r2
    121c:	e1a030c3 	asr	r3, r3, #1
    1220:	e1a02003 	mov	r2, r3
    1224:	e51b3044 	ldr	r3, [r11, #-68]	; 0xffffffbc
    1228:	e0630002 	rsb	r0, r3, r2
    122c:	e2403001 	sub	r3, r0, #1
    1230:	e50b3048 	str	r3, [r11, #-72]	; 0xffffffb8
    1234:	e1a01000 	mov	r1, r0
    1238:	e1a02001 	mov	r2, r1
    123c:	e3a03000 	mov	r3, #0
    1240:	e1a01da2 	lsr	r1, r2, #27
    1244:	e1a09283 	lsl	r9, r3, #5
    1248:	e1819009 	orr	r9, r1, r9
    124c:	e1a08282 	lsl	r8, r2, #5
    1250:	e1a01000 	mov	r1, r0
    1254:	e1a02001 	mov	r2, r1
    1258:	e3a03000 	mov	r3, #0
    125c:	e1a01da2 	lsr	r1, r2, #27
    1260:	e1a0c283 	lsl	r12, r3, #5
    1264:	e50bc088 	str	r12, [r11, #-136]	; 0xffffff78
    1268:	e51bc088 	ldr	r12, [r11, #-136]	; 0xffffff78
    126c:	e181c00c 	orr	r12, r1, r12
    1270:	e50bc088 	str	r12, [r11, #-136]	; 0xffffff78
    1274:	e1a01282 	lsl	r1, r2, #5
    1278:	e1a03000 	mov	r3, r0
    127c:	e1a03103 	lsl	r3, r3, #2
    1280:	e2833003 	add	r3, r3, #3
    1284:	e2833007 	add	r3, r3, #7
    1288:	e1a031a3 	lsr	r3, r3, #3
    128c:	e1a03183 	lsl	r3, r3, #3
    1290:	e04dd003 	sub	sp, sp, r3
    1294:	e1a0300d 	mov	r3, sp
    1298:	e2833003 	add	r3, r3, #3
    129c:	e1a03123 	lsr	r3, r3, #2
    12a0:	e1a03103 	lsl	r3, r3, #2
    12a4:	e50b304c 	str	r3, [r11, #-76]	; 0xffffffb4
    unsigned lastResult3[fourierLength/2-ignore];
    12a8:	e51b2038 	ldr	r2, [r11, #-56]	; 0xffffffc8
    12ac:	e1a03fa2 	lsr	r3, r2, #31
    12b0:	e0833002 	add	r3, r3, r2
    12b4:	e1a030c3 	asr	r3, r3, #1
    12b8:	e1a02003 	mov	r2, r3
    12bc:	e51b3044 	ldr	r3, [r11, #-68]	; 0xffffffbc
    12c0:	e0630002 	rsb	r0, r3, r2
    12c4:	e2403001 	sub	r3, r0, #1
    12c8:	e50b3050 	str	r3, [r11, #-80]	; 0xffffffb0
    12cc:	e1a01000 	mov	r1, r0
    12d0:	e1a02001 	mov	r2, r1
    12d4:	e3a03000 	mov	r3, #0
    12d8:	e1a01da2 	lsr	r1, r2, #27
    12dc:	e1a0c283 	lsl	r12, r3, #5
    12e0:	e50bc090 	str	r12, [r11, #-144]	; 0xffffff70
    12e4:	e51bc090 	ldr	r12, [r11, #-144]	; 0xffffff70
    12e8:	e181c00c 	orr	r12, r1, r12
    12ec:	e50bc090 	str	r12, [r11, #-144]	; 0xffffff70
    12f0:	e1a01282 	lsl	r1, r2, #5
    12f4:	e1a01000 	mov	r1, r0
    12f8:	e1a02001 	mov	r2, r1
    12fc:	e3a03000 	mov	r3, #0
    1300:	e1a01da2 	lsr	r1, r2, #27
    1304:	e1a0c283 	lsl	r12, r3, #5
    1308:	e50bc098 	str	r12, [r11, #-152]	; 0xffffff68
    130c:	e51bc098 	ldr	r12, [r11, #-152]	; 0xffffff68
    1310:	e181c00c 	orr	r12, r1, r12
    1314:	e50bc098 	str	r12, [r11, #-152]	; 0xffffff68
    1318:	e1a01282 	lsl	r1, r2, #5
    131c:	e1a03000 	mov	r3, r0
    1320:	e1a03103 	lsl	r3, r3, #2
    1324:	e2833003 	add	r3, r3, #3
    1328:	e2833007 	add	r3, r3, #7
    132c:	e1a031a3 	lsr	r3, r3, #3
    1330:	e1a03183 	lsl	r3, r3, #3
    1334:	e04dd003 	sub	sp, sp, r3
    1338:	e1a0300d 	mov	r3, sp
    133c:	e2833003 	add	r3, r3, #3
    1340:	e1a03123 	lsr	r3, r3, #2
    1344:	e1a03103 	lsl	r3, r3, #2
    1348:	e50b3054 	str	r3, [r11, #-84]	; 0xffffffac
    unsigned lastResult2[fourierLength/2-ignore];
    134c:	e51b2038 	ldr	r2, [r11, #-56]	; 0xffffffc8
    1350:	e1a03fa2 	lsr	r3, r2, #31
    1354:	e0833002 	add	r3, r3, r2
    1358:	e1a030c3 	asr	r3, r3, #1
    135c:	e1a02003 	mov	r2, r3
    1360:	e51b3044 	ldr	r3, [r11, #-68]	; 0xffffffbc
    1364:	e0630002 	rsb	r0, r3, r2
    1368:	e2403001 	sub	r3, r0, #1
    136c:	e50b3058 	str	r3, [r11, #-88]	; 0xffffffa8
    1370:	e1a01000 	mov	r1, r0
    1374:	e1a02001 	mov	r2, r1
    1378:	e3a03000 	mov	r3, #0
    137c:	e1a01da2 	lsr	r1, r2, #27
    1380:	e1a0c283 	lsl	r12, r3, #5
    1384:	e50bc0a0 	str	r12, [r11, #-160]	; 0xffffff60
    1388:	e51bc0a0 	ldr	r12, [r11, #-160]	; 0xffffff60
    138c:	e181c00c 	orr	r12, r1, r12
    1390:	e50bc0a0 	str	r12, [r11, #-160]	; 0xffffff60
    1394:	e1a01282 	lsl	r1, r2, #5
    1398:	e1a01000 	mov	r1, r0
    139c:	e1a02001 	mov	r2, r1
    13a0:	e3a03000 	mov	r3, #0
    13a4:	e1a01da2 	lsr	r1, r2, #27
    13a8:	e1a0c283 	lsl	r12, r3, #5
    13ac:	e50bc0a8 	str	r12, [r11, #-168]	; 0xffffff58
    13b0:	e51bc0a8 	ldr	r12, [r11, #-168]	; 0xffffff58
    13b4:	e181c00c 	orr	r12, r1, r12
    13b8:	e50bc0a8 	str	r12, [r11, #-168]	; 0xffffff58
    13bc:	e1a01282 	lsl	r1, r2, #5
    13c0:	e1a03000 	mov	r3, r0
    13c4:	e1a03103 	lsl	r3, r3, #2
    13c8:	e2833003 	add	r3, r3, #3
    13cc:	e2833007 	add	r3, r3, #7
    13d0:	e1a031a3 	lsr	r3, r3, #3
    13d4:	e1a03183 	lsl	r3, r3, #3
    13d8:	e04dd003 	sub	sp, sp, r3
    13dc:	e1a0300d 	mov	r3, sp
    13e0:	e2833003 	add	r3, r3, #3
    13e4:	e1a03123 	lsr	r3, r3, #2
    13e8:	e1a03103 	lsl	r3, r3, #2
    13ec:	e50b305c 	str	r3, [r11, #-92]	; 0xffffffa4
    unsigned lastResult[fourierLength/2-ignore];
    13f0:	e51b3038 	ldr	r3, [r11, #-56]	; 0xffffffc8
    13f4:	e1a02fa3 	lsr	r2, r3, #31
    13f8:	e0823003 	add	r3, r2, r3
    13fc:	e1a030c3 	asr	r3, r3, #1
    1400:	e1a02003 	mov	r2, r3
    1404:	e51b3044 	ldr	r3, [r11, #-68]	; 0xffffffbc
    1408:	e0630002 	rsb	r0, r3, r2
    140c:	e2403001 	sub	r3, r0, #1
    1410:	e50b3060 	str	r3, [r11, #-96]	; 0xffffffa0
    1414:	e1a01000 	mov	r1, r0
    1418:	e1a02001 	mov	r2, r1
    141c:	e3a03000 	mov	r3, #0
    1420:	e1a01da2 	lsr	r1, r2, #27
    1424:	e1a0c283 	lsl	r12, r3, #5
    1428:	e50bc0b0 	str	r12, [r11, #-176]	; 0xffffff50
    142c:	e51bc0b0 	ldr	r12, [r11, #-176]	; 0xffffff50
    1430:	e181c00c 	orr	r12, r1, r12
    1434:	e50bc0b0 	str	r12, [r11, #-176]	; 0xffffff50
    1438:	e1a01282 	lsl	r1, r2, #5
    143c:	e1a01000 	mov	r1, r0
    1440:	e1a02001 	mov	r2, r1
    1444:	e3a03000 	mov	r3, #0
    1448:	e1a01da2 	lsr	r1, r2, #27
    144c:	e1a0c283 	lsl	r12, r3, #5
    1450:	e50bc0b8 	str	r12, [r11, #-184]	; 0xffffff48
    1454:	e51bc0b8 	ldr	r12, [r11, #-184]	; 0xffffff48
    1458:	e181c00c 	orr	r12, r1, r12
    145c:	e50bc0b8 	str	r12, [r11, #-184]	; 0xffffff48
    1460:	e1a01282 	lsl	r1, r2, #5
    1464:	e1a03000 	mov	r3, r0
    1468:	e1a03103 	lsl	r3, r3, #2
    146c:	e2833003 	add	r3, r3, #3
    1470:	e2833007 	add	r3, r3, #7
    1474:	e1a031a3 	lsr	r3, r3, #3
    1478:	e1a03183 	lsl	r3, r3, #3
    147c:	e04dd003 	sub	sp, sp, r3
    1480:	e1a0300d 	mov	r3, sp
    1484:	e2833003 	add	r3, r3, #3
    1488:	e1a03123 	lsr	r3, r3, #2
    148c:	e1a03103 	lsl	r3, r3, #2
    1490:	e50b3064 	str	r3, [r11, #-100]	; 0xffffff9c
    unsigned displayResult[fourierLength/2-ignore];
    1494:	e51b3038 	ldr	r3, [r11, #-56]	; 0xffffffc8
    1498:	e1a02fa3 	lsr	r2, r3, #31
    149c:	e0823003 	add	r3, r2, r3
    14a0:	e1a030c3 	asr	r3, r3, #1
    14a4:	e1a02003 	mov	r2, r3
    14a8:	e51b3044 	ldr	r3, [r11, #-68]	; 0xffffffbc
    14ac:	e0631002 	rsb	r1, r3, r2
    14b0:	e2413001 	sub	r3, r1, #1
    14b4:	e50b3068 	str	r3, [r11, #-104]	; 0xffffff98
    14b8:	e1a00001 	mov	r0, r1
    14bc:	e1a02000 	mov	r2, r0
    14c0:	e3a03000 	mov	r3, #0
    14c4:	e1a00da2 	lsr	r0, r2, #27
    14c8:	e1a0c283 	lsl	r12, r3, #5
    14cc:	e50bc0c0 	str	r12, [r11, #-192]	; 0xffffff40
    14d0:	e51bc0c0 	ldr	r12, [r11, #-192]	; 0xffffff40
    14d4:	e180c00c 	orr	r12, r0, r12
    14d8:	e50bc0c0 	str	r12, [r11, #-192]	; 0xffffff40
    14dc:	e1a00282 	lsl	r0, r2, #5
    14e0:	e1a00001 	mov	r0, r1
    14e4:	e1a02000 	mov	r2, r0
    14e8:	e3a03000 	mov	r3, #0
    14ec:	e1a00da2 	lsr	r0, r2, #27
    14f0:	e1a0c283 	lsl	r12, r3, #5
    14f4:	e50bc0c8 	str	r12, [r11, #-200]	; 0xffffff38
    14f8:	e51bc0c8 	ldr	r12, [r11, #-200]	; 0xffffff38
    14fc:	e180c00c 	orr	r12, r0, r12
    1500:	e50bc0c8 	str	r12, [r11, #-200]	; 0xffffff38
    1504:	e1a00282 	lsl	r0, r2, #5
    1508:	e1a03001 	mov	r3, r1
    150c:	e1a03103 	lsl	r3, r3, #2
    1510:	e2833003 	add	r3, r3, #3
    1514:	e2833007 	add	r3, r3, #7
    1518:	e1a031a3 	lsr	r3, r3, #3
    151c:	e1a03183 	lsl	r3, r3, #3
    1520:	e04dd003 	sub	sp, sp, r3
    1524:	e1a0300d 	mov	r3, sp
    1528:	e2833003 	add	r3, r3, #3
    152c:	e1a03123 	lsr	r3, r3, #2
    1530:	e1a03103 	lsl	r3, r3, #2
    1534:	e50b306c 	str	r3, [r11, #-108]	; 0xffffff94
    Complex c;
    float ampmax = 0;
    1538:	e3a03000 	mov	r3, #0
    153c:	e50b3024 	str	r3, [r11, #-36]	; 0xffffffdc
	

    Complex omegaInverse[fourierLength];
    1540:	e51b3038 	ldr	r3, [r11, #-56]	; 0xffffffc8
    1544:	e2433001 	sub	r3, r3, #1
    1548:	e50b3070 	str	r3, [r11, #-112]	; 0xffffff90
    154c:	e51b1038 	ldr	r1, [r11, #-56]	; 0xffffffc8
    1550:	e1a02001 	mov	r2, r1
    1554:	e3a03000 	mov	r3, #0
    1558:	e1a01d22 	lsr	r1, r2, #26
    155c:	e1a0c303 	lsl	r12, r3, #6
    1560:	e50bc0d0 	str	r12, [r11, #-208]	; 0xffffff30
    1564:	e51b00d0 	ldr	r0, [r11, #-208]	; 0xffffff30
    1568:	e1810000 	orr	r0, r1, r0
    156c:	e50b00d0 	str	r0, [r11, #-208]	; 0xffffff30
    1570:	e1a01302 	lsl	r1, r2, #6
    1574:	e51b1038 	ldr	r1, [r11, #-56]	; 0xffffffc8
    1578:	e1a02001 	mov	r2, r1
    157c:	e3a03000 	mov	r3, #0
    1580:	e1a01d22 	lsr	r1, r2, #26
    1584:	e1a0c303 	lsl	r12, r3, #6
    1588:	e50bc0d8 	str	r12, [r11, #-216]	; 0xffffff28
    158c:	e51b00d8 	ldr	r0, [r11, #-216]	; 0xffffff28
    1590:	e1810000 	orr	r0, r1, r0
    1594:	e50b00d8 	str	r0, [r11, #-216]	; 0xffffff28
    1598:	e1a01302 	lsl	r1, r2, #6
    159c:	e51b3038 	ldr	r3, [r11, #-56]	; 0xffffffc8
    15a0:	e1a03183 	lsl	r3, r3, #3
    15a4:	e2833003 	add	r3, r3, #3
    15a8:	e2833007 	add	r3, r3, #7
    15ac:	e1a031a3 	lsr	r3, r3, #3
    15b0:	e1a03183 	lsl	r3, r3, #3
    15b4:	e04dd003 	sub	sp, sp, r3
    15b8:	e1a0300d 	mov	r3, sp
    15bc:	e2833003 	add	r3, r3, #3
    15c0:	e1a03123 	lsr	r3, r3, #2
    15c4:	e1a03103 	lsl	r3, r3, #2
    15c8:	e50b3074 	str	r3, [r11, #-116]	; 0xffffff8c
    init(fourierLength, omegaInverse);
    15cc:	e51b3074 	ldr	r3, [r11, #-116]	; 0xffffff8c
    15d0:	e51b0038 	ldr	r0, [r11, #-56]	; 0xffffffc8
    15d4:	e1a01003 	mov	r1, r3
    15d8:	eb0006b5 	bl	30b4 <init>

    // Complex omegaExp[fourierLength][fourierLength];
    // initExps( fourierLength, omegaExp);

    fifospace = *(audio_ptr + 1); // read the audio port fifospace register
    15dc:	e51b3030 	ldr	r3, [r11, #-48]	; 0xffffffd0
    15e0:	e5933004 	ldr	r3, [r3, #4]
    15e4:	e50b3078 	str	r3, [r11, #-120]	; 0xffffff88
        // is full
        // while ((fifospace & 0x000000FF) && (buffer_index < BUF_SIZE)) {
        while(1) {
            // left_buffer[buffer_index]  = *(audio_ptr + 2);
            // right_buffer[buffer_index] = *(audio_ptr + 3);
            while (!(fifospace & 0x000000FF));
    15e8:	ea000000 	b	15f0 <audio_transform_test+0x4a4>
                // reset counter
                buffer_index = 0;
            }

            // fifospace = *(audio_ptr + 1); // read the audio port fifospace register
        }
    15ec:	e1a00000 	nop			; (mov r0, r0)
        // is full
        // while ((fifospace & 0x000000FF) && (buffer_index < BUF_SIZE)) {
        while(1) {
            // left_buffer[buffer_index]  = *(audio_ptr + 2);
            // right_buffer[buffer_index] = *(audio_ptr + 3);
            while (!(fifospace & 0x000000FF));
    15f0:	e1a00000 	nop			; (mov r0, r0)
    15f4:	e51b3078 	ldr	r3, [r11, #-120]	; 0xffffff88
    15f8:	e6ef3073 	uxtb	r3, r3
    15fc:	e3530000 	cmp	r3, #0
    1600:	0afffffb 	beq	15f4 <audio_transform_test+0x4a8>
            *(audio_ptr + 2)  = *(audio_ptr + 2) >> 6;
    1604:	e51b3030 	ldr	r3, [r11, #-48]	; 0xffffffd0
    1608:	e2833008 	add	r3, r3, #8
    160c:	e51b2030 	ldr	r2, [r11, #-48]	; 0xffffffd0
    1610:	e2822008 	add	r2, r2, #8
    1614:	e5922000 	ldr	r2, [r2]
    1618:	e1a02342 	asr	r2, r2, #6
    161c:	e5832000 	str	r2, [r3]
            *(audio_ptr + 3)  = *(audio_ptr + 3) >> 6;
    1620:	e51b3030 	ldr	r3, [r11, #-48]	; 0xffffffd0
    1624:	e283300c 	add	r3, r3, #12
    1628:	e51b2030 	ldr	r2, [r11, #-48]	; 0xffffffd0
    162c:	e282200c 	add	r2, r2, #12
    1630:	e5922000 	ldr	r2, [r2]
    1634:	e1a02342 	asr	r2, r2, #6
    1638:	e5832000 	str	r2, [r3]
            //     }else{
            //         count ++;
            //     }
            //   }
            
            if(buffer_index == fourierLength){
    163c:	e51b2020 	ldr	r2, [r11, #-32]	; 0xffffffe0
    1640:	e51b3038 	ldr	r3, [r11, #-56]	; 0xffffffc8
    1644:	e1520003 	cmp	r2, r3
    1648:	1a00005c 	bne	17c0 <audio_transform_test+0x674>

                buffer_index = 0;
    164c:	e3a03000 	mov	r3, #0
    1650:	e50b3020 	str	r3, [r11, #-32]	; 0xffffffe0
                //sdft(cArray, fourierLength, omegaInverse, fourierResult);
                //fdft(cArray, fourierLength, omegaExp, fourierResult);
                fft(cArray,fourierLength);
    1654:	e51b3040 	ldr	r3, [r11, #-64]	; 0xffffffc0
    1658:	e1a00003 	mov	r0, r3
    165c:	e51b1038 	ldr	r1, [r11, #-56]	; 0xffffffc8
    1660:	eb00085c 	bl	37d8 <fft>
                for(int i=0;i<fourierLength/2-ignore; i++){ //negelect first 4 spectrum
    1664:	e3a03000 	mov	r3, #0
    1668:	e50b3028 	str	r3, [r11, #-40]	; 0xffffffd8
    166c:	ea00003b 	b	1760 <audio_transform_test+0x614>
                    //     displayResult[i] = 
                    //     (lastResult3[i]+lastResult2[i]+lastResult[i]+result[i])/4;
                    //  }
                    //else
                    {
                        lastResult3[i] = lastResult2[i];
    1670:	e51b305c 	ldr	r3, [r11, #-92]	; 0xffffffa4
    1674:	e51b2028 	ldr	r2, [r11, #-40]	; 0xffffffd8
    1678:	e7931102 	ldr	r1, [r3, r2, lsl #2]
    167c:	e51b3054 	ldr	r3, [r11, #-84]	; 0xffffffac
    1680:	e51b2028 	ldr	r2, [r11, #-40]	; 0xffffffd8
    1684:	e7831102 	str	r1, [r3, r2, lsl #2]
                        lastResult2[i] = lastResult[i];
    1688:	e51b3064 	ldr	r3, [r11, #-100]	; 0xffffff9c
    168c:	e51b2028 	ldr	r2, [r11, #-40]	; 0xffffffd8
    1690:	e7931102 	ldr	r1, [r3, r2, lsl #2]
    1694:	e51b305c 	ldr	r3, [r11, #-92]	; 0xffffffa4
    1698:	e51b2028 	ldr	r2, [r11, #-40]	; 0xffffffd8
    169c:	e7831102 	str	r1, [r3, r2, lsl #2]
                        lastResult[i] = result[i];
    16a0:	e51b304c 	ldr	r3, [r11, #-76]	; 0xffffffb4
    16a4:	e51b2028 	ldr	r2, [r11, #-40]	; 0xffffffd8
    16a8:	e7931102 	ldr	r1, [r3, r2, lsl #2]
    16ac:	e51b3064 	ldr	r3, [r11, #-100]	; 0xffffff9c
    16b0:	e51b2028 	ldr	r2, [r11, #-40]	; 0xffffffd8
    16b4:	e7831102 	str	r1, [r3, r2, lsl #2]
                        result[i] = magnitude(cArray[i+ignore]);
    16b8:	e51b2028 	ldr	r2, [r11, #-40]	; 0xffffffd8
    16bc:	e51b3044 	ldr	r3, [r11, #-68]	; 0xffffffbc
    16c0:	e0823003 	add	r3, r2, r3
    16c4:	e51b2040 	ldr	r2, [r11, #-64]	; 0xffffffc0
    16c8:	e1a03183 	lsl	r3, r3, #3
    16cc:	e0823003 	add	r3, r2, r3
    16d0:	e8930003 	ldm	r3, {r0, r1}
    16d4:	eb00065e 	bl	3054 <magnitude>
    16d8:	e1a03000 	mov	r3, r0
    16dc:	e1a01003 	mov	r1, r3
    16e0:	e51b304c 	ldr	r3, [r11, #-76]	; 0xffffffb4
    16e4:	e51b2028 	ldr	r2, [r11, #-40]	; 0xffffffd8
    16e8:	e7831102 	str	r1, [r3, r2, lsl #2]
                        displayResult[i] = 
                        (int)((lastResult3[i]+lastResult2[i]+lastResult[i]+result[i])/4*ampmax );
    16ec:	e51b3054 	ldr	r3, [r11, #-84]	; 0xffffffac
    16f0:	e51b2028 	ldr	r2, [r11, #-40]	; 0xffffffd8
    16f4:	e7932102 	ldr	r2, [r3, r2, lsl #2]
    16f8:	e51b305c 	ldr	r3, [r11, #-92]	; 0xffffffa4
    16fc:	e51b1028 	ldr	r1, [r11, #-40]	; 0xffffffd8
    1700:	e7933101 	ldr	r3, [r3, r1, lsl #2]
    1704:	e0822003 	add	r2, r2, r3
    1708:	e51b3064 	ldr	r3, [r11, #-100]	; 0xffffff9c
    170c:	e51b1028 	ldr	r1, [r11, #-40]	; 0xffffffd8
    1710:	e7933101 	ldr	r3, [r3, r1, lsl #2]
    1714:	e0822003 	add	r2, r2, r3
    1718:	e51b304c 	ldr	r3, [r11, #-76]	; 0xffffffb4
    171c:	e51b1028 	ldr	r1, [r11, #-40]	; 0xffffffd8
    1720:	e7933101 	ldr	r3, [r3, r1, lsl #2]
    1724:	e0823003 	add	r3, r2, r3
    1728:	e1a03123 	lsr	r3, r3, #2
    172c:	ee073a90 	vmov	s15, r3
    1730:	eeb87a67 	vcvt.f32.u32	s14, s15
    1734:	ed5b7a09 	vldr	s15, [r11, #-36]	; 0xffffffdc
    1738:	ee677a27 	vmul.f32	s15, s14, s15
    173c:	eefd7ae7 	vcvt.s32.f32	s15, s15
    1740:	ee173a90 	vmov	r3, s15
                    {
                        lastResult3[i] = lastResult2[i];
                        lastResult2[i] = lastResult[i];
                        lastResult[i] = result[i];
                        result[i] = magnitude(cArray[i+ignore]);
                        displayResult[i] = 
    1744:	e1a01003 	mov	r1, r3
    1748:	e51b306c 	ldr	r3, [r11, #-108]	; 0xffffff94
    174c:	e51b2028 	ldr	r2, [r11, #-40]	; 0xffffffd8
    1750:	e7831102 	str	r1, [r3, r2, lsl #2]

                buffer_index = 0;
                //sdft(cArray, fourierLength, omegaInverse, fourierResult);
                //fdft(cArray, fourierLength, omegaExp, fourierResult);
                fft(cArray,fourierLength);
                for(int i=0;i<fourierLength/2-ignore; i++){ //negelect first 4 spectrum
    1754:	e51b3028 	ldr	r3, [r11, #-40]	; 0xffffffd8
    1758:	e2833001 	add	r3, r3, #1
    175c:	e50b3028 	str	r3, [r11, #-40]	; 0xffffffd8
    1760:	e51b3038 	ldr	r3, [r11, #-56]	; 0xffffffc8
    1764:	e1a02fa3 	lsr	r2, r3, #31
    1768:	e0823003 	add	r3, r2, r3
    176c:	e1a030c3 	asr	r3, r3, #1
    1770:	e1a02003 	mov	r2, r3
    1774:	e51b3044 	ldr	r3, [r11, #-68]	; 0xffffffbc
    1778:	e0632002 	rsb	r2, r3, r2
    177c:	e51b3028 	ldr	r3, [r11, #-40]	; 0xffffffd8
    1780:	e1520003 	cmp	r2, r3
    1784:	caffffb9 	bgt	1670 <audio_transform_test+0x524>
                        result[i] = magnitude(cArray[i+ignore]);
                        displayResult[i] = 
                        (int)((lastResult3[i]+lastResult2[i]+lastResult[i]+result[i])/4*ampmax );
                    }  
                }
                VIS_VGA_UpdateFrame(fourierLength/2-ignore, displayResult);
    1788:	e51b3038 	ldr	r3, [r11, #-56]	; 0xffffffc8
    178c:	e1a02fa3 	lsr	r2, r3, #31
    1790:	e0823003 	add	r3, r2, r3
    1794:	e1a030c3 	asr	r3, r3, #1
    1798:	e1a02003 	mov	r2, r3
    179c:	e51b3044 	ldr	r3, [r11, #-68]	; 0xffffffbc
    17a0:	e0633002 	rsb	r3, r3, r2
    17a4:	e1a02003 	mov	r2, r3
    17a8:	e51b306c 	ldr	r3, [r11, #-108]	; 0xffffff94
    17ac:	e1a00002 	mov	r0, r2
    17b0:	e1a01003 	mov	r1, r3
    17b4:	eb0000be 	bl	1ab4 <VIS_VGA_UpdateFrame>
                ampmax = 0;
    17b8:	e3a03000 	mov	r3, #0
    17bc:	e50b3024 	str	r3, [r11, #-36]	; 0xffffffdc
            }

            
            
            
            c.i = 0;
    17c0:	e3a03000 	mov	r3, #0
    17c4:	e50b307c 	str	r3, [r11, #-124]	; 0xffffff84
            c.r = ((float) *(audio_ptr + 2))/100000000;
    17c8:	e51b3030 	ldr	r3, [r11, #-48]	; 0xffffffd0
    17cc:	e2833008 	add	r3, r3, #8
    17d0:	e5933000 	ldr	r3, [r3]
    17d4:	ee073a90 	vmov	s15, r3
    17d8:	eeb87ae7 	vcvt.f32.s32	s14, s15
    17dc:	eddf7a3f 	vldr	s15, [pc, #252]	; 18e0 <audio_transform_test+0x794>
    17e0:	eec77a27 	vdiv.f32	s15, s14, s15
    17e4:	ed4b7a20 	vstr	s15, [r11, #-128]	; 0xffffff80
            if(abs(*(audio_ptr + 2))/100000000 > ampmax){
    17e8:	e51b3030 	ldr	r3, [r11, #-48]	; 0xffffffd0
    17ec:	e2833008 	add	r3, r3, #8
    17f0:	e5933000 	ldr	r3, [r3]
    17f4:	e0232fc3 	eor	r2, r3, r3, asr #31
    17f8:	e0422fc3 	sub	r2, r2, r3, asr #31
    17fc:	e3033b89 	movw	r3, #15241	; 0x3b89
    1800:	e34535e6 	movt	r3, #21990	; 0x55e6
    1804:	e0c30293 	smull	r0, r3, r3, r2
    1808:	e1a01cc3 	asr	r1, r3, #25
    180c:	e1a03fc2 	asr	r3, r2, #31
    1810:	e0633001 	rsb	r3, r3, r1
    1814:	ee073a90 	vmov	s15, r3
    1818:	eeb87ae7 	vcvt.f32.s32	s14, s15
    181c:	ed5b7a09 	vldr	s15, [r11, #-36]	; 0xffffffdc
    1820:	eeb47ae7 	vcmpe.f32	s14, s15
    1824:	eef1fa10 	vmrs	APSR_nzcv, fpscr
    1828:	da00000d 	ble	1864 <audio_transform_test+0x718>
                ampmax = abs(*(audio_ptr + 2)/100000000);
    182c:	e51b3030 	ldr	r3, [r11, #-48]	; 0xffffffd0
    1830:	e2833008 	add	r3, r3, #8
    1834:	e5932000 	ldr	r2, [r3]
    1838:	e3033b89 	movw	r3, #15241	; 0x3b89
    183c:	e34535e6 	movt	r3, #21990	; 0x55e6
    1840:	e0c30293 	smull	r0, r3, r3, r2
    1844:	e1a01cc3 	asr	r1, r3, #25
    1848:	e1a03fc2 	asr	r3, r2, #31
    184c:	e0633001 	rsb	r3, r3, r1
    1850:	e3530000 	cmp	r3, #0
    1854:	b2633000 	rsblt	r3, r3, #0
    1858:	ee073a10 	vmov	s14, r3
    185c:	eef87ac7 	vcvt.f32.s32	s15, s14
    1860:	ed4b7a09 	vstr	s15, [r11, #-36]	; 0xffffffdc
            }
            cArray[buffer_index] = c;
    1864:	e51b2040 	ldr	r2, [r11, #-64]	; 0xffffffc0
    1868:	e51b3020 	ldr	r3, [r11, #-32]	; 0xffffffe0
    186c:	e1a03183 	lsl	r3, r3, #3
    1870:	e0823003 	add	r3, r2, r3
    1874:	e24b2080 	sub	r2, r11, #128	; 0x80
    1878:	e8920003 	ldm	r2, {r0, r1}
    187c:	e8830003 	stm	r3, {r0, r1}


            ++buffer_index;
    1880:	e51b3020 	ldr	r3, [r11, #-32]	; 0xffffffe0
    1884:	e2833001 	add	r3, r3, #1
    1888:	e50b3020 	str	r3, [r11, #-32]	; 0xffffffe0
            if (buffer_index >= 0xFFFFFF) buffer_index = 0;
    188c:	e51b2020 	ldr	r2, [r11, #-32]	; 0xffffffe0
    1890:	e30f3ffe 	movw	r3, #65534	; 0xfffe
    1894:	e34030ff 	movt	r3, #255	; 0xff
    1898:	e1520003 	cmp	r2, r3
    189c:	da000001 	ble	18a8 <audio_transform_test+0x75c>
    18a0:	e3a03000 	mov	r3, #0
    18a4:	e50b3020 	str	r3, [r11, #-32]	; 0xffffffe0
            VIS_HEX_SetUint_HEX(buffer_index);
    18a8:	e51b3020 	ldr	r3, [r11, #-32]	; 0xffffffe0
    18ac:	e1a00003 	mov	r0, r3
    18b0:	ebfffbea 	bl	860 <VIS_HEX_SetUint_HEX>
            if (VIS_Uart_RxChar(JTAG_UART_ptr) != 0) {
    18b4:	e30833a8 	movw	r3, #33704	; 0x83a8
    18b8:	e3403000 	movt	r3, #0
    18bc:	e5933000 	ldr	r3, [r3]
    18c0:	e1a00003 	mov	r0, r3
    18c4:	ebfffaf6 	bl	4a4 <VIS_Uart_RxChar>
    18c8:	e1a03000 	mov	r3, r0
    18cc:	e3530000 	cmp	r3, #0
    18d0:	0affff45 	beq	15ec <audio_transform_test+0x4a0>
                // reset counter
                buffer_index = 0;
    18d4:	e3a03000 	mov	r3, #0
    18d8:	e50b3020 	str	r3, [r11, #-32]	; 0xffffffe0
            }

            // fifospace = *(audio_ptr + 1); // read the audio port fifospace register
        }
    18dc:	eaffff42 	b	15ec <audio_transform_test+0x4a0>
    18e0:	4cbebc20 	.word	0x4cbebc20

000018e4 <check_KEYs>:
    }
}
void check_KEYs(int * KEY0, int * KEY1, int * KEY2, int * counter) {
    18e4:	e52db004 	push	{r11}		; (str r11, [sp, #-4]!)
    18e8:	e28db000 	add	r11, sp, #0
    18ec:	e24dd024 	sub	sp, sp, #36	; 0x24
    18f0:	e50b0018 	str	r0, [r11, #-24]	; 0xffffffe8
    18f4:	e50b101c 	str	r1, [r11, #-28]	; 0xffffffe4
    18f8:	e50b2020 	str	r2, [r11, #-32]	; 0xffffffe0
    18fc:	e50b3024 	str	r3, [r11, #-36]	; 0xffffffdc
    volatile int * KEY_ptr   = (int *)KEY_BASE;
    1900:	e3a03050 	mov	r3, #80	; 0x50
    1904:	e34f3f20 	movt	r3, #65312	; 0xff20
    1908:	e50b3008 	str	r3, [r11, #-8]
    volatile int * audio_ptr = (int *)AUDIO_BASE;
    190c:	e3a03dc1 	mov	r3, #12352	; 0x3040
    1910:	e34f3f20 	movt	r3, #65312	; 0xff20
    1914:	e50b300c 	str	r3, [r11, #-12]
    int            KEY_value;

    KEY_value = *(KEY_ptr); // read the pushbutton KEY values
    1918:	e51b3008 	ldr	r3, [r11, #-8]
    191c:	e5933000 	ldr	r3, [r3]
    1920:	e50b3010 	str	r3, [r11, #-16]
    while (*KEY_ptr)
    1924:	e1a00000 	nop			; (mov r0, r0)
    1928:	e51b3008 	ldr	r3, [r11, #-8]
    192c:	e5933000 	ldr	r3, [r3]
    1930:	e3530000 	cmp	r3, #0
    1934:	1afffffb 	bne	1928 <check_KEYs+0x44>
        ; // wait for pushbutton KEY release

    if (KEY_value == 0x1) // check KEY0
    1938:	e51b3010 	ldr	r3, [r11, #-16]
    193c:	e3530001 	cmp	r3, #1
    1940:	1a00000c 	bne	1978 <check_KEYs+0x94>
    {
        // reset counter to start recording
        *counter = 0;
    1944:	e51b3024 	ldr	r3, [r11, #-36]	; 0xffffffdc
    1948:	e3a02000 	mov	r2, #0
    194c:	e5832000 	str	r2, [r3]
        // clear audio-in FIFO
        *(audio_ptr) = 0x4;
    1950:	e51b300c 	ldr	r3, [r11, #-12]
    1954:	e3a02004 	mov	r2, #4
    1958:	e5832000 	str	r2, [r3]
        *(audio_ptr) = 0x0;
    195c:	e51b300c 	ldr	r3, [r11, #-12]
    1960:	e3a02000 	mov	r2, #0
    1964:	e5832000 	str	r2, [r3]

        *KEY0 = 1;
    1968:	e51b3018 	ldr	r3, [r11, #-24]	; 0xffffffe8
    196c:	e3a02001 	mov	r2, #1
    1970:	e5832000 	str	r2, [r3]
    1974:	ea00001e 	b	19f4 <check_KEYs+0x110>
    } else if (KEY_value == 0x2) // check KEY1
    1978:	e51b3010 	ldr	r3, [r11, #-16]
    197c:	e3530002 	cmp	r3, #2
    1980:	1a00000c 	bne	19b8 <check_KEYs+0xd4>
    {
        // reset counter to start playback
        *counter = 0;
    1984:	e51b3024 	ldr	r3, [r11, #-36]	; 0xffffffdc
    1988:	e3a02000 	mov	r2, #0
    198c:	e5832000 	str	r2, [r3]
        // clear audio-out FIFO
        *(audio_ptr) = 0x8;
    1990:	e51b300c 	ldr	r3, [r11, #-12]
    1994:	e3a02008 	mov	r2, #8
    1998:	e5832000 	str	r2, [r3]
        *(audio_ptr) = 0x0;
    199c:	e51b300c 	ldr	r3, [r11, #-12]
    19a0:	e3a02000 	mov	r2, #0
    19a4:	e5832000 	str	r2, [r3]

        *KEY1 = 1;
    19a8:	e51b301c 	ldr	r3, [r11, #-28]	; 0xffffffe4
    19ac:	e3a02001 	mov	r2, #1
    19b0:	e5832000 	str	r2, [r3]
    19b4:	ea00000e 	b	19f4 <check_KEYs+0x110>
    }
    else if (KEY_value == 0x4) // check KEY2
    19b8:	e51b3010 	ldr	r3, [r11, #-16]
    19bc:	e3530004 	cmp	r3, #4
    19c0:	1a00000b 	bne	19f4 <check_KEYs+0x110>
    {
        // reset counter to start playback
        *counter = 0;
    19c4:	e51b3024 	ldr	r3, [r11, #-36]	; 0xffffffdc
    19c8:	e3a02000 	mov	r2, #0
    19cc:	e5832000 	str	r2, [r3]
        // clear audio-out FIFO
        *(audio_ptr) = 0x8;
    19d0:	e51b300c 	ldr	r3, [r11, #-12]
    19d4:	e3a02008 	mov	r2, #8
    19d8:	e5832000 	str	r2, [r3]
        *(audio_ptr) = 0x0;
    19dc:	e51b300c 	ldr	r3, [r11, #-12]
    19e0:	e3a02000 	mov	r2, #0
    19e4:	e5832000 	str	r2, [r3]

        *KEY2 = 1;
    19e8:	e51b3020 	ldr	r3, [r11, #-32]	; 0xffffffe0
    19ec:	e3a02001 	mov	r2, #1
    19f0:	e5832000 	str	r2, [r3]
    }
}
    19f4:	e28bd000 	add	sp, r11, #0
    19f8:	e8bd0800 	ldmfd	sp!, {r11}
    19fc:	e12fff1e 	bx	lr

00001a00 <VIS_VGA_Setup>:

static RingProperty ring;
static Line canvasHistory[2][MAX_LINES]; 
static int historyIndicator;

void VIS_VGA_Setup() {
    1a00:	e52db004 	push	{r11}		; (str r11, [sp, #-4]!)
    1a04:	e28db000 	add	r11, sp, #0
    ring.colorSeed = 0;
    1a08:	e3083810 	movw	r3, #34832	; 0x8810
    1a0c:	e3403000 	movt	r3, #0
    1a10:	e3a02000 	mov	r2, #0
    1a14:	e5832000 	str	r2, [r3]
    ring.offsetDeg = 0;
    1a18:	e3083810 	movw	r3, #34832	; 0x8810
    1a1c:	e3403000 	movt	r3, #0
    1a20:	e3a02000 	mov	r2, #0
    1a24:	e5832004 	str	r2, [r3, #4]
    ring.radius = SCREEN_H / 8;
    1a28:	e3083810 	movw	r3, #34832	; 0x8810
    1a2c:	e3403000 	movt	r3, #0
    1a30:	e3a0201e 	mov	r2, #30
    1a34:	e5832008 	str	r2, [r3, #8]
    ring.inOffset = 100;
    1a38:	e3083810 	movw	r3, #34832	; 0x8810
    1a3c:	e3403000 	movt	r3, #0
    1a40:	e3a02064 	mov	r2, #100	; 0x64
    1a44:	e583200c 	str	r2, [r3, #12]
    ring.loudnessThreshold = 1000;
    1a48:	e3083810 	movw	r3, #34832	; 0x8810
    1a4c:	e3403000 	movt	r3, #0
    1a50:	e3a02ffa 	mov	r2, #1000	; 0x3e8
    1a54:	e5832018 	str	r2, [r3, #24]
    ring.cX = SCREEN_W / 2;
    1a58:	e3083810 	movw	r3, #34832	; 0x8810
    1a5c:	e3403000 	movt	r3, #0
    1a60:	e3a020a0 	mov	r2, #160	; 0xa0
    1a64:	e5832010 	str	r2, [r3, #16]
    ring.cY = SCREEN_H / 2;
    1a68:	e3083810 	movw	r3, #34832	; 0x8810
    1a6c:	e3403000 	movt	r3, #0
    1a70:	e3a02078 	mov	r2, #120	; 0x78
    1a74:	e5832014 	str	r2, [r3, #20]
    historyIndicator = 0;
    1a78:	e302346c 	movw	r3, #9324	; 0x246c
    1a7c:	e3403001 	movt	r3, #1
    1a80:	e3a02000 	mov	r2, #0
    1a84:	e5832000 	str	r2, [r3]
}
    1a88:	e28bd000 	add	sp, r11, #0
    1a8c:	e8bd0800 	ldmfd	sp!, {r11}
    1a90:	e12fff1e 	bx	lr

00001a94 <get_ring>:

RingProperty *get_ring() {
    1a94:	e52db004 	push	{r11}		; (str r11, [sp, #-4]!)
    1a98:	e28db000 	add	r11, sp, #0
    return &ring;
    1a9c:	e3083810 	movw	r3, #34832	; 0x8810
    1aa0:	e3403000 	movt	r3, #0
}
    1aa4:	e1a00003 	mov	r0, r3
    1aa8:	e28bd000 	add	sp, r11, #0
    1aac:	e8bd0800 	ldmfd	sp!, {r11}
    1ab0:	e12fff1e 	bx	lr

00001ab4 <VIS_VGA_UpdateFrame>:

void VIS_VGA_UpdateFrame(unsigned size, unsigned spect[]) {
    1ab4:	e92d4810 	push	{r4, r11, lr}
    1ab8:	e28db008 	add	r11, sp, #8
    1abc:	e24dd044 	sub	sp, sp, #68	; 0x44
    1ac0:	e50b0040 	str	r0, [r11, #-64]	; 0xffffffc0
    1ac4:	e50b1044 	str	r1, [r11, #-68]	; 0xffffffbc
    while((*(pixel_ctrl_ptr + 3)) & 0x1); // wait for the previous swap
    1ac8:	e1a00000 	nop			; (mov r0, r0)
    1acc:	e30833b0 	movw	r3, #33712	; 0x83b0
    1ad0:	e3403000 	movt	r3, #0
    1ad4:	e5933000 	ldr	r3, [r3]
    1ad8:	e283300c 	add	r3, r3, #12
    1adc:	e5933000 	ldr	r3, [r3]
    1ae0:	e2033001 	and	r3, r3, #1
    1ae4:	e3530000 	cmp	r3, #0
    1ae8:	1afffff7 	bne	1acc <VIS_VGA_UpdateFrame+0x18>
    pixel_buffer_start = *(pixel_ctrl_ptr + 1); // we draw on the back buffer
    1aec:	e30833b0 	movw	r3, #33712	; 0x83b0
    1af0:	e3403000 	movt	r3, #0
    1af4:	e5933000 	ldr	r3, [r3]
    1af8:	e5932004 	ldr	r2, [r3, #4]
    1afc:	e308380c 	movw	r3, #34828	; 0x880c
    1b00:	e3403000 	movt	r3, #0
    1b04:	e5832000 	str	r2, [r3]
    historyIndicator = 1 - historyIndicator;
    1b08:	e302346c 	movw	r3, #9324	; 0x246c
    1b0c:	e3403001 	movt	r3, #1
    1b10:	e5933000 	ldr	r3, [r3]
    1b14:	e2632001 	rsb	r2, r3, #1
    1b18:	e302346c 	movw	r3, #9324	; 0x246c
    1b1c:	e3403001 	movt	r3, #1
    1b20:	e5832000 	str	r2, [r3]

    // find the largest number and default max is set in ring property
    unsigned maxLoudness = ring.loudnessThreshold;
    1b24:	e3083810 	movw	r3, #34832	; 0x8810
    1b28:	e3403000 	movt	r3, #0
    1b2c:	e5933018 	ldr	r3, [r3, #24]
    1b30:	e50b3010 	str	r3, [r11, #-16]
    for (int i = 0; i < size; i++) {
    1b34:	e3a03000 	mov	r3, #0
    1b38:	e50b3014 	str	r3, [r11, #-20]	; 0xffffffec
    1b3c:	ea00000b 	b	1b70 <VIS_VGA_UpdateFrame+0xbc>
        maxLoudness = maxLoudness >= spect[i] ? maxLoudness : spect[i];
    1b40:	e51b3014 	ldr	r3, [r11, #-20]	; 0xffffffec
    1b44:	e1a03103 	lsl	r3, r3, #2
    1b48:	e51b2044 	ldr	r2, [r11, #-68]	; 0xffffffbc
    1b4c:	e0823003 	add	r3, r2, r3
    1b50:	e5933000 	ldr	r3, [r3]
    1b54:	e51b2010 	ldr	r2, [r11, #-16]
    1b58:	e1520003 	cmp	r2, r3
    1b5c:	21a03002 	movcs	r3, r2
    1b60:	e50b3010 	str	r3, [r11, #-16]
    pixel_buffer_start = *(pixel_ctrl_ptr + 1); // we draw on the back buffer
    historyIndicator = 1 - historyIndicator;

    // find the largest number and default max is set in ring property
    unsigned maxLoudness = ring.loudnessThreshold;
    for (int i = 0; i < size; i++) {
    1b64:	e51b3014 	ldr	r3, [r11, #-20]	; 0xffffffec
    1b68:	e2833001 	add	r3, r3, #1
    1b6c:	e50b3014 	str	r3, [r11, #-20]	; 0xffffffec
    1b70:	e51b2014 	ldr	r2, [r11, #-20]	; 0xffffffec
    1b74:	e51b3040 	ldr	r3, [r11, #-64]	; 0xffffffc0
    1b78:	e1520003 	cmp	r2, r3
    1b7c:	3affffef 	bcc	1b40 <VIS_VGA_UpdateFrame+0x8c>
        maxLoudness = maxLoudness >= spect[i] ? maxLoudness : spect[i];
    }

    // // draw on VGA
    // unsigned startDeg = ring.offsetDeg;
    for (int i = 0; i < size; i++) {
    1b80:	e3a03000 	mov	r3, #0
    1b84:	e50b3018 	str	r3, [r11, #-24]	; 0xffffffe8
    1b88:	ea0000fa 	b	1f78 <VIS_VGA_UpdateFrame+0x4c4>
        unsigned color = color_from_gradient_hsv(ring.colorSeed + i * COLOR_RANGE / size);
    1b8c:	e3083810 	movw	r3, #34832	; 0x8810
    1b90:	e3403000 	movt	r3, #0
    1b94:	e5933000 	ldr	r3, [r3]
    1b98:	e1a04003 	mov	r4, r3
    1b9c:	e51b2018 	ldr	r2, [r11, #-24]	; 0xffffffe8
    1ba0:	e1a03002 	mov	r3, r2
    1ba4:	e1a03203 	lsl	r3, r3, #4
    1ba8:	e0623003 	rsb	r3, r2, r3
    1bac:	e1a03203 	lsl	r3, r3, #4
    1bb0:	e1a00003 	mov	r0, r3
    1bb4:	e51b1040 	ldr	r1, [r11, #-64]	; 0xffffffc0
    1bb8:	eb000c69 	bl	4d64 <__aeabi_uidiv>
    1bbc:	e1a03000 	mov	r3, r0
    1bc0:	e0843003 	add	r3, r4, r3
    1bc4:	e1a00003 	mov	r0, r3
    1bc8:	eb000230 	bl	2490 <color_from_gradient_hsv>
    1bcc:	e1a03000 	mov	r3, r0
    1bd0:	e50b301c 	str	r3, [r11, #-28]	; 0xffffffe4
        unsigned degree = i * 360 / size + (ring.offsetDeg >> 4);
    1bd4:	e51b3018 	ldr	r3, [r11, #-24]	; 0xffffffe8
    1bd8:	e3a02f5a 	mov	r2, #360	; 0x168
    1bdc:	e0030392 	mul	r3, r2, r3
    1be0:	e1a00003 	mov	r0, r3
    1be4:	e51b1040 	ldr	r1, [r11, #-64]	; 0xffffffc0
    1be8:	eb000c5d 	bl	4d64 <__aeabi_uidiv>
    1bec:	e1a03000 	mov	r3, r0
    1bf0:	e1a02003 	mov	r2, r3
    1bf4:	e3083810 	movw	r3, #34832	; 0x8810
    1bf8:	e3403000 	movt	r3, #0
    1bfc:	e5933004 	ldr	r3, [r3, #4]
    1c00:	e1a03243 	asr	r3, r3, #4
    1c04:	e0823003 	add	r3, r2, r3
    1c08:	e50b3020 	str	r3, [r11, #-32]	; 0xffffffe0
        int maxLength = (SCREEN_W / 2 - ring.radius);
    1c0c:	e3083810 	movw	r3, #34832	; 0x8810
    1c10:	e3403000 	movt	r3, #0
    1c14:	e5933008 	ldr	r3, [r3, #8]
    1c18:	e26330a0 	rsb	r3, r3, #160	; 0xa0
    1c1c:	e50b3024 	str	r3, [r11, #-36]	; 0xffffffdc

        // // calculate start point
        int innerR = ring.radius - ((ring.inOffset * maxLength * spect[i] / maxLoudness) >> 12);
    1c20:	e3083810 	movw	r3, #34832	; 0x8810
    1c24:	e3403000 	movt	r3, #0
    1c28:	e5933008 	ldr	r3, [r3, #8]
    1c2c:	e1a04003 	mov	r4, r3
    1c30:	e3083810 	movw	r3, #34832	; 0x8810
    1c34:	e3403000 	movt	r3, #0
    1c38:	e593300c 	ldr	r3, [r3, #12]
    1c3c:	e51b2024 	ldr	r2, [r11, #-36]	; 0xffffffdc
    1c40:	e0030392 	mul	r3, r2, r3
    1c44:	e51b2018 	ldr	r2, [r11, #-24]	; 0xffffffe8
    1c48:	e1a02102 	lsl	r2, r2, #2
    1c4c:	e51b1044 	ldr	r1, [r11, #-68]	; 0xffffffbc
    1c50:	e0812002 	add	r2, r1, r2
    1c54:	e5922000 	ldr	r2, [r2]
    1c58:	e0030392 	mul	r3, r2, r3
    1c5c:	e1a00003 	mov	r0, r3
    1c60:	e51b1010 	ldr	r1, [r11, #-16]
    1c64:	eb000c3e 	bl	4d64 <__aeabi_uidiv>
    1c68:	e1a03000 	mov	r3, r0
    1c6c:	e1a03623 	lsr	r3, r3, #12
    1c70:	e0633004 	rsb	r3, r3, r4
    1c74:	e50b3028 	str	r3, [r11, #-40]	; 0xffffffd8
        unsigned iX = ring.cX + ((innerR * VIS_FastSin_d16(degree)) >> 16);
    1c78:	e3083810 	movw	r3, #34832	; 0x8810
    1c7c:	e3403000 	movt	r3, #0
    1c80:	e5934010 	ldr	r4, [r3, #16]
    1c84:	e51b3020 	ldr	r3, [r11, #-32]	; 0xffffffe0
    1c88:	e1a00003 	mov	r0, r3
    1c8c:	eb000404 	bl	2ca4 <VIS_FastSin_d16>
    1c90:	e1a03000 	mov	r3, r0
    1c94:	e51b2028 	ldr	r2, [r11, #-40]	; 0xffffffd8
    1c98:	e0030392 	mul	r3, r2, r3
    1c9c:	e1a03843 	asr	r3, r3, #16
    1ca0:	e0843003 	add	r3, r4, r3
    1ca4:	e50b302c 	str	r3, [r11, #-44]	; 0xffffffd4
        unsigned iY = ring.cY - ((innerR * VIS_FastCos_d16(degree)) >> 16);
    1ca8:	e3083810 	movw	r3, #34832	; 0x8810
    1cac:	e3403000 	movt	r3, #0
    1cb0:	e5934014 	ldr	r4, [r3, #20]
    1cb4:	e51b3020 	ldr	r3, [r11, #-32]	; 0xffffffe0
    1cb8:	e1a00003 	mov	r0, r3
    1cbc:	eb00042b 	bl	2d70 <VIS_FastCos_d16>
    1cc0:	e1a03000 	mov	r3, r0
    1cc4:	e51b2028 	ldr	r2, [r11, #-40]	; 0xffffffd8
    1cc8:	e0030392 	mul	r3, r2, r3
    1ccc:	e1a03843 	asr	r3, r3, #16
    1cd0:	e0633004 	rsb	r3, r3, r4
    1cd4:	e50b3030 	str	r3, [r11, #-48]	; 0xffffffd0

        // // calculate color end point
        int outerR = ring.radius + (((1024 - ring.inOffset) * maxLength * spect[i] / maxLoudness) >> 12); 
    1cd8:	e3083810 	movw	r3, #34832	; 0x8810
    1cdc:	e3403000 	movt	r3, #0
    1ce0:	e5933008 	ldr	r3, [r3, #8]
    1ce4:	e1a04003 	mov	r4, r3
    1ce8:	e3083810 	movw	r3, #34832	; 0x8810
    1cec:	e3403000 	movt	r3, #0
    1cf0:	e593300c 	ldr	r3, [r3, #12]
    1cf4:	e2633b01 	rsb	r3, r3, #1024	; 0x400
    1cf8:	e51b2024 	ldr	r2, [r11, #-36]	; 0xffffffdc
    1cfc:	e0030392 	mul	r3, r2, r3
    1d00:	e51b2018 	ldr	r2, [r11, #-24]	; 0xffffffe8
    1d04:	e1a02102 	lsl	r2, r2, #2
    1d08:	e51b1044 	ldr	r1, [r11, #-68]	; 0xffffffbc
    1d0c:	e0812002 	add	r2, r1, r2
    1d10:	e5922000 	ldr	r2, [r2]
    1d14:	e0030392 	mul	r3, r2, r3
    1d18:	e1a00003 	mov	r0, r3
    1d1c:	e51b1010 	ldr	r1, [r11, #-16]
    1d20:	eb000c0f 	bl	4d64 <__aeabi_uidiv>
    1d24:	e1a03000 	mov	r3, r0
    1d28:	e1a03623 	lsr	r3, r3, #12
    1d2c:	e0843003 	add	r3, r4, r3
    1d30:	e50b3034 	str	r3, [r11, #-52]	; 0xffffffcc
        unsigned oX = ring.cX + ((outerR * VIS_FastSin_d16(degree)) >> 16);
    1d34:	e3083810 	movw	r3, #34832	; 0x8810
    1d38:	e3403000 	movt	r3, #0
    1d3c:	e5934010 	ldr	r4, [r3, #16]
    1d40:	e51b3020 	ldr	r3, [r11, #-32]	; 0xffffffe0
    1d44:	e1a00003 	mov	r0, r3
    1d48:	eb0003d5 	bl	2ca4 <VIS_FastSin_d16>
    1d4c:	e1a03000 	mov	r3, r0
    1d50:	e51b2034 	ldr	r2, [r11, #-52]	; 0xffffffcc
    1d54:	e0030392 	mul	r3, r2, r3
    1d58:	e1a03843 	asr	r3, r3, #16
    1d5c:	e0843003 	add	r3, r4, r3
    1d60:	e50b3038 	str	r3, [r11, #-56]	; 0xffffffc8
        unsigned oY = ring.cY - ((outerR * VIS_FastCos_d16(degree)) >> 16);
    1d64:	e3083810 	movw	r3, #34832	; 0x8810
    1d68:	e3403000 	movt	r3, #0
    1d6c:	e5934014 	ldr	r4, [r3, #20]
    1d70:	e51b3020 	ldr	r3, [r11, #-32]	; 0xffffffe0
    1d74:	e1a00003 	mov	r0, r3
    1d78:	eb0003fc 	bl	2d70 <VIS_FastCos_d16>
    1d7c:	e1a03000 	mov	r3, r0
    1d80:	e51b2034 	ldr	r2, [r11, #-52]	; 0xffffffcc
    1d84:	e0030392 	mul	r3, r2, r3
    1d88:	e1a03843 	asr	r3, r3, #16
    1d8c:	e0633004 	rsb	r3, r3, r4
    1d90:	e50b303c 	str	r3, [r11, #-60]	; 0xffffffc4

        // update history
        draw_lineStruct(canvasHistory[historyIndicator][i]);
    1d94:	e302346c 	movw	r3, #9324	; 0x246c
    1d98:	e3403001 	movt	r3, #1
    1d9c:	e5930000 	ldr	r0, [r3]
    1da0:	e308282c 	movw	r2, #34860	; 0x882c
    1da4:	e3402000 	movt	r2, #0
    1da8:	e51b1018 	ldr	r1, [r11, #-24]	; 0xffffffe8
    1dac:	e1a03001 	mov	r3, r1
    1db0:	e1a03103 	lsl	r3, r3, #2
    1db4:	e0833001 	add	r3, r3, r1
    1db8:	e1a03103 	lsl	r3, r3, #2
    1dbc:	e3041e20 	movw	r1, #20000	; 0x4e20
    1dc0:	e0010091 	mul	r1, r1, r0
    1dc4:	e0833001 	add	r3, r3, r1
    1dc8:	e0823003 	add	r3, r2, r3
    1dcc:	e5932010 	ldr	r2, [r3, #16]
    1dd0:	e58d2000 	str	r2, [sp]
    1dd4:	e893000f 	ldm	r3, {r0, r1, r2, r3}
    1dd8:	eb00025c 	bl	2750 <draw_lineStruct>
        canvasHistory[historyIndicator][i] = (Line){iX, iY, oX, oY, 0};
    1ddc:	e302346c 	movw	r3, #9324	; 0x246c
    1de0:	e3403001 	movt	r3, #1
    1de4:	e5932000 	ldr	r2, [r3]
    1de8:	e308182c 	movw	r1, #34860	; 0x882c
    1dec:	e3401000 	movt	r1, #0
    1df0:	e51b0018 	ldr	r0, [r11, #-24]	; 0xffffffe8
    1df4:	e1a03000 	mov	r3, r0
    1df8:	e1a03103 	lsl	r3, r3, #2
    1dfc:	e0833000 	add	r3, r3, r0
    1e00:	e1a03103 	lsl	r3, r3, #2
    1e04:	e3040e20 	movw	r0, #20000	; 0x4e20
    1e08:	e0000290 	mul	r0, r0, r2
    1e0c:	e0833000 	add	r3, r3, r0
    1e10:	e0813003 	add	r3, r1, r3
    1e14:	e51b102c 	ldr	r1, [r11, #-44]	; 0xffffffd4
    1e18:	e5831000 	str	r1, [r3]
    1e1c:	e308182c 	movw	r1, #34860	; 0x882c
    1e20:	e3401000 	movt	r1, #0
    1e24:	e51b0018 	ldr	r0, [r11, #-24]	; 0xffffffe8
    1e28:	e3a0c004 	mov	r12, #4
    1e2c:	e1a03000 	mov	r3, r0
    1e30:	e1a03103 	lsl	r3, r3, #2
    1e34:	e0833000 	add	r3, r3, r0
    1e38:	e1a03103 	lsl	r3, r3, #2
    1e3c:	e3040e20 	movw	r0, #20000	; 0x4e20
    1e40:	e0000290 	mul	r0, r0, r2
    1e44:	e0833000 	add	r3, r3, r0
    1e48:	e0813003 	add	r3, r1, r3
    1e4c:	e083300c 	add	r3, r3, r12
    1e50:	e51b1030 	ldr	r1, [r11, #-48]	; 0xffffffd0
    1e54:	e5831000 	str	r1, [r3]
    1e58:	e308182c 	movw	r1, #34860	; 0x882c
    1e5c:	e3401000 	movt	r1, #0
    1e60:	e51b0018 	ldr	r0, [r11, #-24]	; 0xffffffe8
    1e64:	e3a0c008 	mov	r12, #8
    1e68:	e1a03000 	mov	r3, r0
    1e6c:	e1a03103 	lsl	r3, r3, #2
    1e70:	e0833000 	add	r3, r3, r0
    1e74:	e1a03103 	lsl	r3, r3, #2
    1e78:	e3040e20 	movw	r0, #20000	; 0x4e20
    1e7c:	e0000290 	mul	r0, r0, r2
    1e80:	e0833000 	add	r3, r3, r0
    1e84:	e0813003 	add	r3, r1, r3
    1e88:	e083300c 	add	r3, r3, r12
    1e8c:	e51b1038 	ldr	r1, [r11, #-56]	; 0xffffffc8
    1e90:	e5831000 	str	r1, [r3]
    1e94:	e308182c 	movw	r1, #34860	; 0x882c
    1e98:	e3401000 	movt	r1, #0
    1e9c:	e51b0018 	ldr	r0, [r11, #-24]	; 0xffffffe8
    1ea0:	e3a0c00c 	mov	r12, #12
    1ea4:	e1a03000 	mov	r3, r0
    1ea8:	e1a03103 	lsl	r3, r3, #2
    1eac:	e0833000 	add	r3, r3, r0
    1eb0:	e1a03103 	lsl	r3, r3, #2
    1eb4:	e3040e20 	movw	r0, #20000	; 0x4e20
    1eb8:	e0000290 	mul	r0, r0, r2
    1ebc:	e0833000 	add	r3, r3, r0
    1ec0:	e0813003 	add	r3, r1, r3
    1ec4:	e083300c 	add	r3, r3, r12
    1ec8:	e51b103c 	ldr	r1, [r11, #-60]	; 0xffffffc4
    1ecc:	e5831000 	str	r1, [r3]
    1ed0:	e308182c 	movw	r1, #34860	; 0x882c
    1ed4:	e3401000 	movt	r1, #0
    1ed8:	e51b0018 	ldr	r0, [r11, #-24]	; 0xffffffe8
    1edc:	e3a0c010 	mov	r12, #16
    1ee0:	e1a03000 	mov	r3, r0
    1ee4:	e1a03103 	lsl	r3, r3, #2
    1ee8:	e0833000 	add	r3, r3, r0
    1eec:	e1a03103 	lsl	r3, r3, #2
    1ef0:	e3040e20 	movw	r0, #20000	; 0x4e20
    1ef4:	e0020290 	mul	r2, r0, r2
    1ef8:	e0833002 	add	r3, r3, r2
    1efc:	e0813003 	add	r3, r1, r3
    1f00:	e083300c 	add	r3, r3, r12
    1f04:	e3a02000 	mov	r2, #0
    1f08:	e5832000 	str	r2, [r3]

        draw_line(iX, iY, oX, oY, color);
    1f0c:	e51b002c 	ldr	r0, [r11, #-44]	; 0xffffffd4
    1f10:	e51b1030 	ldr	r1, [r11, #-48]	; 0xffffffd0
    1f14:	e51b2038 	ldr	r2, [r11, #-56]	; 0xffffffc8
    1f18:	e51b303c 	ldr	r3, [r11, #-60]	; 0xffffffc4
    1f1c:	e51bc01c 	ldr	r12, [r11, #-28]	; 0xffffffe4
    1f20:	e58dc000 	str	r12, [sp]
    1f24:	eb00021d 	bl	27a0 <draw_line>

        // update ring properties
        // ring.colorSeed = (ring.colorSeed + 1) & 1F;
        ring.offsetDeg = (ring.offsetDeg + 1) % (360 << 4);
    1f28:	e3083810 	movw	r3, #34832	; 0x8810
    1f2c:	e3403000 	movt	r3, #0
    1f30:	e5933004 	ldr	r3, [r3, #4]
    1f34:	e2833001 	add	r3, r3, #1
    1f38:	e30620b7 	movw	r2, #24759	; 0x60b7
    1f3c:	e34b260b 	movt	r2, #46603	; 0xb60b
    1f40:	e0c21392 	smull	r1, r2, r2, r3
    1f44:	e0822003 	add	r2, r2, r3
    1f48:	e1a01642 	asr	r1, r2, #12
    1f4c:	e1a02fc3 	asr	r2, r3, #31
    1f50:	e0622001 	rsb	r2, r2, r1
    1f54:	e3a01d5a 	mov	r1, #5760	; 0x1680
    1f58:	e0020291 	mul	r2, r1, r2
    1f5c:	e0622003 	rsb	r2, r2, r3
    1f60:	e3083810 	movw	r3, #34832	; 0x8810
    1f64:	e3403000 	movt	r3, #0
    1f68:	e5832004 	str	r2, [r3, #4]
        maxLoudness = maxLoudness >= spect[i] ? maxLoudness : spect[i];
    }

    // // draw on VGA
    // unsigned startDeg = ring.offsetDeg;
    for (int i = 0; i < size; i++) {
    1f6c:	e51b3018 	ldr	r3, [r11, #-24]	; 0xffffffe8
    1f70:	e2833001 	add	r3, r3, #1
    1f74:	e50b3018 	str	r3, [r11, #-24]	; 0xffffffe8
    1f78:	e51b2018 	ldr	r2, [r11, #-24]	; 0xffffffe8
    1f7c:	e51b3040 	ldr	r3, [r11, #-64]	; 0xffffffc0
    1f80:	e1520003 	cmp	r2, r3
    1f84:	3affff00 	bcc	1b8c <VIS_VGA_UpdateFrame+0xd8>
        ring.offsetDeg = (ring.offsetDeg + 1) % (360 << 4);
    }


    // swap front and back buffers on VGA vertical sync
    *pixel_ctrl_ptr = 0x1;
    1f88:	e30833b0 	movw	r3, #33712	; 0x83b0
    1f8c:	e3403000 	movt	r3, #0
    1f90:	e5933000 	ldr	r3, [r3]
    1f94:	e3a02001 	mov	r2, #1
    1f98:	e5832000 	str	r2, [r3]
}
    1f9c:	e24bd008 	sub	sp, r11, #8
    1fa0:	e8bd8810 	pop	{r4, r11, pc}

00001fa4 <VIS_VGA_ColorTest>:

void VIS_VGA_ColorTest() {
    1fa4:	e92d4800 	push	{r11, lr}
    1fa8:	e28db004 	add	r11, sp, #4
    1fac:	e24dd010 	sub	sp, sp, #16
    
    while((*(pixel_ctrl_ptr + 3)) & 0x1); // wait for the previous swap
    1fb0:	e1a00000 	nop			; (mov r0, r0)
    1fb4:	e30833b0 	movw	r3, #33712	; 0x83b0
    1fb8:	e3403000 	movt	r3, #0
    1fbc:	e5933000 	ldr	r3, [r3]
    1fc0:	e283300c 	add	r3, r3, #12
    1fc4:	e5933000 	ldr	r3, [r3]
    1fc8:	e2033001 	and	r3, r3, #1
    1fcc:	e3530000 	cmp	r3, #0
    1fd0:	1afffff7 	bne	1fb4 <VIS_VGA_ColorTest+0x10>
    pixel_buffer_start = *(pixel_ctrl_ptr + 1); // we draw on the back buffer
    1fd4:	e30833b0 	movw	r3, #33712	; 0x83b0
    1fd8:	e3403000 	movt	r3, #0
    1fdc:	e5933000 	ldr	r3, [r3]
    1fe0:	e5932004 	ldr	r2, [r3, #4]
    1fe4:	e308380c 	movw	r3, #34828	; 0x880c
    1fe8:	e3403000 	movt	r3, #0
    1fec:	e5832000 	str	r2, [r3]
    
    clear_screen();
    1ff0:	eb000293 	bl	2a44 <clear_screen>
    for (int i = 0; i < SCREEN_H; i++) {
    1ff4:	e3a03000 	mov	r3, #0
    1ff8:	e50b3008 	str	r3, [r11, #-8]
    1ffc:	ea000017 	b	2060 <VIS_VGA_ColorTest+0xbc>
        draw_line(0, i, SCREEN_W - 1, i, color_from_gradient_hsv(i * COLOR_RANGE / SCREEN_H));
    2000:	e51b2008 	ldr	r2, [r11, #-8]
    2004:	e1a03002 	mov	r3, r2
    2008:	e1a03203 	lsl	r3, r3, #4
    200c:	e0623003 	rsb	r3, r2, r3
    2010:	e1a03203 	lsl	r3, r3, #4
    2014:	e3082889 	movw	r2, #34953	; 0x8889
    2018:	e3482888 	movt	r2, #34952	; 0x8888
    201c:	e0c21392 	smull	r1, r2, r2, r3
    2020:	e0822003 	add	r2, r2, r3
    2024:	e1a023c2 	asr	r2, r2, #7
    2028:	e1a03fc3 	asr	r3, r3, #31
    202c:	e0633002 	rsb	r3, r3, r2
    2030:	e1a00003 	mov	r0, r3
    2034:	eb000115 	bl	2490 <color_from_gradient_hsv>
    2038:	e1a03000 	mov	r3, r0
    203c:	e58d3000 	str	r3, [sp]
    2040:	e3a00000 	mov	r0, #0
    2044:	e51b1008 	ldr	r1, [r11, #-8]
    2048:	e300213f 	movw	r2, #319	; 0x13f
    204c:	e51b3008 	ldr	r3, [r11, #-8]
    2050:	eb0001d2 	bl	27a0 <draw_line>
    
    while((*(pixel_ctrl_ptr + 3)) & 0x1); // wait for the previous swap
    pixel_buffer_start = *(pixel_ctrl_ptr + 1); // we draw on the back buffer
    
    clear_screen();
    for (int i = 0; i < SCREEN_H; i++) {
    2054:	e51b3008 	ldr	r3, [r11, #-8]
    2058:	e2833001 	add	r3, r3, #1
    205c:	e50b3008 	str	r3, [r11, #-8]
    2060:	e51b3008 	ldr	r3, [r11, #-8]
    2064:	e35300ef 	cmp	r3, #239	; 0xef
    2068:	daffffe4 	ble	2000 <VIS_VGA_ColorTest+0x5c>
        draw_line(0, i, SCREEN_W - 1, i, color_from_gradient_hsv(i * COLOR_RANGE / SCREEN_H));
    }

    // swap front and back buffers on VGA vertical sync
    *pixel_ctrl_ptr = 0x1;
    206c:	e30833b0 	movw	r3, #33712	; 0x83b0
    2070:	e3403000 	movt	r3, #0
    2074:	e5933000 	ldr	r3, [r3]
    2078:	e3a02001 	mov	r2, #1
    207c:	e5832000 	str	r2, [r3]
}
    2080:	e24bd004 	sub	sp, r11, #4
    2084:	e8bd8800 	pop	{r11, pc}

00002088 <VIS_VGA_SetBuffer>:

void VIS_VGA_SetBuffer(unsigned frontAddress, unsigned backAddress) {
    2088:	e92d4800 	push	{r11, lr}
    208c:	e28db004 	add	r11, sp, #4
    2090:	e24dd008 	sub	sp, sp, #8
    2094:	e50b0008 	str	r0, [r11, #-8]
    2098:	e50b100c 	str	r1, [r11, #-12]
    *(pixel_ctrl_ptr + 1) = frontAddress;
    209c:	e30833b0 	movw	r3, #33712	; 0x83b0
    20a0:	e3403000 	movt	r3, #0
    20a4:	e5933000 	ldr	r3, [r3]
    20a8:	e2833004 	add	r3, r3, #4
    20ac:	e51b2008 	ldr	r2, [r11, #-8]
    20b0:	e5832000 	str	r2, [r3]
    pixel_buffer_start = *(pixel_ctrl_ptr + 1); // we draw on the back buffer
    20b4:	e30833b0 	movw	r3, #33712	; 0x83b0
    20b8:	e3403000 	movt	r3, #0
    20bc:	e5933000 	ldr	r3, [r3]
    20c0:	e5932004 	ldr	r2, [r3, #4]
    20c4:	e308380c 	movw	r3, #34828	; 0x880c
    20c8:	e3403000 	movt	r3, #0
    20cc:	e5832000 	str	r2, [r3]
    clear_screen();
    20d0:	eb00025b 	bl	2a44 <clear_screen>
    wait_for_vsync();
    20d4:	eb000178 	bl	26bc <wait_for_vsync>
    
    /* set front pixel buffer to start of FPGA On-chip memory */
    *(pixel_ctrl_ptr + 1) = backAddress;
    20d8:	e30833b0 	movw	r3, #33712	; 0x83b0
    20dc:	e3403000 	movt	r3, #0
    20e0:	e5933000 	ldr	r3, [r3]
    20e4:	e2833004 	add	r3, r3, #4
    20e8:	e51b200c 	ldr	r2, [r11, #-12]
    20ec:	e5832000 	str	r2, [r3]
    pixel_buffer_start = *(pixel_ctrl_ptr + 1); // we draw on the front buffer
    20f0:	e30833b0 	movw	r3, #33712	; 0x83b0
    20f4:	e3403000 	movt	r3, #0
    20f8:	e5933000 	ldr	r3, [r3]
    20fc:	e5932004 	ldr	r2, [r3, #4]
    2100:	e308380c 	movw	r3, #34828	; 0x880c
    2104:	e3403000 	movt	r3, #0
    2108:	e5832000 	str	r2, [r3]
    clear_screen();
    210c:	eb00024c 	bl	2a44 <clear_screen>
    wait_for_vsync();
    2110:	eb000169 	bl	26bc <wait_for_vsync>

    VIS_VGA_Setup();
    2114:	ebfffe39 	bl	1a00 <VIS_VGA_Setup>
}
    2118:	e24bd004 	sub	sp, r11, #4
    211c:	e8bd8800 	pop	{r11, pc}

00002120 <color_from_RGB888>:

int color_from_RGB888(int r, int g, int b) {
    2120:	e52db004 	push	{r11}		; (str r11, [sp, #-4]!)
    2124:	e28db000 	add	r11, sp, #0
    2128:	e24dd014 	sub	sp, sp, #20
    212c:	e50b0008 	str	r0, [r11, #-8]
    2130:	e50b100c 	str	r1, [r11, #-12]
    2134:	e50b2010 	str	r2, [r11, #-16]
#ifdef DEBUG
    r = r % 256;
    2138:	e51b2008 	ldr	r2, [r11, #-8]
    213c:	e1a03fc2 	asr	r3, r2, #31
    2140:	e1a03c23 	lsr	r3, r3, #24
    2144:	e0822003 	add	r2, r2, r3
    2148:	e6ef2072 	uxtb	r2, r2
    214c:	e0633002 	rsb	r3, r3, r2
    2150:	e50b3008 	str	r3, [r11, #-8]
    g = g % 256;
    2154:	e51b200c 	ldr	r2, [r11, #-12]
    2158:	e1a03fc2 	asr	r3, r2, #31
    215c:	e1a03c23 	lsr	r3, r3, #24
    2160:	e0822003 	add	r2, r2, r3
    2164:	e6ef2072 	uxtb	r2, r2
    2168:	e0633002 	rsb	r3, r3, r2
    216c:	e50b300c 	str	r3, [r11, #-12]
    b = b % 256;
    2170:	e51b2010 	ldr	r2, [r11, #-16]
    2174:	e1a03fc2 	asr	r3, r2, #31
    2178:	e1a03c23 	lsr	r3, r3, #24
    217c:	e0822003 	add	r2, r2, r3
    2180:	e6ef2072 	uxtb	r2, r2
    2184:	e0633002 	rsb	r3, r3, r2
    2188:	e50b3010 	str	r3, [r11, #-16]
#endif
    return (r >> 3 << 11 ) | (g >> 2 << 5 ) | (b >> 3 & 0x1F);
    218c:	e51b3008 	ldr	r3, [r11, #-8]
    2190:	e1a031c3 	asr	r3, r3, #3
    2194:	e1a02583 	lsl	r2, r3, #11
    2198:	e51b300c 	ldr	r3, [r11, #-12]
    219c:	e1a03143 	asr	r3, r3, #2
    21a0:	e1a03283 	lsl	r3, r3, #5
    21a4:	e1822003 	orr	r2, r2, r3
    21a8:	e51b3010 	ldr	r3, [r11, #-16]
    21ac:	e1a031c3 	asr	r3, r3, #3
    21b0:	e203301f 	and	r3, r3, #31
    21b4:	e1823003 	orr	r3, r2, r3
}
    21b8:	e1a00003 	mov	r0, r3
    21bc:	e28bd000 	add	sp, r11, #0
    21c0:	e8bd0800 	ldmfd	sp!, {r11}
    21c4:	e12fff1e 	bx	lr

000021c8 <color_from_gradient>:

int color_from_gradient(int seed, int freq) {
    21c8:	e92d4800 	push	{r11, lr}
    21cc:	e28db004 	add	r11, sp, #4
    21d0:	e24dd018 	sub	sp, sp, #24
    21d4:	e50b0018 	str	r0, [r11, #-24]	; 0xffffffe8
    21d8:	e50b101c 	str	r1, [r11, #-28]	; 0xffffffe4
    int r = ((127 * VIS_FastSin_r16((freq * seed << 16) / 30 + (0 << 16))) >> 16) + 128;
    21dc:	e51b301c 	ldr	r3, [r11, #-28]	; 0xffffffe4
    21e0:	e51b2018 	ldr	r2, [r11, #-24]	; 0xffffffe8
    21e4:	e0030392 	mul	r3, r2, r3
    21e8:	e1a03803 	lsl	r3, r3, #16
    21ec:	e3082889 	movw	r2, #34953	; 0x8889
    21f0:	e3482888 	movt	r2, #34952	; 0x8888
    21f4:	e0c21392 	smull	r1, r2, r2, r3
    21f8:	e0822003 	add	r2, r2, r3
    21fc:	e1a02242 	asr	r2, r2, #4
    2200:	e1a03fc3 	asr	r3, r3, #31
    2204:	e0633002 	rsb	r3, r3, r2
    2208:	e1a00003 	mov	r0, r3
    220c:	eb0002bc 	bl	2d04 <VIS_FastSin_r16>
    2210:	e1a02000 	mov	r2, r0
    2214:	e1a03002 	mov	r3, r2
    2218:	e1a03383 	lsl	r3, r3, #7
    221c:	e0623003 	rsb	r3, r2, r3
    2220:	e1a03843 	asr	r3, r3, #16
    2224:	e2833080 	add	r3, r3, #128	; 0x80
    2228:	e50b3008 	str	r3, [r11, #-8]
    int g = ((127 * VIS_FastSin_r16((freq * seed << 16) / 30 + (1 << 16))) >> 16) + 128;
    222c:	e51b301c 	ldr	r3, [r11, #-28]	; 0xffffffe4
    2230:	e51b2018 	ldr	r2, [r11, #-24]	; 0xffffffe8
    2234:	e0030392 	mul	r3, r2, r3
    2238:	e1a03803 	lsl	r3, r3, #16
    223c:	e3082889 	movw	r2, #34953	; 0x8889
    2240:	e3482888 	movt	r2, #34952	; 0x8888
    2244:	e0c21392 	smull	r1, r2, r2, r3
    2248:	e0822003 	add	r2, r2, r3
    224c:	e1a02242 	asr	r2, r2, #4
    2250:	e1a03fc3 	asr	r3, r3, #31
    2254:	e0633002 	rsb	r3, r3, r2
    2258:	e2833801 	add	r3, r3, #65536	; 0x10000
    225c:	e1a00003 	mov	r0, r3
    2260:	eb0002a7 	bl	2d04 <VIS_FastSin_r16>
    2264:	e1a02000 	mov	r2, r0
    2268:	e1a03002 	mov	r3, r2
    226c:	e1a03383 	lsl	r3, r3, #7
    2270:	e0623003 	rsb	r3, r2, r3
    2274:	e1a03843 	asr	r3, r3, #16
    2278:	e2833080 	add	r3, r3, #128	; 0x80
    227c:	e50b300c 	str	r3, [r11, #-12]
    int b = ((127 * VIS_FastSin_r16((freq * seed << 16) / 30 + (2 << 16))) >> 16) + 128;
    2280:	e51b301c 	ldr	r3, [r11, #-28]	; 0xffffffe4
    2284:	e51b2018 	ldr	r2, [r11, #-24]	; 0xffffffe8
    2288:	e0030392 	mul	r3, r2, r3
    228c:	e1a03803 	lsl	r3, r3, #16
    2290:	e3082889 	movw	r2, #34953	; 0x8889
    2294:	e3482888 	movt	r2, #34952	; 0x8888
    2298:	e0c21392 	smull	r1, r2, r2, r3
    229c:	e0822003 	add	r2, r2, r3
    22a0:	e1a02242 	asr	r2, r2, #4
    22a4:	e1a03fc3 	asr	r3, r3, #31
    22a8:	e0633002 	rsb	r3, r3, r2
    22ac:	e2833802 	add	r3, r3, #131072	; 0x20000
    22b0:	e1a00003 	mov	r0, r3
    22b4:	eb000292 	bl	2d04 <VIS_FastSin_r16>
    22b8:	e1a02000 	mov	r2, r0
    22bc:	e1a03002 	mov	r3, r2
    22c0:	e1a03383 	lsl	r3, r3, #7
    22c4:	e0623003 	rsb	r3, r2, r3
    22c8:	e1a03843 	asr	r3, r3, #16
    22cc:	e2833080 	add	r3, r3, #128	; 0x80
    22d0:	e50b3010 	str	r3, [r11, #-16]
    return color_from_RGB888(r, g, b);
    22d4:	e51b0008 	ldr	r0, [r11, #-8]
    22d8:	e51b100c 	ldr	r1, [r11, #-12]
    22dc:	e51b2010 	ldr	r2, [r11, #-16]
    22e0:	ebffff8e 	bl	2120 <color_from_RGB888>
    22e4:	e1a03000 	mov	r3, r0
}
    22e8:	e1a00003 	mov	r0, r3
    22ec:	e24bd004 	sub	sp, r11, #4
    22f0:	e8bd8800 	pop	{r11, pc}

000022f4 <color_from_gradient_f>:

int color_from_gradient_f(int seed, int freq) {
    22f4:	e92d4800 	push	{r11, lr}
    22f8:	e28db004 	add	r11, sp, #4
    22fc:	e24dd018 	sub	sp, sp, #24
    2300:	e50b0018 	str	r0, [r11, #-24]	; 0xffffffe8
    2304:	e50b101c 	str	r1, [r11, #-28]	; 0xffffffe4
    static const int colorScale = 55, colorOffset = 200;
    int r = VIS_FastSin_r(freq * seed / 10. + 0) * colorScale + colorOffset;
    2308:	e51b301c 	ldr	r3, [r11, #-28]	; 0xffffffe4
    230c:	e51b2018 	ldr	r2, [r11, #-24]	; 0xffffffe8
    2310:	e0030392 	mul	r3, r2, r3
    2314:	ee053a90 	vmov	s11, r3
    2318:	eeb86be5 	vcvt.f64.s32	d6, s11
    231c:	ed9f7b53 	vldr	d7, [pc, #332]	; 2470 <color_from_gradient_f+0x17c>
    2320:	ee867b07 	vdiv.f64	d7, d6, d7
    2324:	ed9f6b53 	vldr	d6, [pc, #332]	; 2478 <color_from_gradient_f+0x184>
    2328:	ee377b06 	vadd.f64	d7, d7, d6
    232c:	ec510b17 	vmov	r0, r1, d7
    2330:	eb0001fe 	bl	2b30 <VIS_FastSin_r>
    2334:	ec410b16 	vmov	d6, r0, r1
    2338:	e3053d60 	movw	r3, #23904	; 0x5d60
    233c:	e3403000 	movt	r3, #0
    2340:	e5933000 	ldr	r3, [r3]
    2344:	ee053a90 	vmov	s11, r3
    2348:	eeb87be5 	vcvt.f64.s32	d7, s11
    234c:	ee266b07 	vmul.f64	d6, d6, d7
    2350:	e3053d64 	movw	r3, #23908	; 0x5d64
    2354:	e3403000 	movt	r3, #0
    2358:	e5933000 	ldr	r3, [r3]
    235c:	ee053a90 	vmov	s11, r3
    2360:	eeb87be5 	vcvt.f64.s32	d7, s11
    2364:	ee367b07 	vadd.f64	d7, d6, d7
    2368:	eefd6bc7 	vcvt.s32.f64	s13, d7
    236c:	ee163a90 	vmov	r3, s13
    2370:	e50b3008 	str	r3, [r11, #-8]
    int g = VIS_FastSin_r(freq * seed / 10. + 1) * colorScale + colorOffset;
    2374:	e51b301c 	ldr	r3, [r11, #-28]	; 0xffffffe4
    2378:	e51b2018 	ldr	r2, [r11, #-24]	; 0xffffffe8
    237c:	e0030392 	mul	r3, r2, r3
    2380:	ee073a90 	vmov	s15, r3
    2384:	eeb86be7 	vcvt.f64.s32	d6, s15
    2388:	ed9f7b38 	vldr	d7, [pc, #224]	; 2470 <color_from_gradient_f+0x17c>
    238c:	ee867b07 	vdiv.f64	d7, d6, d7
    2390:	ed9f6b3a 	vldr	d6, [pc, #232]	; 2480 <color_from_gradient_f+0x18c>
    2394:	ee377b06 	vadd.f64	d7, d7, d6
    2398:	ec510b17 	vmov	r0, r1, d7
    239c:	eb0001e3 	bl	2b30 <VIS_FastSin_r>
    23a0:	ec410b16 	vmov	d6, r0, r1
    23a4:	e3053d60 	movw	r3, #23904	; 0x5d60
    23a8:	e3403000 	movt	r3, #0
    23ac:	e5933000 	ldr	r3, [r3]
    23b0:	ee053a90 	vmov	s11, r3
    23b4:	eeb87be5 	vcvt.f64.s32	d7, s11
    23b8:	ee266b07 	vmul.f64	d6, d6, d7
    23bc:	e3053d64 	movw	r3, #23908	; 0x5d64
    23c0:	e3403000 	movt	r3, #0
    23c4:	e5933000 	ldr	r3, [r3]
    23c8:	ee053a90 	vmov	s11, r3
    23cc:	eeb87be5 	vcvt.f64.s32	d7, s11
    23d0:	ee367b07 	vadd.f64	d7, d6, d7
    23d4:	eefd6bc7 	vcvt.s32.f64	s13, d7
    23d8:	ee163a90 	vmov	r3, s13
    23dc:	e50b300c 	str	r3, [r11, #-12]
    int b = VIS_FastSin_r(freq * seed / 10. + 2) * colorScale + colorOffset;
    23e0:	e51b301c 	ldr	r3, [r11, #-28]	; 0xffffffe4
    23e4:	e51b2018 	ldr	r2, [r11, #-24]	; 0xffffffe8
    23e8:	e0030392 	mul	r3, r2, r3
    23ec:	ee073a90 	vmov	s15, r3
    23f0:	eeb86be7 	vcvt.f64.s32	d6, s15
    23f4:	ed9f7b1d 	vldr	d7, [pc, #116]	; 2470 <color_from_gradient_f+0x17c>
    23f8:	ee867b07 	vdiv.f64	d7, d6, d7
    23fc:	ed9f6b21 	vldr	d6, [pc, #132]	; 2488 <color_from_gradient_f+0x194>
    2400:	ee377b06 	vadd.f64	d7, d7, d6
    2404:	ec510b17 	vmov	r0, r1, d7
    2408:	eb0001c8 	bl	2b30 <VIS_FastSin_r>
    240c:	ec410b16 	vmov	d6, r0, r1
    2410:	e3053d60 	movw	r3, #23904	; 0x5d60
    2414:	e3403000 	movt	r3, #0
    2418:	e5933000 	ldr	r3, [r3]
    241c:	ee053a90 	vmov	s11, r3
    2420:	eeb87be5 	vcvt.f64.s32	d7, s11
    2424:	ee266b07 	vmul.f64	d6, d6, d7
    2428:	e3053d64 	movw	r3, #23908	; 0x5d64
    242c:	e3403000 	movt	r3, #0
    2430:	e5933000 	ldr	r3, [r3]
    2434:	ee053a90 	vmov	s11, r3
    2438:	eeb87be5 	vcvt.f64.s32	d7, s11
    243c:	ee367b07 	vadd.f64	d7, d6, d7
    2440:	eefd6bc7 	vcvt.s32.f64	s13, d7
    2444:	ee163a90 	vmov	r3, s13
    2448:	e50b3010 	str	r3, [r11, #-16]
    return color_from_RGB888(r, g, b);
    244c:	e51b0008 	ldr	r0, [r11, #-8]
    2450:	e51b100c 	ldr	r1, [r11, #-12]
    2454:	e51b2010 	ldr	r2, [r11, #-16]
    2458:	ebffff30 	bl	2120 <color_from_RGB888>
    245c:	e1a03000 	mov	r3, r0
}
    2460:	e1a00003 	mov	r0, r3
    2464:	e24bd004 	sub	sp, r11, #4
    2468:	e8bd8800 	pop	{r11, pc}
    246c:	e320f000 	nop	{0}
    2470:	00000000 	.word	0x00000000
    2474:	40240000 	.word	0x40240000
	...
    2484:	3ff00000 	.word	0x3ff00000
    2488:	00000000 	.word	0x00000000
    248c:	40000000 	.word	0x40000000

00002490 <color_from_gradient_hsv>:

int color_from_gradient_hsv(int cid) {
    2490:	e92d4800 	push	{r11, lr}
    2494:	e28db004 	add	r11, sp, #4
    2498:	e24dd008 	sub	sp, sp, #8
    249c:	e50b0008 	str	r0, [r11, #-8]
    cid = cid % COLOR_RANGE;
    24a0:	e51b2008 	ldr	r2, [r11, #-8]
    24a4:	e3083889 	movw	r3, #34953	; 0x8889
    24a8:	e3483888 	movt	r3, #34952	; 0x8888
    24ac:	e0c31293 	smull	r1, r3, r3, r2
    24b0:	e0833002 	add	r3, r3, r2
    24b4:	e1a013c3 	asr	r1, r3, #7
    24b8:	e1a03fc2 	asr	r3, r2, #31
    24bc:	e0631001 	rsb	r1, r3, r1
    24c0:	e1a03001 	mov	r3, r1
    24c4:	e1a03203 	lsl	r3, r3, #4
    24c8:	e0613003 	rsb	r3, r1, r3
    24cc:	e1a03203 	lsl	r3, r3, #4
    24d0:	e0633002 	rsb	r3, r3, r2
    24d4:	e50b3008 	str	r3, [r11, #-8]
    static int r = 0, g = 0, b = 0;
    if (cid <= COLOR_RANGE * 3 / 10) {
    24d8:	e51b3008 	ldr	r3, [r11, #-8]
    24dc:	e3530048 	cmp	r3, #72	; 0x48
    24e0:	ca000017 	bgt	2544 <color_from_gradient_hsv+0xb4>
        r = 0xFF;
    24e4:	e3023470 	movw	r3, #9328	; 0x2470
    24e8:	e3403001 	movt	r3, #1
    24ec:	e3a020ff 	mov	r2, #255	; 0xff
    24f0:	e5832000 	str	r2, [r3]
        g = cid * 85 / 24;
    24f4:	e51b2008 	ldr	r2, [r11, #-8]
    24f8:	e1a03002 	mov	r3, r2
    24fc:	e1a03103 	lsl	r3, r3, #2
    2500:	e0833002 	add	r3, r3, r2
    2504:	e1a02203 	lsl	r2, r3, #4
    2508:	e0832002 	add	r2, r3, r2
    250c:	e30a3aab 	movw	r3, #43691	; 0xaaab
    2510:	e3423aaa 	movt	r3, #10922	; 0x2aaa
    2514:	e0c31293 	smull	r1, r3, r3, r2
    2518:	e1a01143 	asr	r1, r3, #2
    251c:	e1a03fc2 	asr	r3, r2, #31
    2520:	e0632001 	rsb	r2, r3, r1
    2524:	e3023474 	movw	r3, #9332	; 0x2474
    2528:	e3403001 	movt	r3, #1
    252c:	e5832000 	str	r2, [r3]
        b = 0x0;
    2530:	e3023478 	movw	r3, #9336	; 0x2478
    2534:	e3403001 	movt	r3, #1
    2538:	e3a02000 	mov	r2, #0
    253c:	e5832000 	str	r2, [r3]
    2540:	ea00004c 	b	2678 <color_from_gradient_hsv+0x1e8>
    } else if (cid < COLOR_RANGE * 5 / 10) {
    2544:	e51b3008 	ldr	r3, [r11, #-8]
    2548:	e3530077 	cmp	r3, #119	; 0x77
    254c:	ca000016 	bgt	25ac <color_from_gradient_hsv+0x11c>
        r = (COLOR_RANGE * 3 / 10 - cid) * 85 / 24;
    2550:	e51b3008 	ldr	r3, [r11, #-8]
    2554:	e3e02054 	mvn	r2, #84	; 0x54
    2558:	e0030392 	mul	r3, r2, r3
    255c:	e2833d5f 	add	r3, r3, #6080	; 0x17c0
    2560:	e2833028 	add	r3, r3, #40	; 0x28
    2564:	e30a2aab 	movw	r2, #43691	; 0xaaab
    2568:	e3422aaa 	movt	r2, #10922	; 0x2aaa
    256c:	e0c21392 	smull	r1, r2, r2, r3
    2570:	e1a02142 	asr	r2, r2, #2
    2574:	e1a03fc3 	asr	r3, r3, #31
    2578:	e0632002 	rsb	r2, r3, r2
    257c:	e3023470 	movw	r3, #9328	; 0x2470
    2580:	e3403001 	movt	r3, #1
    2584:	e5832000 	str	r2, [r3]
        g = 0xFF;
    2588:	e3023474 	movw	r3, #9332	; 0x2474
    258c:	e3403001 	movt	r3, #1
    2590:	e3a020ff 	mov	r2, #255	; 0xff
    2594:	e5832000 	str	r2, [r3]
        b = 0x0;
    2598:	e3023478 	movw	r3, #9336	; 0x2478
    259c:	e3403001 	movt	r3, #1
    25a0:	e3a02000 	mov	r2, #0
    25a4:	e5832000 	str	r2, [r3]
    25a8:	ea000032 	b	2678 <color_from_gradient_hsv+0x1e8>
    } else if (cid < COLOR_RANGE * 7 / 10) {
    25ac:	e51b3008 	ldr	r3, [r11, #-8]
    25b0:	e35300a7 	cmp	r3, #167	; 0xa7
    25b4:	ca000019 	bgt	2620 <color_from_gradient_hsv+0x190>
        r = 0x0;
    25b8:	e3023470 	movw	r3, #9328	; 0x2470
    25bc:	e3403001 	movt	r3, #1
    25c0:	e3a02000 	mov	r2, #0
    25c4:	e5832000 	str	r2, [r3]
        g = 0xFF;
    25c8:	e3023474 	movw	r3, #9332	; 0x2474
    25cc:	e3403001 	movt	r3, #1
    25d0:	e3a020ff 	mov	r2, #255	; 0xff
    25d4:	e5832000 	str	r2, [r3]
        b = (cid - COLOR_RANGE * 5 / 10) * 85 / 24;;
    25d8:	e51b2008 	ldr	r2, [r11, #-8]
    25dc:	e1a03002 	mov	r3, r2
    25e0:	e1a03103 	lsl	r3, r3, #2
    25e4:	e0833002 	add	r3, r3, r2
    25e8:	e1a02203 	lsl	r2, r3, #4
    25ec:	e0833002 	add	r3, r3, r2
    25f0:	e2433d9f 	sub	r3, r3, #10176	; 0x27c0
    25f4:	e2433018 	sub	r3, r3, #24
    25f8:	e30a2aab 	movw	r2, #43691	; 0xaaab
    25fc:	e3422aaa 	movt	r2, #10922	; 0x2aaa
    2600:	e0c21392 	smull	r1, r2, r2, r3
    2604:	e1a02142 	asr	r2, r2, #2
    2608:	e1a03fc3 	asr	r3, r3, #31
    260c:	e0632002 	rsb	r2, r3, r2
    2610:	e3023478 	movw	r3, #9336	; 0x2478
    2614:	e3403001 	movt	r3, #1
    2618:	e5832000 	str	r2, [r3]
    261c:	ea000015 	b	2678 <color_from_gradient_hsv+0x1e8>
    } else {
        r = 0x0;
    2620:	e3023470 	movw	r3, #9328	; 0x2470
    2624:	e3403001 	movt	r3, #1
    2628:	e3a02000 	mov	r2, #0
    262c:	e5832000 	str	r2, [r3]
        g = (COLOR_RANGE - cid) * 85 / 24;
    2630:	e51b3008 	ldr	r3, [r11, #-8]
    2634:	e3e02054 	mvn	r2, #84	; 0x54
    2638:	e0030392 	mul	r3, r2, r3
    263c:	e2833c4f 	add	r3, r3, #20224	; 0x4f00
    2640:	e28330b0 	add	r3, r3, #176	; 0xb0
    2644:	e30a2aab 	movw	r2, #43691	; 0xaaab
    2648:	e3422aaa 	movt	r2, #10922	; 0x2aaa
    264c:	e0c21392 	smull	r1, r2, r2, r3
    2650:	e1a02142 	asr	r2, r2, #2
    2654:	e1a03fc3 	asr	r3, r3, #31
    2658:	e0632002 	rsb	r2, r3, r2
    265c:	e3023474 	movw	r3, #9332	; 0x2474
    2660:	e3403001 	movt	r3, #1
    2664:	e5832000 	str	r2, [r3]
        b = 0xFF;
    2668:	e3023478 	movw	r3, #9336	; 0x2478
    266c:	e3403001 	movt	r3, #1
    2670:	e3a020ff 	mov	r2, #255	; 0xff
    2674:	e5832000 	str	r2, [r3]
    }
    return color_from_RGB888(r, g, b);
    2678:	e3023470 	movw	r3, #9328	; 0x2470
    267c:	e3403001 	movt	r3, #1
    2680:	e5931000 	ldr	r1, [r3]
    2684:	e3023474 	movw	r3, #9332	; 0x2474
    2688:	e3403001 	movt	r3, #1
    268c:	e5932000 	ldr	r2, [r3]
    2690:	e3023478 	movw	r3, #9336	; 0x2478
    2694:	e3403001 	movt	r3, #1
    2698:	e5933000 	ldr	r3, [r3]
    269c:	e1a00001 	mov	r0, r1
    26a0:	e1a01002 	mov	r1, r2
    26a4:	e1a02003 	mov	r2, r3
    26a8:	ebfffe9c 	bl	2120 <color_from_RGB888>
    26ac:	e1a03000 	mov	r3, r0
}
    26b0:	e1a00003 	mov	r0, r3
    26b4:	e24bd004 	sub	sp, r11, #4
    26b8:	e8bd8800 	pop	{r11, pc}

000026bc <wait_for_vsync>:

void wait_for_vsync() {
    26bc:	e52db004 	push	{r11}		; (str r11, [sp, #-4]!)
    26c0:	e28db000 	add	r11, sp, #0
    *pixel_ctrl_ptr = 0x1;
    26c4:	e30833b0 	movw	r3, #33712	; 0x83b0
    26c8:	e3403000 	movt	r3, #0
    26cc:	e5933000 	ldr	r3, [r3]
    26d0:	e3a02001 	mov	r2, #1
    26d4:	e5832000 	str	r2, [r3]
    while((*(pixel_ctrl_ptr + 3)) & 0x1); // wait for the previous swap
    26d8:	e1a00000 	nop			; (mov r0, r0)
    26dc:	e30833b0 	movw	r3, #33712	; 0x83b0
    26e0:	e3403000 	movt	r3, #0
    26e4:	e5933000 	ldr	r3, [r3]
    26e8:	e283300c 	add	r3, r3, #12
    26ec:	e5933000 	ldr	r3, [r3]
    26f0:	e2033001 	and	r3, r3, #1
    26f4:	e3530000 	cmp	r3, #0
    26f8:	1afffff7 	bne	26dc <wait_for_vsync+0x20>
}
    26fc:	e28bd000 	add	sp, r11, #0
    2700:	e8bd0800 	ldmfd	sp!, {r11}
    2704:	e12fff1e 	bx	lr

00002708 <swap>:

void swap(int *a, int *b)
{
    2708:	e52db004 	push	{r11}		; (str r11, [sp, #-4]!)
    270c:	e28db000 	add	r11, sp, #0
    2710:	e24dd014 	sub	sp, sp, #20
    2714:	e50b0010 	str	r0, [r11, #-16]
    2718:	e50b1014 	str	r1, [r11, #-20]	; 0xffffffec
    int t = *a;
    271c:	e51b3010 	ldr	r3, [r11, #-16]
    2720:	e5933000 	ldr	r3, [r3]
    2724:	e50b3008 	str	r3, [r11, #-8]
    *a = *b;
    2728:	e51b3014 	ldr	r3, [r11, #-20]	; 0xffffffec
    272c:	e5932000 	ldr	r2, [r3]
    2730:	e51b3010 	ldr	r3, [r11, #-16]
    2734:	e5832000 	str	r2, [r3]
    *b = t;
    2738:	e51b3014 	ldr	r3, [r11, #-20]	; 0xffffffec
    273c:	e51b2008 	ldr	r2, [r11, #-8]
    2740:	e5832000 	str	r2, [r3]
}
    2744:	e28bd000 	add	sp, r11, #0
    2748:	e8bd0800 	ldmfd	sp!, {r11}
    274c:	e12fff1e 	bx	lr

00002750 <draw_lineStruct>:

void draw_lineStruct(Line line) {
    2750:	e24dd010 	sub	sp, sp, #16
    2754:	e92d4800 	push	{r11, lr}
    2758:	e28db004 	add	r11, sp, #4
    275c:	e24dd008 	sub	sp, sp, #8
    2760:	e28bc004 	add	r12, r11, #4
    2764:	e88c000f 	stm	r12, {r0, r1, r2, r3}
    draw_line(line.iX, line.iY, line.oX, line.oY, line.color);
    2768:	e59b3004 	ldr	r3, [r11, #4]
    276c:	e1a00003 	mov	r0, r3
    2770:	e59b3008 	ldr	r3, [r11, #8]
    2774:	e1a01003 	mov	r1, r3
    2778:	e59b300c 	ldr	r3, [r11, #12]
    277c:	e1a02003 	mov	r2, r3
    2780:	e59b3010 	ldr	r3, [r11, #16]
    2784:	e59bc014 	ldr	r12, [r11, #20]
    2788:	e58dc000 	str	r12, [sp]
    278c:	eb000003 	bl	27a0 <draw_line>
}
    2790:	e24bd004 	sub	sp, r11, #4
    2794:	e8bd4800 	pop	{r11, lr}
    2798:	e28dd010 	add	sp, sp, #16
    279c:	e12fff1e 	bx	lr

000027a0 <draw_line>:

void draw_line(int p1_x, int p1_y, int p2_x, int p2_y, int color)
{
    27a0:	e92d4800 	push	{r11, lr}
    27a4:	e28db004 	add	r11, sp, #4
    27a8:	e24dd030 	sub	sp, sp, #48	; 0x30
    27ac:	e50b0028 	str	r0, [r11, #-40]	; 0xffffffd8
    27b0:	e50b102c 	str	r1, [r11, #-44]	; 0xffffffd4
    27b4:	e50b2030 	str	r2, [r11, #-48]	; 0xffffffd0
    27b8:	e50b3034 	str	r3, [r11, #-52]	; 0xffffffcc
    // check if it is a point or a line
    if (p2_y == p1_y && p1_x == p1_y) {
    27bc:	e51b2034 	ldr	r2, [r11, #-52]	; 0xffffffcc
    27c0:	e51b302c 	ldr	r3, [r11, #-44]	; 0xffffffd4
    27c4:	e1520003 	cmp	r2, r3
    27c8:	1a00000b 	bne	27fc <draw_line+0x5c>
    27cc:	e51b2028 	ldr	r2, [r11, #-40]	; 0xffffffd8
    27d0:	e51b302c 	ldr	r3, [r11, #-44]	; 0xffffffd4
    27d4:	e1520003 	cmp	r2, r3
    27d8:	1a000007 	bne	27fc <draw_line+0x5c>
        plot_pixel(p1_x, p2_y, color);
    27dc:	e51b1028 	ldr	r1, [r11, #-40]	; 0xffffffd8
    27e0:	e51b2034 	ldr	r2, [r11, #-52]	; 0xffffffcc
    27e4:	e59b3004 	ldr	r3, [r11, #4]
    27e8:	e6ff3073 	uxth	r3, r3
    27ec:	e1a00001 	mov	r0, r1
    27f0:	e1a01002 	mov	r1, r2
    27f4:	e1a02003 	mov	r2, r3
    27f8:	eb0000a7 	bl	2a9c <plot_pixel>
    }

    bool is_steep = abs(p1_y - p2_y) > abs(p1_x - p2_x);
    27fc:	e51b202c 	ldr	r2, [r11, #-44]	; 0xffffffd4
    2800:	e51b3034 	ldr	r3, [r11, #-52]	; 0xffffffcc
    2804:	e0633002 	rsb	r3, r3, r2
    2808:	e0232fc3 	eor	r2, r3, r3, asr #31
    280c:	e0422fc3 	sub	r2, r2, r3, asr #31
    2810:	e51b1028 	ldr	r1, [r11, #-40]	; 0xffffffd8
    2814:	e51b3030 	ldr	r3, [r11, #-48]	; 0xffffffd0
    2818:	e0633001 	rsb	r3, r3, r1
    281c:	e3530000 	cmp	r3, #0
    2820:	b2633000 	rsblt	r3, r3, #0
    2824:	e1520003 	cmp	r2, r3
    2828:	d3a03000 	movle	r3, #0
    282c:	c3a03001 	movgt	r3, #1
    2830:	e54b3011 	strb	r3, [r11, #-17]	; 0xffffffef
    if (is_steep)
    2834:	e55b3011 	ldrb	r3, [r11, #-17]	; 0xffffffef
    2838:	e3530000 	cmp	r3, #0
    283c:	0a000009 	beq	2868 <draw_line+0xc8>
    {
        swap(&p1_x, &p1_y);
    2840:	e24b2028 	sub	r2, r11, #40	; 0x28
    2844:	e24b302c 	sub	r3, r11, #44	; 0x2c
    2848:	e1a00002 	mov	r0, r2
    284c:	e1a01003 	mov	r1, r3
    2850:	ebffffac 	bl	2708 <swap>
        swap(&p2_x, &p2_y);
    2854:	e24b2030 	sub	r2, r11, #48	; 0x30
    2858:	e24b3034 	sub	r3, r11, #52	; 0x34
    285c:	e1a00002 	mov	r0, r2
    2860:	e1a01003 	mov	r1, r3
    2864:	ebffffa7 	bl	2708 <swap>
    }
    if (p1_x > p2_x)
    2868:	e51b2028 	ldr	r2, [r11, #-40]	; 0xffffffd8
    286c:	e51b3030 	ldr	r3, [r11, #-48]	; 0xffffffd0
    2870:	e1520003 	cmp	r2, r3
    2874:	da000009 	ble	28a0 <draw_line+0x100>
    {
        swap(&p1_x, &p2_x);
    2878:	e24b2028 	sub	r2, r11, #40	; 0x28
    287c:	e24b3030 	sub	r3, r11, #48	; 0x30
    2880:	e1a00002 	mov	r0, r2
    2884:	e1a01003 	mov	r1, r3
    2888:	ebffff9e 	bl	2708 <swap>
        swap(&p1_y, &p2_y);
    288c:	e24b202c 	sub	r2, r11, #44	; 0x2c
    2890:	e24b3034 	sub	r3, r11, #52	; 0x34
    2894:	e1a00002 	mov	r0, r2
    2898:	e1a01003 	mov	r1, r3
    289c:	ebffff99 	bl	2708 <swap>
    }

    int deltaX = p2_x - p1_x,
    28a0:	e51b2030 	ldr	r2, [r11, #-48]	; 0xffffffd0
    28a4:	e51b3028 	ldr	r3, [r11, #-40]	; 0xffffffd8
    28a8:	e0633002 	rsb	r3, r3, r2
    28ac:	e50b3018 	str	r3, [r11, #-24]	; 0xffffffe8
        deltaY = abs(p2_y - p1_y),
    28b0:	e51b2034 	ldr	r2, [r11, #-52]	; 0xffffffcc
    28b4:	e51b302c 	ldr	r3, [r11, #-44]	; 0xffffffd4
    28b8:	e0633002 	rsb	r3, r3, r2
    28bc:	e3530000 	cmp	r3, #0
    28c0:	b2633000 	rsblt	r3, r3, #0
    28c4:	e50b301c 	str	r3, [r11, #-28]	; 0xffffffe4
        error = -(deltaX / 2),
    28c8:	e51b3018 	ldr	r3, [r11, #-24]	; 0xffffffe8
    28cc:	e1a02fa3 	lsr	r2, r3, #31
    28d0:	e0823003 	add	r3, r2, r3
    28d4:	e1a030c3 	asr	r3, r3, #1
    28d8:	e2633000 	rsb	r3, r3, #0
    28dc:	e50b3008 	str	r3, [r11, #-8]
        yStep = deltaY ? deltaY / (p2_y - p1_y) : 0;
    28e0:	e51b301c 	ldr	r3, [r11, #-28]	; 0xffffffe4
    28e4:	e3530000 	cmp	r3, #0
    28e8:	0a000007 	beq	290c <draw_line+0x16c>
    28ec:	e51b2034 	ldr	r2, [r11, #-52]	; 0xffffffcc
    28f0:	e51b302c 	ldr	r3, [r11, #-44]	; 0xffffffd4
    28f4:	e0633002 	rsb	r3, r3, r2
    28f8:	e51b001c 	ldr	r0, [r11, #-28]	; 0xffffffe4
    28fc:	e1a01003 	mov	r1, r3
    2900:	eb00095c 	bl	4e78 <__aeabi_idiv>
    2904:	e1a03000 	mov	r3, r0
    2908:	ea000000 	b	2910 <draw_line+0x170>
    290c:	e3a03000 	mov	r3, #0
    2910:	e50b3020 	str	r3, [r11, #-32]	; 0xffffffe0
    
    for (int x = p1_x, y = p1_y; x <= p2_x; x++) {
    2914:	e51b3028 	ldr	r3, [r11, #-40]	; 0xffffffd8
    2918:	e50b300c 	str	r3, [r11, #-12]
    291c:	e51b302c 	ldr	r3, [r11, #-44]	; 0xffffffd4
    2920:	e50b3010 	str	r3, [r11, #-16]
    2924:	ea000021 	b	29b0 <draw_line+0x210>
        if (is_steep) {
    2928:	e55b3011 	ldrb	r3, [r11, #-17]	; 0xffffffef
    292c:	e3530000 	cmp	r3, #0
    2930:	0a000006 	beq	2950 <draw_line+0x1b0>
            plot_pixel(y, x, color);
    2934:	e59b3004 	ldr	r3, [r11, #4]
    2938:	e6ff3073 	uxth	r3, r3
    293c:	e51b0010 	ldr	r0, [r11, #-16]
    2940:	e51b100c 	ldr	r1, [r11, #-12]
    2944:	e1a02003 	mov	r2, r3
    2948:	eb000053 	bl	2a9c <plot_pixel>
    294c:	ea000005 	b	2968 <draw_line+0x1c8>
        } else {
            plot_pixel(x, y, color);
    2950:	e59b3004 	ldr	r3, [r11, #4]
    2954:	e6ff3073 	uxth	r3, r3
    2958:	e51b000c 	ldr	r0, [r11, #-12]
    295c:	e51b1010 	ldr	r1, [r11, #-16]
    2960:	e1a02003 	mov	r2, r3
    2964:	eb00004c 	bl	2a9c <plot_pixel>
        }

        error += deltaY;
    2968:	e51b2008 	ldr	r2, [r11, #-8]
    296c:	e51b301c 	ldr	r3, [r11, #-28]	; 0xffffffe4
    2970:	e0823003 	add	r3, r2, r3
    2974:	e50b3008 	str	r3, [r11, #-8]
        if (error >= 0) {
    2978:	e51b3008 	ldr	r3, [r11, #-8]
    297c:	e3530000 	cmp	r3, #0
    2980:	ba000007 	blt	29a4 <draw_line+0x204>
            y += yStep;
    2984:	e51b2010 	ldr	r2, [r11, #-16]
    2988:	e51b3020 	ldr	r3, [r11, #-32]	; 0xffffffe0
    298c:	e0823003 	add	r3, r2, r3
    2990:	e50b3010 	str	r3, [r11, #-16]
            error -= deltaX;
    2994:	e51b2008 	ldr	r2, [r11, #-8]
    2998:	e51b3018 	ldr	r3, [r11, #-24]	; 0xffffffe8
    299c:	e0633002 	rsb	r3, r3, r2
    29a0:	e50b3008 	str	r3, [r11, #-8]
    int deltaX = p2_x - p1_x,
        deltaY = abs(p2_y - p1_y),
        error = -(deltaX / 2),
        yStep = deltaY ? deltaY / (p2_y - p1_y) : 0;
    
    for (int x = p1_x, y = p1_y; x <= p2_x; x++) {
    29a4:	e51b300c 	ldr	r3, [r11, #-12]
    29a8:	e2833001 	add	r3, r3, #1
    29ac:	e50b300c 	str	r3, [r11, #-12]
    29b0:	e51b3030 	ldr	r3, [r11, #-48]	; 0xffffffd0
    29b4:	e51b200c 	ldr	r2, [r11, #-12]
    29b8:	e1520003 	cmp	r2, r3
    29bc:	daffffd9 	ble	2928 <draw_line+0x188>
        if (error >= 0) {
            y += yStep;
            error -= deltaX;
        }
    }
}
    29c0:	e24bd004 	sub	sp, r11, #4
    29c4:	e8bd8800 	pop	{r11, pc}

000029c8 <draw_box>:
void draw_box(int px, int py, int w, int h, int color) {
    29c8:	e92d4800 	push	{r11, lr}
    29cc:	e28db004 	add	r11, sp, #4
    29d0:	e24dd020 	sub	sp, sp, #32
    29d4:	e50b0010 	str	r0, [r11, #-16]
    29d8:	e50b1014 	str	r1, [r11, #-20]	; 0xffffffec
    29dc:	e50b2018 	str	r2, [r11, #-24]	; 0xffffffe8
    29e0:	e50b301c 	str	r3, [r11, #-28]	; 0xffffffe4
    for (int x = px; x < px + w; x++) {
    29e4:	e51b3010 	ldr	r3, [r11, #-16]
    29e8:	e50b3008 	str	r3, [r11, #-8]
    29ec:	ea00000c 	b	2a24 <draw_box+0x5c>
        draw_line(x, py, x, py + h - 1, color);
    29f0:	e51b2014 	ldr	r2, [r11, #-20]	; 0xffffffec
    29f4:	e51b301c 	ldr	r3, [r11, #-28]	; 0xffffffe4
    29f8:	e0823003 	add	r3, r2, r3
    29fc:	e2433001 	sub	r3, r3, #1
    2a00:	e59b2004 	ldr	r2, [r11, #4]
    2a04:	e58d2000 	str	r2, [sp]
    2a08:	e51b0008 	ldr	r0, [r11, #-8]
    2a0c:	e51b1014 	ldr	r1, [r11, #-20]	; 0xffffffec
    2a10:	e51b2008 	ldr	r2, [r11, #-8]
    2a14:	ebffff61 	bl	27a0 <draw_line>
            error -= deltaX;
        }
    }
}
void draw_box(int px, int py, int w, int h, int color) {
    for (int x = px; x < px + w; x++) {
    2a18:	e51b3008 	ldr	r3, [r11, #-8]
    2a1c:	e2833001 	add	r3, r3, #1
    2a20:	e50b3008 	str	r3, [r11, #-8]
    2a24:	e51b2010 	ldr	r2, [r11, #-16]
    2a28:	e51b3018 	ldr	r3, [r11, #-24]	; 0xffffffe8
    2a2c:	e0822003 	add	r2, r2, r3
    2a30:	e51b3008 	ldr	r3, [r11, #-8]
    2a34:	e1520003 	cmp	r2, r3
    2a38:	caffffec 	bgt	29f0 <draw_box+0x28>
        draw_line(x, py, x, py + h - 1, color);
    }
}
    2a3c:	e24bd004 	sub	sp, r11, #4
    2a40:	e8bd8800 	pop	{r11, pc}

00002a44 <clear_screen>:

void clear_screen() {
    2a44:	e92d4800 	push	{r11, lr}
    2a48:	e28db004 	add	r11, sp, #4
    2a4c:	e24dd010 	sub	sp, sp, #16
    for (int x = 0; x <= 319; x++) {
    2a50:	e3a03000 	mov	r3, #0
    2a54:	e50b3008 	str	r3, [r11, #-8]
    2a58:	ea000009 	b	2a84 <clear_screen+0x40>
        draw_line(x, 0, x, 239, 0);
    2a5c:	e3a03000 	mov	r3, #0
    2a60:	e58d3000 	str	r3, [sp]
    2a64:	e51b0008 	ldr	r0, [r11, #-8]
    2a68:	e3a01000 	mov	r1, #0
    2a6c:	e51b2008 	ldr	r2, [r11, #-8]
    2a70:	e3a030ef 	mov	r3, #239	; 0xef
    2a74:	ebffff49 	bl	27a0 <draw_line>
        draw_line(x, py, x, py + h - 1, color);
    }
}

void clear_screen() {
    for (int x = 0; x <= 319; x++) {
    2a78:	e51b3008 	ldr	r3, [r11, #-8]
    2a7c:	e2833001 	add	r3, r3, #1
    2a80:	e50b3008 	str	r3, [r11, #-8]
    2a84:	e51b2008 	ldr	r2, [r11, #-8]
    2a88:	e300313f 	movw	r3, #319	; 0x13f
    2a8c:	e1520003 	cmp	r2, r3
    2a90:	dafffff1 	ble	2a5c <clear_screen+0x18>
        draw_line(x, 0, x, 239, 0);
    }
}
    2a94:	e24bd004 	sub	sp, r11, #4
    2a98:	e8bd8800 	pop	{r11, pc}

00002a9c <plot_pixel>:

void plot_pixel(int x, int y, unsigned short int line_color)
{
    2a9c:	e52db004 	push	{r11}		; (str r11, [sp, #-4]!)
    2aa0:	e28db000 	add	r11, sp, #0
    2aa4:	e24dd014 	sub	sp, sp, #20
    2aa8:	e50b0008 	str	r0, [r11, #-8]
    2aac:	e50b100c 	str	r1, [r11, #-12]
    2ab0:	e1a03002 	mov	r3, r2
    2ab4:	e14b30be 	strh	r3, [r11, #-14]
    if (x < 0 || x >= SCREEN_W || y < 0 || y >= SCREEN_H) return; 
    2ab8:	e51b3008 	ldr	r3, [r11, #-8]
    2abc:	e3530000 	cmp	r3, #0
    2ac0:	ba000016 	blt	2b20 <plot_pixel+0x84>
    2ac4:	e51b2008 	ldr	r2, [r11, #-8]
    2ac8:	e300313f 	movw	r3, #319	; 0x13f
    2acc:	e1520003 	cmp	r2, r3
    2ad0:	ca000012 	bgt	2b20 <plot_pixel+0x84>
    2ad4:	e51b300c 	ldr	r3, [r11, #-12]
    2ad8:	e3530000 	cmp	r3, #0
    2adc:	ba00000f 	blt	2b20 <plot_pixel+0x84>
    2ae0:	e51b300c 	ldr	r3, [r11, #-12]
    2ae4:	e35300ef 	cmp	r3, #239	; 0xef
    2ae8:	ca00000c 	bgt	2b20 <plot_pixel+0x84>
    if (line_color > 0xFFFF) line_color = 0xFFFF;
    *(unsigned short int *)(pixel_buffer_start + (y << 10) + (x << 1)) = line_color;
    2aec:	e51b300c 	ldr	r3, [r11, #-12]
    2af0:	e1a03503 	lsl	r3, r3, #10
    2af4:	e1a02003 	mov	r2, r3
    2af8:	e308380c 	movw	r3, #34828	; 0x880c
    2afc:	e3403000 	movt	r3, #0
    2b00:	e5933000 	ldr	r3, [r3]
    2b04:	e0822003 	add	r2, r2, r3
    2b08:	e51b3008 	ldr	r3, [r11, #-8]
    2b0c:	e1a03083 	lsl	r3, r3, #1
    2b10:	e0823003 	add	r3, r2, r3
    2b14:	e15b20be 	ldrh	r2, [r11, #-14]
    2b18:	e1c320b0 	strh	r2, [r3]
    2b1c:	ea000000 	b	2b24 <plot_pixel+0x88>
    }
}

void plot_pixel(int x, int y, unsigned short int line_color)
{
    if (x < 0 || x >= SCREEN_W || y < 0 || y >= SCREEN_H) return; 
    2b20:	e1a00000 	nop			; (mov r0, r0)
    if (line_color > 0xFFFF) line_color = 0xFFFF;
    *(unsigned short int *)(pixel_buffer_start + (y << 10) + (x << 1)) = line_color;
}
    2b24:	e28bd000 	add	sp, r11, #0
    2b28:	e8bd0800 	ldmfd	sp!, {r11}
    2b2c:	e12fff1e 	bx	lr

00002b30 <VIS_FastSin_r>:
	[330] = 56755, 57319, 57864, 58393, 58903, 59395, 59870, 60326, 60763, 61183, 
	[340] = 61583, 61965, 62328, 62672, 62997, 63302, 63589, 63856, 64103, 64331, 
	[350] = 64540, 64729, 64898, 65047, 65176, 65286, 65376, 65446, 65496, 65526
};

double VIS_FastSin_r(double rad) {
    2b30:	e92d4800 	push	{r11, lr}
    2b34:	e28db004 	add	r11, sp, #4
    2b38:	e24dd008 	sub	sp, sp, #8
    2b3c:	e14b00fc 	strd	r0, [r11, #-12]
    return VIS_FastSin_d(rad * VIS_R2D);
    2b40:	ed1b6b03 	vldr	d6, [r11, #-12]
    2b44:	ed9f7b09 	vldr	d7, [pc, #36]	; 2b70 <VIS_FastSin_r+0x40>
    2b48:	ee267b07 	vmul.f64	d7, d6, d7
    2b4c:	ec510b17 	vmov	r0, r1, d7
    2b50:	eb000008 	bl	2b78 <VIS_FastSin_d>
    2b54:	e1a02000 	mov	r2, r0
    2b58:	e1a03001 	mov	r3, r1
}
    2b5c:	e1a00002 	mov	r0, r2
    2b60:	e1a01003 	mov	r1, r3
    2b64:	e24bd004 	sub	sp, r11, #4
    2b68:	e8bd8800 	pop	{r11, pc}
    2b6c:	e320f000 	nop	{0}
    2b70:	1a63c1f8 	.word	0x1a63c1f8
    2b74:	404ca5dc 	.word	0x404ca5dc

00002b78 <VIS_FastSin_d>:

double VIS_FastSin_d(double deg) {
    2b78:	e52db004 	push	{r11}		; (str r11, [sp, #-4]!)
    2b7c:	e28db000 	add	r11, sp, #0
    2b80:	e24dd014 	sub	sp, sp, #20
    2b84:	e14b01f4 	strd	r0, [r11, #-20]	; 0xffffffec
    int degree = ((int) deg) % 360;
    2b88:	ed1b7b05 	vldr	d7, [r11, #-20]	; 0xffffffec
    2b8c:	eefd6bc7 	vcvt.s32.f64	s13, d7
    2b90:	ee162a90 	vmov	r2, s13
    2b94:	e30630b7 	movw	r3, #24759	; 0x60b7
    2b98:	e34b360b 	movt	r3, #46603	; 0xb60b
    2b9c:	e0c31293 	smull	r1, r3, r3, r2
    2ba0:	e0833002 	add	r3, r3, r2
    2ba4:	e1a01443 	asr	r1, r3, #8
    2ba8:	e1a03fc2 	asr	r3, r2, #31
    2bac:	e0633001 	rsb	r3, r3, r1
    2bb0:	e3a01f5a 	mov	r1, #360	; 0x168
    2bb4:	e0030391 	mul	r3, r1, r3
    2bb8:	e0633002 	rsb	r3, r3, r2
    2bbc:	e50b3008 	str	r3, [r11, #-8]
    return SINs[degree];
    2bc0:	e30638a8 	movw	r3, #26792	; 0x68a8
    2bc4:	e3403000 	movt	r3, #0
    2bc8:	e51b2008 	ldr	r2, [r11, #-8]
    2bcc:	e1a02182 	lsl	r2, r2, #3
    2bd0:	e0833002 	add	r3, r3, r2
    2bd4:	e1c320d0 	ldrd	r2, [r3]
    // return sin(deg * VIS_D2R);
}
    2bd8:	e1a00002 	mov	r0, r2
    2bdc:	e1a01003 	mov	r1, r3
    2be0:	e28bd000 	add	sp, r11, #0
    2be4:	e8bd0800 	ldmfd	sp!, {r11}
    2be8:	e12fff1e 	bx	lr

00002bec <VIS_FastCos_r>:

double VIS_FastCos_r(double rad) {
    2bec:	e92d4800 	push	{r11, lr}
    2bf0:	e28db004 	add	r11, sp, #4
    2bf4:	e24dd008 	sub	sp, sp, #8
    2bf8:	e14b00fc 	strd	r0, [r11, #-12]
    return VIS_FastCos_d(rad * VIS_R2D);
    2bfc:	ed1b6b03 	vldr	d6, [r11, #-12]
    2c00:	ed9f7b08 	vldr	d7, [pc, #32]	; 2c28 <VIS_FastCos_r+0x3c>
    2c04:	ee267b07 	vmul.f64	d7, d6, d7
    2c08:	ec510b17 	vmov	r0, r1, d7
    2c0c:	eb000007 	bl	2c30 <VIS_FastCos_d>
    2c10:	e1a02000 	mov	r2, r0
    2c14:	e1a03001 	mov	r3, r1
}
    2c18:	e1a00002 	mov	r0, r2
    2c1c:	e1a01003 	mov	r1, r3
    2c20:	e24bd004 	sub	sp, r11, #4
    2c24:	e8bd8800 	pop	{r11, pc}
    2c28:	1a63c1f8 	.word	0x1a63c1f8
    2c2c:	404ca5dc 	.word	0x404ca5dc

00002c30 <VIS_FastCos_d>:

double VIS_FastCos_d(double deg) {
    2c30:	e52db004 	push	{r11}		; (str r11, [sp, #-4]!)
    2c34:	e28db000 	add	r11, sp, #0
    2c38:	e24dd014 	sub	sp, sp, #20
    2c3c:	e14b01f4 	strd	r0, [r11, #-20]	; 0xffffffec
    int degree = ((int) deg) % 360;
    2c40:	ed1b7b05 	vldr	d7, [r11, #-20]	; 0xffffffec
    2c44:	eefd6bc7 	vcvt.s32.f64	s13, d7
    2c48:	ee162a90 	vmov	r2, s13
    2c4c:	e30630b7 	movw	r3, #24759	; 0x60b7
    2c50:	e34b360b 	movt	r3, #46603	; 0xb60b
    2c54:	e0c31293 	smull	r1, r3, r3, r2
    2c58:	e0833002 	add	r3, r3, r2
    2c5c:	e1a01443 	asr	r1, r3, #8
    2c60:	e1a03fc2 	asr	r3, r2, #31
    2c64:	e0633001 	rsb	r3, r3, r1
    2c68:	e3a01f5a 	mov	r1, #360	; 0x168
    2c6c:	e0030391 	mul	r3, r1, r3
    2c70:	e0633002 	rsb	r3, r3, r2
    2c74:	e50b3008 	str	r3, [r11, #-8]
    return COSs[degree];
    2c78:	e3053d68 	movw	r3, #23912	; 0x5d68
    2c7c:	e3403000 	movt	r3, #0
    2c80:	e51b2008 	ldr	r2, [r11, #-8]
    2c84:	e1a02182 	lsl	r2, r2, #3
    2c88:	e0833002 	add	r3, r3, r2
    2c8c:	e1c320d0 	ldrd	r2, [r3]
    // return cos(deg * VIS_D2R);
}
    2c90:	e1a00002 	mov	r0, r2
    2c94:	e1a01003 	mov	r1, r3
    2c98:	e28bd000 	add	sp, r11, #0
    2c9c:	e8bd0800 	ldmfd	sp!, {r11}
    2ca0:	e12fff1e 	bx	lr

00002ca4 <VIS_FastSin_d16>:

int VIS_FastSin_d16(int deg) {
    2ca4:	e52db004 	push	{r11}		; (str r11, [sp, #-4]!)
    2ca8:	e28db000 	add	r11, sp, #0
    2cac:	e24dd014 	sub	sp, sp, #20
    2cb0:	e50b0010 	str	r0, [r11, #-16]
    int degree = deg % 360;
    2cb4:	e51b3010 	ldr	r3, [r11, #-16]
    2cb8:	e30620b7 	movw	r2, #24759	; 0x60b7
    2cbc:	e34b260b 	movt	r2, #46603	; 0xb60b
    2cc0:	e0c21392 	smull	r1, r2, r2, r3
    2cc4:	e0822003 	add	r2, r2, r3
    2cc8:	e1a01442 	asr	r1, r2, #8
    2ccc:	e1a02fc3 	asr	r2, r3, #31
    2cd0:	e0622001 	rsb	r2, r2, r1
    2cd4:	e3a01f5a 	mov	r1, #360	; 0x168
    2cd8:	e0020291 	mul	r2, r1, r2
    2cdc:	e0623003 	rsb	r3, r2, r3
    2ce0:	e50b3008 	str	r3, [r11, #-8]
    return SIN_large[degree];
    2ce4:	e30733e8 	movw	r3, #29672	; 0x73e8
    2ce8:	e3403000 	movt	r3, #0
    2cec:	e51b2008 	ldr	r2, [r11, #-8]
    2cf0:	e7933102 	ldr	r3, [r3, r2, lsl #2]
}
    2cf4:	e1a00003 	mov	r0, r3
    2cf8:	e28bd000 	add	sp, r11, #0
    2cfc:	e8bd0800 	ldmfd	sp!, {r11}
    2d00:	e12fff1e 	bx	lr

00002d04 <VIS_FastSin_r16>:

int VIS_FastSin_r16(int rad) {
    2d04:	e52db004 	push	{r11}		; (str r11, [sp, #-4]!)
    2d08:	e28db000 	add	r11, sp, #0
    2d0c:	e24dd014 	sub	sp, sp, #20
    2d10:	e50b0010 	str	r0, [r11, #-16]
	int degree = ((rad * VIS_R2D_16) >> 24) % 360;
    2d14:	e51b3010 	ldr	r3, [r11, #-16]
    2d18:	e303294c 	movw	r2, #14668	; 0x394c
    2d1c:	e0030392 	mul	r3, r2, r3
    2d20:	e1a03c43 	asr	r3, r3, #24
    2d24:	e30620b7 	movw	r2, #24759	; 0x60b7
    2d28:	e34b260b 	movt	r2, #46603	; 0xb60b
    2d2c:	e0c21392 	smull	r1, r2, r2, r3
    2d30:	e0822003 	add	r2, r2, r3
    2d34:	e1a01442 	asr	r1, r2, #8
    2d38:	e1a02fc3 	asr	r2, r3, #31
    2d3c:	e0622001 	rsb	r2, r2, r1
    2d40:	e3a01f5a 	mov	r1, #360	; 0x168
    2d44:	e0020291 	mul	r2, r1, r2
    2d48:	e0623003 	rsb	r3, r2, r3
    2d4c:	e50b3008 	str	r3, [r11, #-8]
	return SIN_large[degree];
    2d50:	e30733e8 	movw	r3, #29672	; 0x73e8
    2d54:	e3403000 	movt	r3, #0
    2d58:	e51b2008 	ldr	r2, [r11, #-8]
    2d5c:	e7933102 	ldr	r3, [r3, r2, lsl #2]
}
    2d60:	e1a00003 	mov	r0, r3
    2d64:	e28bd000 	add	sp, r11, #0
    2d68:	e8bd0800 	ldmfd	sp!, {r11}
    2d6c:	e12fff1e 	bx	lr

00002d70 <VIS_FastCos_d16>:

int VIS_FastCos_d16(int deg) {
    2d70:	e52db004 	push	{r11}		; (str r11, [sp, #-4]!)
    2d74:	e28db000 	add	r11, sp, #0
    2d78:	e24dd014 	sub	sp, sp, #20
    2d7c:	e50b0010 	str	r0, [r11, #-16]
    int degree = deg % 360;
    2d80:	e51b3010 	ldr	r3, [r11, #-16]
    2d84:	e30620b7 	movw	r2, #24759	; 0x60b7
    2d88:	e34b260b 	movt	r2, #46603	; 0xb60b
    2d8c:	e0c21392 	smull	r1, r2, r2, r3
    2d90:	e0822003 	add	r2, r2, r3
    2d94:	e1a01442 	asr	r1, r2, #8
    2d98:	e1a02fc3 	asr	r2, r3, #31
    2d9c:	e0622001 	rsb	r2, r2, r1
    2da0:	e3a01f5a 	mov	r1, #360	; 0x168
    2da4:	e0020291 	mul	r2, r1, r2
    2da8:	e0623003 	rsb	r3, r2, r3
    2dac:	e50b3008 	str	r3, [r11, #-8]
    return COS_large[degree];
    2db0:	e3073988 	movw	r3, #31112	; 0x7988
    2db4:	e3403000 	movt	r3, #0
    2db8:	e51b2008 	ldr	r2, [r11, #-8]
    2dbc:	e7933102 	ldr	r3, [r3, r2, lsl #2]
}
    2dc0:	e1a00003 	mov	r0, r3
    2dc4:	e28bd000 	add	sp, r11, #0
    2dc8:	e8bd0800 	ldmfd	sp!, {r11}
    2dcc:	e12fff1e 	bx	lr

00002dd0 <VIS_FastCos_r16>:

int VIS_FastCos_r16(int rad) {
    2dd0:	e52db004 	push	{r11}		; (str r11, [sp, #-4]!)
    2dd4:	e28db000 	add	r11, sp, #0
    2dd8:	e24dd014 	sub	sp, sp, #20
    2ddc:	e50b0010 	str	r0, [r11, #-16]
	int degree = ((rad * VIS_R2D_16) >> 16) % 360;
    2de0:	e51b3010 	ldr	r3, [r11, #-16]
    2de4:	e303294c 	movw	r2, #14668	; 0x394c
    2de8:	e0030392 	mul	r3, r2, r3
    2dec:	e1a03843 	asr	r3, r3, #16
    2df0:	e30620b7 	movw	r2, #24759	; 0x60b7
    2df4:	e34b260b 	movt	r2, #46603	; 0xb60b
    2df8:	e0c21392 	smull	r1, r2, r2, r3
    2dfc:	e0822003 	add	r2, r2, r3
    2e00:	e1a01442 	asr	r1, r2, #8
    2e04:	e1a02fc3 	asr	r2, r3, #31
    2e08:	e0622001 	rsb	r2, r2, r1
    2e0c:	e3a01f5a 	mov	r1, #360	; 0x168
    2e10:	e0020291 	mul	r2, r1, r2
    2e14:	e0623003 	rsb	r3, r2, r3
    2e18:	e50b3008 	str	r3, [r11, #-8]
	return COS_large[degree];
    2e1c:	e3073988 	movw	r3, #31112	; 0x7988
    2e20:	e3403000 	movt	r3, #0
    2e24:	e51b2008 	ldr	r2, [r11, #-8]
    2e28:	e7933102 	ldr	r3, [r3, r2, lsl #2]
    2e2c:	e1a00003 	mov	r0, r3
    2e30:	e28bd000 	add	sp, r11, #0
    2e34:	e8bd0800 	ldmfd	sp!, {r11}
    2e38:	e12fff1e 	bx	lr
    2e3c:	e320f000 	nop	{0}

00002e40 <add>:

//note: in this file, all the float value are shifted to the left by 16 bits
 
 float PI = 3.1415926535897932384626;

 Complex add (Complex c,  Complex rhs )   {
    2e40:	e24dd008 	sub	sp, sp, #8
    2e44:	e52db004 	push	{r11}		; (str r11, [sp, #-4]!)
    2e48:	e28db000 	add	r11, sp, #0
    2e4c:	e24dd01c 	sub	sp, sp, #28
    2e50:	e50b0010 	str	r0, [r11, #-16]
    2e54:	e24b0018 	sub	r0, r11, #24
    2e58:	e8800006 	stm	r0, {r1, r2}
    2e5c:	e58b3008 	str	r3, [r11, #8]
	 Complex newC = { 0,0};
    2e60:	e3a03000 	mov	r3, #0
    2e64:	e50b300c 	str	r3, [r11, #-12]
    2e68:	e3a03000 	mov	r3, #0
    2e6c:	e50b3008 	str	r3, [r11, #-8]
    newC.i = c.i + rhs.i;
    2e70:	ed1b7a05 	vldr	s14, [r11, #-20]	; 0xffffffec
    2e74:	eddb7a03 	vldr	s15, [r11, #12]
    2e78:	ee777a27 	vadd.f32	s15, s14, s15
    2e7c:	ed4b7a02 	vstr	s15, [r11, #-8]
    newC.r = c.r + rhs.r;
    2e80:	ed1b7a06 	vldr	s14, [r11, #-24]	; 0xffffffe8
    2e84:	eddb7a02 	vldr	s15, [r11, #8]
    2e88:	ee777a27 	vadd.f32	s15, s14, s15
    2e8c:	ed4b7a03 	vstr	s15, [r11, #-12]
    return newC ;
    2e90:	e51b3010 	ldr	r3, [r11, #-16]
    2e94:	e24b200c 	sub	r2, r11, #12
    2e98:	e8920003 	ldm	r2, {r0, r1}
    2e9c:	e8830003 	stm	r3, {r0, r1}
}
    2ea0:	e51b0010 	ldr	r0, [r11, #-16]
    2ea4:	e28bd000 	add	sp, r11, #0
    2ea8:	e8bd0800 	ldmfd	sp!, {r11}
    2eac:	e28dd008 	add	sp, sp, #8
    2eb0:	e12fff1e 	bx	lr

00002eb4 <sub>:
  Complex sub (Complex c,  Complex rhs )   {
    2eb4:	e24dd008 	sub	sp, sp, #8
    2eb8:	e52db004 	push	{r11}		; (str r11, [sp, #-4]!)
    2ebc:	e28db000 	add	r11, sp, #0
    2ec0:	e24dd01c 	sub	sp, sp, #28
    2ec4:	e50b0010 	str	r0, [r11, #-16]
    2ec8:	e24b0018 	sub	r0, r11, #24
    2ecc:	e8800006 	stm	r0, {r1, r2}
    2ed0:	e58b3008 	str	r3, [r11, #8]
	  Complex newC = {0,0};
    2ed4:	e3a03000 	mov	r3, #0
    2ed8:	e50b300c 	str	r3, [r11, #-12]
    2edc:	e3a03000 	mov	r3, #0
    2ee0:	e50b3008 	str	r3, [r11, #-8]
	  newC.i = c.i - rhs.i;
    2ee4:	ed1b7a05 	vldr	s14, [r11, #-20]	; 0xffffffec
    2ee8:	eddb7a03 	vldr	s15, [r11, #12]
    2eec:	ee777a67 	vsub.f32	s15, s14, s15
    2ef0:	ed4b7a02 	vstr	s15, [r11, #-8]
	  newC.r = c.r - rhs.r;
    2ef4:	ed1b7a06 	vldr	s14, [r11, #-24]	; 0xffffffe8
    2ef8:	eddb7a02 	vldr	s15, [r11, #8]
    2efc:	ee777a67 	vsub.f32	s15, s14, s15
    2f00:	ed4b7a03 	vstr	s15, [r11, #-12]
    return newC ;
    2f04:	e51b3010 	ldr	r3, [r11, #-16]
    2f08:	e24b200c 	sub	r2, r11, #12
    2f0c:	e8920003 	ldm	r2, {r0, r1}
    2f10:	e8830003 	stm	r3, {r0, r1}
}
    2f14:	e51b0010 	ldr	r0, [r11, #-16]
    2f18:	e28bd000 	add	sp, r11, #0
    2f1c:	e8bd0800 	ldmfd	sp!, {r11}
    2f20:	e28dd008 	add	sp, sp, #8
    2f24:	e12fff1e 	bx	lr

00002f28 <multiply>:
 Complex multiply (Complex c,  Complex rhs )   {
    2f28:	e24dd008 	sub	sp, sp, #8
    2f2c:	e52db004 	push	{r11}		; (str r11, [sp, #-4]!)
    2f30:	e28db000 	add	r11, sp, #0
    2f34:	e24dd01c 	sub	sp, sp, #28
    2f38:	e50b0010 	str	r0, [r11, #-16]
    2f3c:	e24b0018 	sub	r0, r11, #24
    2f40:	e8800006 	stm	r0, {r1, r2}
    2f44:	e58b3008 	str	r3, [r11, #8]
    Complex newC;
    newC.i = (c.r) * (rhs.i) + (c.i) * (rhs.r);
    2f48:	ed1b7a06 	vldr	s14, [r11, #-24]	; 0xffffffe8
    2f4c:	eddb7a03 	vldr	s15, [r11, #12]
    2f50:	ee277a27 	vmul.f32	s14, s14, s15
    2f54:	ed5b6a05 	vldr	s13, [r11, #-20]	; 0xffffffec
    2f58:	eddb7a02 	vldr	s15, [r11, #8]
    2f5c:	ee667aa7 	vmul.f32	s15, s13, s15
    2f60:	ee777a27 	vadd.f32	s15, s14, s15
    2f64:	ed4b7a02 	vstr	s15, [r11, #-8]
    newC.r = (c.r) * (rhs.r) - (c.i) * (rhs.i);
    2f68:	ed1b7a06 	vldr	s14, [r11, #-24]	; 0xffffffe8
    2f6c:	eddb7a02 	vldr	s15, [r11, #8]
    2f70:	ee277a27 	vmul.f32	s14, s14, s15
    2f74:	ed5b6a05 	vldr	s13, [r11, #-20]	; 0xffffffec
    2f78:	eddb7a03 	vldr	s15, [r11, #12]
    2f7c:	ee667aa7 	vmul.f32	s15, s13, s15
    2f80:	ee777a67 	vsub.f32	s15, s14, s15
    2f84:	ed4b7a03 	vstr	s15, [r11, #-12]
    return newC ;
    2f88:	e51b3010 	ldr	r3, [r11, #-16]
    2f8c:	e24b200c 	sub	r2, r11, #12
    2f90:	e8920003 	ldm	r2, {r0, r1}
    2f94:	e8830003 	stm	r3, {r0, r1}
    //return Complex ( r * rhs.r - i * rhs.i, r * rhs.i + i * rhs.r )
}
    2f98:	e51b0010 	ldr	r0, [r11, #-16]
    2f9c:	e28bd000 	add	sp, r11, #0
    2fa0:	e8bd0800 	ldmfd	sp!, {r11}
    2fa4:	e28dd008 	add	sp, sp, #8
    2fa8:	e12fff1e 	bx	lr

00002fac <divideByInt>:

 Complex divideByInt (Complex c,  float x )   {
    2fac:	e52db004 	push	{r11}		; (str r11, [sp, #-4]!)
    2fb0:	e28db000 	add	r11, sp, #0
    2fb4:	e24dd01c 	sub	sp, sp, #28
    2fb8:	e50b0010 	str	r0, [r11, #-16]
    2fbc:	e24b0018 	sub	r0, r11, #24
    2fc0:	e8800006 	stm	r0, {r1, r2}
    2fc4:	e50b301c 	str	r3, [r11, #-28]	; 0xffffffe4
    Complex newC;
    newC.i /= x;
    2fc8:	ed1b7a02 	vldr	s14, [r11, #-8]
    2fcc:	ed5b7a07 	vldr	s15, [r11, #-28]	; 0xffffffe4
    2fd0:	eec77a27 	vdiv.f32	s15, s14, s15
    2fd4:	ed4b7a02 	vstr	s15, [r11, #-8]
    newC.r /= x;
    2fd8:	ed1b7a03 	vldr	s14, [r11, #-12]
    2fdc:	ed5b7a07 	vldr	s15, [r11, #-28]	; 0xffffffe4
    2fe0:	eec77a27 	vdiv.f32	s15, s14, s15
    2fe4:	ed4b7a03 	vstr	s15, [r11, #-12]
    return newC ;
    2fe8:	e51b3010 	ldr	r3, [r11, #-16]
    2fec:	e24b200c 	sub	r2, r11, #12
    2ff0:	e8920003 	ldm	r2, {r0, r1}
    2ff4:	e8830003 	stm	r3, {r0, r1}
}
    2ff8:	e51b0010 	ldr	r0, [r11, #-16]
    2ffc:	e28bd000 	add	sp, r11, #0
    3000:	e8bd0800 	ldmfd	sp!, {r11}
    3004:	e12fff1e 	bx	lr

00003008 <conjg>:

 Complex conjg (Complex c)  {
    3008:	e52db004 	push	{r11}		; (str r11, [sp, #-4]!)
    300c:	e28db000 	add	r11, sp, #0
    3010:	e24dd01c 	sub	sp, sp, #28
    3014:	e50b0010 	str	r0, [r11, #-16]
    3018:	e24b3018 	sub	r3, r11, #24
    301c:	e8830006 	stm	r3, {r1, r2}
    Complex newC;
    newC.i = -c.i;
    3020:	ed5b7a05 	vldr	s15, [r11, #-20]	; 0xffffffec
    3024:	eef17a67 	vneg.f32	s15, s15
    3028:	ed4b7a02 	vstr	s15, [r11, #-8]
    newC.r = c.r;
    302c:	e51b3018 	ldr	r3, [r11, #-24]	; 0xffffffe8
    3030:	e50b300c 	str	r3, [r11, #-12]
    return newC ;
    3034:	e51b3010 	ldr	r3, [r11, #-16]
    3038:	e24b200c 	sub	r2, r11, #12
    303c:	e8920003 	ldm	r2, {r0, r1}
    3040:	e8830003 	stm	r3, {r0, r1}
}
    3044:	e51b0010 	ldr	r0, [r11, #-16]
    3048:	e28bd000 	add	sp, r11, #0
    304c:	e8bd0800 	ldmfd	sp!, {r11}
    3050:	e12fff1e 	bx	lr

00003054 <magnitude>:
 
  int magnitude (Complex c)  {
    3054:	e52db004 	push	{r11}		; (str r11, [sp, #-4]!)
    3058:	e28db000 	add	r11, sp, #0
    305c:	e24dd00c 	sub	sp, sp, #12
    3060:	e24b300c 	sub	r3, r11, #12
    3064:	e8830003 	stm	r3, {r0, r1}
    return ((int) c.r)*((int) c.r)+((int) c.i)*((int) c.i) ;
    3068:	ed5b7a03 	vldr	s15, [r11, #-12]
    306c:	eefd7ae7 	vcvt.s32.f32	s15, s15
    3070:	ee173a90 	vmov	r3, s15
    3074:	ed5b7a03 	vldr	s15, [r11, #-12]
    3078:	eefd7ae7 	vcvt.s32.f32	s15, s15
    307c:	ee172a90 	vmov	r2, s15
    3080:	e0020392 	mul	r2, r2, r3
    3084:	ed5b7a02 	vldr	s15, [r11, #-8]
    3088:	eefd7ae7 	vcvt.s32.f32	s15, s15
    308c:	ee173a90 	vmov	r3, s15
    3090:	ed5b7a02 	vldr	s15, [r11, #-8]
    3094:	eefd7ae7 	vcvt.s32.f32	s15, s15
    3098:	ee171a90 	vmov	r1, s15
    309c:	e0030391 	mul	r3, r1, r3
    30a0:	e0823003 	add	r3, r2, r3
}
    30a4:	e1a00003 	mov	r0, r3
    30a8:	e28bd000 	add	sp, r11, #0
    30ac:	e8bd0800 	ldmfd	sp!, {r11}
    30b0:	e12fff1e 	bx	lr

000030b4 <init>:

void init(int size, Complex *omegaInverse) {
    30b4:	e92d4800 	push	{r11, lr}
    30b8:	e28db004 	add	r11, sp, #4
    30bc:	e24dd018 	sub	sp, sp, #24
    30c0:	e50b0018 	str	r0, [r11, #-24]	; 0xffffffe8
    30c4:	e50b101c 	str	r1, [r11, #-28]	; 0xffffffe4
        for (int i = 0; i < size; ++i) {
    30c8:	e3a03000 	mov	r3, #0
    30cc:	e50b3008 	str	r3, [r11, #-8]
    30d0:	ea00002b 	b	3184 <init+0xd0>
            Complex c ={cosf(2 * PI *i / size), -sinf(2 * PI *i/ size)};
    30d4:	e30833b4 	movw	r3, #33716	; 0x83b4
    30d8:	e3403000 	movt	r3, #0
    30dc:	edd37a00 	vldr	s15, [r3]
    30e0:	ee377aa7 	vadd.f32	s14, s15, s15
    30e4:	e51b3008 	ldr	r3, [r11, #-8]
    30e8:	ee063a90 	vmov	s13, r3
    30ec:	eef87ae6 	vcvt.f32.s32	s15, s13
    30f0:	ee277a27 	vmul.f32	s14, s14, s15
    30f4:	e51b3018 	ldr	r3, [r11, #-24]	; 0xffffffe8
    30f8:	ee063a90 	vmov	s13, r3
    30fc:	eef87ae6 	vcvt.f32.s32	s15, s13
    3100:	eec77a27 	vdiv.f32	s15, s14, s15
    3104:	ee170a90 	vmov	r0, s15
    3108:	eb0001f3 	bl	38dc <cosf>
    310c:	e1a03000 	mov	r3, r0
    3110:	e50b3010 	str	r3, [r11, #-16]
    3114:	e30833b4 	movw	r3, #33716	; 0x83b4
    3118:	e3403000 	movt	r3, #0
    311c:	edd37a00 	vldr	s15, [r3]
    3120:	ee377aa7 	vadd.f32	s14, s15, s15
    3124:	e51b3008 	ldr	r3, [r11, #-8]
    3128:	ee063a90 	vmov	s13, r3
    312c:	eef87ae6 	vcvt.f32.s32	s15, s13
    3130:	ee277a27 	vmul.f32	s14, s14, s15
    3134:	e51b3018 	ldr	r3, [r11, #-24]	; 0xffffffe8
    3138:	ee063a90 	vmov	s13, r3
    313c:	eef87ae6 	vcvt.f32.s32	s15, s13
    3140:	eec77a27 	vdiv.f32	s15, s14, s15
    3144:	ee170a90 	vmov	r0, s15
    3148:	eb00020c 	bl	3980 <sinf>
    314c:	e1a03000 	mov	r3, r0
    3150:	ee073a10 	vmov	s14, r3
    3154:	eef17a47 	vneg.f32	s15, s14
    3158:	ed4b7a03 	vstr	s15, [r11, #-12]
            omegaInverse[i] = c;
    315c:	e51b3008 	ldr	r3, [r11, #-8]
    3160:	e1a03183 	lsl	r3, r3, #3
    3164:	e51b201c 	ldr	r2, [r11, #-28]	; 0xffffffe4
    3168:	e0823003 	add	r3, r2, r3
    316c:	e24b2010 	sub	r2, r11, #16
    3170:	e8920003 	ldm	r2, {r0, r1}
    3174:	e8830003 	stm	r3, {r0, r1}
  int magnitude (Complex c)  {
    return ((int) c.r)*((int) c.r)+((int) c.i)*((int) c.i) ;
}

void init(int size, Complex *omegaInverse) {
        for (int i = 0; i < size; ++i) {
    3178:	e51b3008 	ldr	r3, [r11, #-8]
    317c:	e2833001 	add	r3, r3, #1
    3180:	e50b3008 	str	r3, [r11, #-8]
    3184:	e51b2008 	ldr	r2, [r11, #-8]
    3188:	e51b3018 	ldr	r3, [r11, #-24]	; 0xffffffe8
    318c:	e1520003 	cmp	r2, r3
    3190:	baffffcf 	blt	30d4 <init+0x20>
            Complex c ={cosf(2 * PI *i / size), -sinf(2 * PI *i/ size)};
            omegaInverse[i] = c;
    }
}
    3194:	e24bd004 	sub	sp, r11, #4
    3198:	e8bd8800 	pop	{r11, pc}

0000319c <initExps>:
// 			}
// 			result[om] = c;
// 		}
// 	}

void initExps(int size, Complex omegaInverse[][size]) {
    319c:	e92d4870 	push	{r4, r5, r6, r11, lr}
    31a0:	e28db010 	add	r11, sp, #16
    31a4:	e24dd02c 	sub	sp, sp, #44	; 0x2c
    31a8:	e50b0038 	str	r0, [r11, #-56]	; 0xffffffc8
    31ac:	e50b103c 	str	r1, [r11, #-60]	; 0xffffffc4
    31b0:	e51b6038 	ldr	r6, [r11, #-56]	; 0xffffffc8
    31b4:	e2463001 	sub	r3, r6, #1
    31b8:	e50b3024 	str	r3, [r11, #-36]	; 0xffffffdc
    31bc:	e1a01006 	mov	r1, r6
    31c0:	e1a02001 	mov	r2, r1
    31c4:	e3a03000 	mov	r3, #0
    31c8:	e1a01d22 	lsr	r1, r2, #26
    31cc:	e1a05303 	lsl	r5, r3, #6
    31d0:	e1815005 	orr	r5, r1, r5
    31d4:	e1a04302 	lsl	r4, r2, #6
    //initialize first line
    for(int k =0; k < size; k++){
    31d8:	e3a03000 	mov	r3, #0
    31dc:	e50b3018 	str	r3, [r11, #-24]	; 0xffffffe8
    31e0:	ea00000d 	b	321c <initExps+0x80>
            Complex c ={1,0};
    31e4:	e3a035fe 	mov	r3, #1065353216	; 0x3f800000
    31e8:	e50b302c 	str	r3, [r11, #-44]	; 0xffffffd4
    31ec:	e3a03000 	mov	r3, #0
    31f0:	e50b3028 	str	r3, [r11, #-40]	; 0xffffffd8
            omegaInverse[0][k] = c;
    31f4:	e51b203c 	ldr	r2, [r11, #-60]	; 0xffffffc4
    31f8:	e51b3018 	ldr	r3, [r11, #-24]	; 0xffffffe8
    31fc:	e1a03183 	lsl	r3, r3, #3
    3200:	e0823003 	add	r3, r2, r3
    3204:	e24b202c 	sub	r2, r11, #44	; 0x2c
    3208:	e8920003 	ldm	r2, {r0, r1}
    320c:	e8830003 	stm	r3, {r0, r1}
// 		}
// 	}

void initExps(int size, Complex omegaInverse[][size]) {
    //initialize first line
    for(int k =0; k < size; k++){
    3210:	e51b3018 	ldr	r3, [r11, #-24]	; 0xffffffe8
    3214:	e2833001 	add	r3, r3, #1
    3218:	e50b3018 	str	r3, [r11, #-24]	; 0xffffffe8
    321c:	e51b2018 	ldr	r2, [r11, #-24]	; 0xffffffe8
    3220:	e51b3038 	ldr	r3, [r11, #-56]	; 0xffffffc8
    3224:	e1520003 	cmp	r2, r3
    3228:	baffffed 	blt	31e4 <initExps+0x48>
            Complex c ={1,0};
            omegaInverse[0][k] = c;
    }
    for (int index = 1; index < size; ++index) {
    322c:	e3a03001 	mov	r3, #1
    3230:	e50b301c 	str	r3, [r11, #-28]	; 0xffffffe4
    3234:	ea00003a 	b	3324 <initExps+0x188>
        for(int k =0; k < size; k++){
    3238:	e3a03000 	mov	r3, #0
    323c:	e50b3020 	str	r3, [r11, #-32]	; 0xffffffe0
    3240:	ea000030 	b	3308 <initExps+0x16c>
            Complex c ={cosf(2 * PI / index * k), -sinf(2 * PI / index * k)};
    3244:	e30833b4 	movw	r3, #33716	; 0x83b4
    3248:	e3403000 	movt	r3, #0
    324c:	edd37a00 	vldr	s15, [r3]
    3250:	ee377aa7 	vadd.f32	s14, s15, s15
    3254:	e51b301c 	ldr	r3, [r11, #-28]	; 0xffffffe4
    3258:	ee063a90 	vmov	s13, r3
    325c:	eef87ae6 	vcvt.f32.s32	s15, s13
    3260:	eec77a27 	vdiv.f32	s15, s14, s15
    3264:	e51b3020 	ldr	r3, [r11, #-32]	; 0xffffffe0
    3268:	ee063a90 	vmov	s13, r3
    326c:	eeb87ae6 	vcvt.f32.s32	s14, s13
    3270:	ee677a87 	vmul.f32	s15, s15, s14
    3274:	ee170a90 	vmov	r0, s15
    3278:	eb000197 	bl	38dc <cosf>
    327c:	e1a03000 	mov	r3, r0
    3280:	e50b3034 	str	r3, [r11, #-52]	; 0xffffffcc
    3284:	e30833b4 	movw	r3, #33716	; 0x83b4
    3288:	e3403000 	movt	r3, #0
    328c:	edd37a00 	vldr	s15, [r3]
    3290:	ee377aa7 	vadd.f32	s14, s15, s15
    3294:	e51b301c 	ldr	r3, [r11, #-28]	; 0xffffffe4
    3298:	ee063a90 	vmov	s13, r3
    329c:	eef87ae6 	vcvt.f32.s32	s15, s13
    32a0:	eec77a27 	vdiv.f32	s15, s14, s15
    32a4:	e51b3020 	ldr	r3, [r11, #-32]	; 0xffffffe0
    32a8:	ee063a90 	vmov	s13, r3
    32ac:	eeb87ae6 	vcvt.f32.s32	s14, s13
    32b0:	ee677a87 	vmul.f32	s15, s15, s14
    32b4:	ee170a90 	vmov	r0, s15
    32b8:	eb0001b0 	bl	3980 <sinf>
    32bc:	e1a03000 	mov	r3, r0
    32c0:	ee073a10 	vmov	s14, r3
    32c4:	eef17a47 	vneg.f32	s15, s14
    32c8:	ed4b7a0c 	vstr	s15, [r11, #-48]	; 0xffffffd0
            omegaInverse[index][k] = c;
    32cc:	e1a03006 	mov	r3, r6
    32d0:	e51b201c 	ldr	r2, [r11, #-28]	; 0xffffffe4
    32d4:	e0030392 	mul	r3, r2, r3
    32d8:	e1a03183 	lsl	r3, r3, #3
    32dc:	e51b203c 	ldr	r2, [r11, #-60]	; 0xffffffc4
    32e0:	e0822003 	add	r2, r2, r3
    32e4:	e51b3020 	ldr	r3, [r11, #-32]	; 0xffffffe0
    32e8:	e1a03183 	lsl	r3, r3, #3
    32ec:	e0823003 	add	r3, r2, r3
    32f0:	e24b2034 	sub	r2, r11, #52	; 0x34
    32f4:	e8920003 	ldm	r2, {r0, r1}
    32f8:	e8830003 	stm	r3, {r0, r1}
    for(int k =0; k < size; k++){
            Complex c ={1,0};
            omegaInverse[0][k] = c;
    }
    for (int index = 1; index < size; ++index) {
        for(int k =0; k < size; k++){
    32fc:	e51b3020 	ldr	r3, [r11, #-32]	; 0xffffffe0
    3300:	e2833001 	add	r3, r3, #1
    3304:	e50b3020 	str	r3, [r11, #-32]	; 0xffffffe0
    3308:	e51b2020 	ldr	r2, [r11, #-32]	; 0xffffffe0
    330c:	e51b3038 	ldr	r3, [r11, #-56]	; 0xffffffc8
    3310:	e1520003 	cmp	r2, r3
    3314:	baffffca 	blt	3244 <initExps+0xa8>
    //initialize first line
    for(int k =0; k < size; k++){
            Complex c ={1,0};
            omegaInverse[0][k] = c;
    }
    for (int index = 1; index < size; ++index) {
    3318:	e51b301c 	ldr	r3, [r11, #-28]	; 0xffffffe4
    331c:	e2833001 	add	r3, r3, #1
    3320:	e50b301c 	str	r3, [r11, #-28]	; 0xffffffe4
    3324:	e51b201c 	ldr	r2, [r11, #-28]	; 0xffffffe4
    3328:	e51b3038 	ldr	r3, [r11, #-56]	; 0xffffffc8
    332c:	e1520003 	cmp	r2, r3
    3330:	baffffc0 	blt	3238 <initExps+0x9c>
        for(int k =0; k < size; k++){
            Complex c ={cosf(2 * PI / index * k), -sinf(2 * PI / index * k)};
            omegaInverse[index][k] = c;
        }
    }
}
    3334:	e24bd010 	sub	sp, r11, #16
    3338:	e8bd8870 	pop	{r4, r5, r6, r11, pc}

0000333c <fdft>:

void fdft(Complex *x, int n, Complex omegaExp[][n], Complex *result) {
    333c:	e92d4870 	push	{r4, r5, r6, r11, lr}
    3340:	e28db010 	add	r11, sp, #16
    3344:	e24dd03c 	sub	sp, sp, #60	; 0x3c
    3348:	e50b0038 	str	r0, [r11, #-56]	; 0xffffffc8
    334c:	e50b103c 	str	r1, [r11, #-60]	; 0xffffffc4
    3350:	e50b2040 	str	r2, [r11, #-64]	; 0xffffffc0
    3354:	e50b3044 	str	r3, [r11, #-68]	; 0xffffffbc
    3358:	e51b603c 	ldr	r6, [r11, #-60]	; 0xffffffc4
    335c:	e2463001 	sub	r3, r6, #1
    3360:	e50b3020 	str	r3, [r11, #-32]	; 0xffffffe0
    3364:	e1a01006 	mov	r1, r6
    3368:	e1a02001 	mov	r2, r1
    336c:	e3a03000 	mov	r3, #0
    3370:	e1a01d22 	lsr	r1, r2, #26
    3374:	e1a05303 	lsl	r5, r3, #6
    3378:	e1815005 	orr	r5, r1, r5
    337c:	e1a04302 	lsl	r4, r2, #6
		for (int om = 0; om < n; om++) {
    3380:	e3a03000 	mov	r3, #0
    3384:	e50b3018 	str	r3, [r11, #-24]	; 0xffffffe8
    3388:	ea000034 	b	3460 <fdft+0x124>
			Complex c = {0,0};
    338c:	e3a03000 	mov	r3, #0
    3390:	e50b3030 	str	r3, [r11, #-48]	; 0xffffffd0
    3394:	e3a03000 	mov	r3, #0
    3398:	e50b302c 	str	r3, [r11, #-44]	; 0xffffffd4
			for (int k = 0; k < n; k++) {
    339c:	e3a03000 	mov	r3, #0
    33a0:	e50b301c 	str	r3, [r11, #-28]	; 0xffffffe4
    33a4:	ea00001f 	b	3428 <fdft+0xec>
				c = add(c, multiply(x[k],omegaExp[om][k]));
    33a8:	e51b301c 	ldr	r3, [r11, #-28]	; 0xffffffe4
    33ac:	e1a03183 	lsl	r3, r3, #3
    33b0:	e51b2038 	ldr	r2, [r11, #-56]	; 0xffffffc8
    33b4:	e0821003 	add	r1, r2, r3
    33b8:	e1a03006 	mov	r3, r6
    33bc:	e51b2018 	ldr	r2, [r11, #-24]	; 0xffffffe8
    33c0:	e0030392 	mul	r3, r2, r3
    33c4:	e1a03183 	lsl	r3, r3, #3
    33c8:	e51b2040 	ldr	r2, [r11, #-64]	; 0xffffffc0
    33cc:	e0823003 	add	r3, r2, r3
    33d0:	e24b0028 	sub	r0, r11, #40	; 0x28
    33d4:	e51b201c 	ldr	r2, [r11, #-28]	; 0xffffffe4
    33d8:	e3a0c004 	mov	r12, #4
    33dc:	e1a0e182 	lsl	lr, r2, #3
    33e0:	e083e00e 	add	lr, r3, lr
    33e4:	e08ec00c 	add	r12, lr, r12
    33e8:	e59cc000 	ldr	r12, [r12]
    33ec:	e58dc000 	str	r12, [sp]
    33f0:	e7933182 	ldr	r3, [r3, r2, lsl #3]
    33f4:	e8910006 	ldm	r1, {r1, r2}
    33f8:	ebfffeca 	bl	2f28 <multiply>
    33fc:	e24b2030 	sub	r2, r11, #48	; 0x30
    3400:	e51b3024 	ldr	r3, [r11, #-36]	; 0xffffffdc
    3404:	e58d3000 	str	r3, [sp]
    3408:	e51b3028 	ldr	r3, [r11, #-40]	; 0xffffffd8
    340c:	e1a00002 	mov	r0, r2
    3410:	e24b2030 	sub	r2, r11, #48	; 0x30
    3414:	e8920006 	ldm	r2, {r1, r2}
    3418:	ebfffe88 	bl	2e40 <add>
}

void fdft(Complex *x, int n, Complex omegaExp[][n], Complex *result) {
		for (int om = 0; om < n; om++) {
			Complex c = {0,0};
			for (int k = 0; k < n; k++) {
    341c:	e51b301c 	ldr	r3, [r11, #-28]	; 0xffffffe4
    3420:	e2833001 	add	r3, r3, #1
    3424:	e50b301c 	str	r3, [r11, #-28]	; 0xffffffe4
    3428:	e51b201c 	ldr	r2, [r11, #-28]	; 0xffffffe4
    342c:	e51b303c 	ldr	r3, [r11, #-60]	; 0xffffffc4
    3430:	e1520003 	cmp	r2, r3
    3434:	baffffdb 	blt	33a8 <fdft+0x6c>
				c = add(c, multiply(x[k],omegaExp[om][k]));
			}
			result[om] = c;
    3438:	e51b3018 	ldr	r3, [r11, #-24]	; 0xffffffe8
    343c:	e1a03183 	lsl	r3, r3, #3
    3440:	e51b2044 	ldr	r2, [r11, #-68]	; 0xffffffbc
    3444:	e0823003 	add	r3, r2, r3
    3448:	e24b2030 	sub	r2, r11, #48	; 0x30
    344c:	e8920003 	ldm	r2, {r0, r1}
    3450:	e8830003 	stm	r3, {r0, r1}
        }
    }
}

void fdft(Complex *x, int n, Complex omegaExp[][n], Complex *result) {
		for (int om = 0; om < n; om++) {
    3454:	e51b3018 	ldr	r3, [r11, #-24]	; 0xffffffe8
    3458:	e2833001 	add	r3, r3, #1
    345c:	e50b3018 	str	r3, [r11, #-24]	; 0xffffffe8
    3460:	e51b2018 	ldr	r2, [r11, #-24]	; 0xffffffe8
    3464:	e51b303c 	ldr	r3, [r11, #-60]	; 0xffffffc4
    3468:	e1520003 	cmp	r2, r3
    346c:	baffffc6 	blt	338c <fdft+0x50>
			for (int k = 0; k < n; k++) {
				c = add(c, multiply(x[k],omegaExp[om][k]));
			}
			result[om] = c;
		}
	}
    3470:	e24bd010 	sub	sp, r11, #16
    3474:	e8bd8870 	pop	{r4, r5, r6, r11, pc}

00003478 <fdft2>:

void fdft2(Complex *x, int n, Complex omegaExp[][n], Complex *result) {
    3478:	e92d4870 	push	{r4, r5, r6, r11, lr}
    347c:	e28db010 	add	r11, sp, #16
    3480:	e24dd03c 	sub	sp, sp, #60	; 0x3c
    3484:	e50b0038 	str	r0, [r11, #-56]	; 0xffffffc8
    3488:	e50b103c 	str	r1, [r11, #-60]	; 0xffffffc4
    348c:	e50b2040 	str	r2, [r11, #-64]	; 0xffffffc0
    3490:	e50b3044 	str	r3, [r11, #-68]	; 0xffffffbc
    3494:	e51b603c 	ldr	r6, [r11, #-60]	; 0xffffffc4
    3498:	e2463001 	sub	r3, r6, #1
    349c:	e50b3020 	str	r3, [r11, #-32]	; 0xffffffe0
    34a0:	e1a01006 	mov	r1, r6
    34a4:	e1a02001 	mov	r2, r1
    34a8:	e3a03000 	mov	r3, #0
    34ac:	e1a01d22 	lsr	r1, r2, #26
    34b0:	e1a05303 	lsl	r5, r3, #6
    34b4:	e1815005 	orr	r5, r1, r5
    34b8:	e1a04302 	lsl	r4, r2, #6

        for (int om = 0; om < n; om++) {
    34bc:	e3a03000 	mov	r3, #0
    34c0:	e50b3018 	str	r3, [r11, #-24]	; 0xffffffe8
    34c4:	ea000034 	b	359c <fdft2+0x124>
			Complex c = {0,0};
    34c8:	e3a03000 	mov	r3, #0
    34cc:	e50b3030 	str	r3, [r11, #-48]	; 0xffffffd0
    34d0:	e3a03000 	mov	r3, #0
    34d4:	e50b302c 	str	r3, [r11, #-44]	; 0xffffffd4
			for (int k = 0; k < n; k++) {
    34d8:	e3a03000 	mov	r3, #0
    34dc:	e50b301c 	str	r3, [r11, #-28]	; 0xffffffe4
    34e0:	ea00001f 	b	3564 <fdft2+0xec>
				c = add(c, multiply(x[k],omegaExp[om][k]));
    34e4:	e51b301c 	ldr	r3, [r11, #-28]	; 0xffffffe4
    34e8:	e1a03183 	lsl	r3, r3, #3
    34ec:	e51b2038 	ldr	r2, [r11, #-56]	; 0xffffffc8
    34f0:	e0821003 	add	r1, r2, r3
    34f4:	e1a03006 	mov	r3, r6
    34f8:	e51b2018 	ldr	r2, [r11, #-24]	; 0xffffffe8
    34fc:	e0030392 	mul	r3, r2, r3
    3500:	e1a03183 	lsl	r3, r3, #3
    3504:	e51b2040 	ldr	r2, [r11, #-64]	; 0xffffffc0
    3508:	e0823003 	add	r3, r2, r3
    350c:	e24b0028 	sub	r0, r11, #40	; 0x28
    3510:	e51b201c 	ldr	r2, [r11, #-28]	; 0xffffffe4
    3514:	e3a0c004 	mov	r12, #4
    3518:	e1a0e182 	lsl	lr, r2, #3
    351c:	e083e00e 	add	lr, r3, lr
    3520:	e08ec00c 	add	r12, lr, r12
    3524:	e59cc000 	ldr	r12, [r12]
    3528:	e58dc000 	str	r12, [sp]
    352c:	e7933182 	ldr	r3, [r3, r2, lsl #3]
    3530:	e8910006 	ldm	r1, {r1, r2}
    3534:	ebfffe7b 	bl	2f28 <multiply>
    3538:	e24b2030 	sub	r2, r11, #48	; 0x30
    353c:	e51b3024 	ldr	r3, [r11, #-36]	; 0xffffffdc
    3540:	e58d3000 	str	r3, [sp]
    3544:	e51b3028 	ldr	r3, [r11, #-40]	; 0xffffffd8
    3548:	e1a00002 	mov	r0, r2
    354c:	e24b2030 	sub	r2, r11, #48	; 0x30
    3550:	e8920006 	ldm	r2, {r1, r2}
    3554:	ebfffe39 	bl	2e40 <add>

void fdft2(Complex *x, int n, Complex omegaExp[][n], Complex *result) {

        for (int om = 0; om < n; om++) {
			Complex c = {0,0};
			for (int k = 0; k < n; k++) {
    3558:	e51b301c 	ldr	r3, [r11, #-28]	; 0xffffffe4
    355c:	e2833001 	add	r3, r3, #1
    3560:	e50b301c 	str	r3, [r11, #-28]	; 0xffffffe4
    3564:	e51b201c 	ldr	r2, [r11, #-28]	; 0xffffffe4
    3568:	e51b303c 	ldr	r3, [r11, #-60]	; 0xffffffc4
    356c:	e1520003 	cmp	r2, r3
    3570:	baffffdb 	blt	34e4 <fdft2+0x6c>
				c = add(c, multiply(x[k],omegaExp[om][k]));
			}
			result[om] = c;
    3574:	e51b3018 	ldr	r3, [r11, #-24]	; 0xffffffe8
    3578:	e1a03183 	lsl	r3, r3, #3
    357c:	e51b2044 	ldr	r2, [r11, #-68]	; 0xffffffbc
    3580:	e0823003 	add	r3, r2, r3
    3584:	e24b2030 	sub	r2, r11, #48	; 0x30
    3588:	e8920003 	ldm	r2, {r0, r1}
    358c:	e8830003 	stm	r3, {r0, r1}
		}
	}

void fdft2(Complex *x, int n, Complex omegaExp[][n], Complex *result) {

        for (int om = 0; om < n; om++) {
    3590:	e51b3018 	ldr	r3, [r11, #-24]	; 0xffffffe8
    3594:	e2833001 	add	r3, r3, #1
    3598:	e50b3018 	str	r3, [r11, #-24]	; 0xffffffe8
    359c:	e51b2018 	ldr	r2, [r11, #-24]	; 0xffffffe8
    35a0:	e51b303c 	ldr	r3, [r11, #-60]	; 0xffffffc4
    35a4:	e1520003 	cmp	r2, r3
    35a8:	baffffc6 	blt	34c8 <fdft2+0x50>
			for (int k = 0; k < n; k++) {
				c = add(c, multiply(x[k],omegaExp[om][k]));
			}
			result[om] = c;
		}
	}
    35ac:	e24bd010 	sub	sp, r11, #16
    35b0:	e8bd8870 	pop	{r4, r5, r6, r11, pc}

000035b4 <_fft>:


void _fft(Complex buf[], Complex out[], int n, int step)
{
    35b4:	e92d4810 	push	{r4, r11, lr}
    35b8:	e28db008 	add	r11, sp, #8
    35bc:	e24dd03c 	sub	sp, sp, #60	; 0x3c
    35c0:	e50b0028 	str	r0, [r11, #-40]	; 0xffffffd8
    35c4:	e50b102c 	str	r1, [r11, #-44]	; 0xffffffd4
    35c8:	e50b2030 	str	r2, [r11, #-48]	; 0xffffffd0
    35cc:	e50b3034 	str	r3, [r11, #-52]	; 0xffffffcc
	if (step < n) {
    35d0:	e51b2034 	ldr	r2, [r11, #-52]	; 0xffffffcc
    35d4:	e51b3030 	ldr	r3, [r11, #-48]	; 0xffffffd0
    35d8:	e1520003 	cmp	r2, r3
    35dc:	aa00007b 	bge	37d0 <_fft+0x21c>
		_fft(out, buf, n, step * 2);
    35e0:	e51b3034 	ldr	r3, [r11, #-52]	; 0xffffffcc
    35e4:	e1a03083 	lsl	r3, r3, #1
    35e8:	e51b002c 	ldr	r0, [r11, #-44]	; 0xffffffd4
    35ec:	e51b1028 	ldr	r1, [r11, #-40]	; 0xffffffd8
    35f0:	e51b2030 	ldr	r2, [r11, #-48]	; 0xffffffd0
    35f4:	ebffffee 	bl	35b4 <_fft>
		_fft(out + step, buf + step, n, step * 2);
    35f8:	e51b3034 	ldr	r3, [r11, #-52]	; 0xffffffcc
    35fc:	e1a03183 	lsl	r3, r3, #3
    3600:	e51b202c 	ldr	r2, [r11, #-44]	; 0xffffffd4
    3604:	e0821003 	add	r1, r2, r3
    3608:	e51b3034 	ldr	r3, [r11, #-52]	; 0xffffffcc
    360c:	e1a03183 	lsl	r3, r3, #3
    3610:	e51b2028 	ldr	r2, [r11, #-40]	; 0xffffffd8
    3614:	e0822003 	add	r2, r2, r3
    3618:	e51b3034 	ldr	r3, [r11, #-52]	; 0xffffffcc
    361c:	e1a03083 	lsl	r3, r3, #1
    3620:	e1a00001 	mov	r0, r1
    3624:	e1a01002 	mov	r1, r2
    3628:	e51b2030 	ldr	r2, [r11, #-48]	; 0xffffffd0
    362c:	ebffffe0 	bl	35b4 <_fft>
 
		for (int i = 0; i < n; i += 2 * step) {
    3630:	e3a03000 	mov	r3, #0
    3634:	e50b3010 	str	r3, [r11, #-16]
    3638:	ea000060 	b	37c0 <_fft+0x20c>
			Complex expo = {cosf(PI * i / n), -sinf(PI * i / n)};
    363c:	e51b3010 	ldr	r3, [r11, #-16]
    3640:	ee063a90 	vmov	s13, r3
    3644:	eeb87ae6 	vcvt.f32.s32	s14, s13
    3648:	e30833b4 	movw	r3, #33716	; 0x83b4
    364c:	e3403000 	movt	r3, #0
    3650:	edd37a00 	vldr	s15, [r3]
    3654:	ee277a27 	vmul.f32	s14, s14, s15
    3658:	e51b3030 	ldr	r3, [r11, #-48]	; 0xffffffd0
    365c:	ee063a90 	vmov	s13, r3
    3660:	eef87ae6 	vcvt.f32.s32	s15, s13
    3664:	eec77a27 	vdiv.f32	s15, s14, s15
    3668:	ee170a90 	vmov	r0, s15
    366c:	eb00009a 	bl	38dc <cosf>
    3670:	e1a03000 	mov	r3, r0
    3674:	e50b3018 	str	r3, [r11, #-24]	; 0xffffffe8
    3678:	e51b3010 	ldr	r3, [r11, #-16]
    367c:	ee073a90 	vmov	s15, r3
    3680:	eeb87ae7 	vcvt.f32.s32	s14, s15
    3684:	e30833b4 	movw	r3, #33716	; 0x83b4
    3688:	e3403000 	movt	r3, #0
    368c:	edd37a00 	vldr	s15, [r3]
    3690:	ee277a27 	vmul.f32	s14, s14, s15
    3694:	e51b3030 	ldr	r3, [r11, #-48]	; 0xffffffd0
    3698:	ee063a90 	vmov	s13, r3
    369c:	eef87ae6 	vcvt.f32.s32	s15, s13
    36a0:	eec77a27 	vdiv.f32	s15, s14, s15
    36a4:	ee170a90 	vmov	r0, s15
    36a8:	eb0000b4 	bl	3980 <sinf>
    36ac:	e1a03000 	mov	r3, r0
    36b0:	ee073a10 	vmov	s14, r3
    36b4:	eef17a47 	vneg.f32	s15, s14
    36b8:	ed4b7a05 	vstr	s15, [r11, #-20]	; 0xffffffec
			Complex t =multiply(expo,out[i + step]);
    36bc:	e51b2010 	ldr	r2, [r11, #-16]
    36c0:	e51b3034 	ldr	r3, [r11, #-52]	; 0xffffffcc
    36c4:	e0823003 	add	r3, r2, r3
    36c8:	e1a03183 	lsl	r3, r3, #3
    36cc:	e51b202c 	ldr	r2, [r11, #-44]	; 0xffffffd4
    36d0:	e0823003 	add	r3, r2, r3
    36d4:	e24b2020 	sub	r2, r11, #32
    36d8:	e5931004 	ldr	r1, [r3, #4]
    36dc:	e58d1000 	str	r1, [sp]
    36e0:	e5933000 	ldr	r3, [r3]
    36e4:	e1a00002 	mov	r0, r2
    36e8:	e24b2018 	sub	r2, r11, #24
    36ec:	e8920006 	ldm	r2, {r1, r2}
    36f0:	ebfffe0c 	bl	2f28 <multiply>
			buf[i / 2]     = add(out[i],t);
    36f4:	e51b3010 	ldr	r3, [r11, #-16]
    36f8:	e1a02fa3 	lsr	r2, r3, #31
    36fc:	e0823003 	add	r3, r2, r3
    3700:	e1a030c3 	asr	r3, r3, #1
    3704:	e1a03183 	lsl	r3, r3, #3
    3708:	e51b2028 	ldr	r2, [r11, #-40]	; 0xffffffd8
    370c:	e0824003 	add	r4, r2, r3
    3710:	e51b3010 	ldr	r3, [r11, #-16]
    3714:	e1a03183 	lsl	r3, r3, #3
    3718:	e51b202c 	ldr	r2, [r11, #-44]	; 0xffffffd4
    371c:	e0822003 	add	r2, r2, r3
    3720:	e24b103c 	sub	r1, r11, #60	; 0x3c
    3724:	e51b301c 	ldr	r3, [r11, #-28]	; 0xffffffe4
    3728:	e58d3000 	str	r3, [sp]
    372c:	e51b3020 	ldr	r3, [r11, #-32]	; 0xffffffe0
    3730:	e1a00001 	mov	r0, r1
    3734:	e8920006 	ldm	r2, {r1, r2}
    3738:	ebfffdc0 	bl	2e40 <add>
    373c:	e1a03004 	mov	r3, r4
    3740:	e24b203c 	sub	r2, r11, #60	; 0x3c
    3744:	e8920003 	ldm	r2, {r0, r1}
    3748:	e8830003 	stm	r3, {r0, r1}
			buf[(i + n)/2] = sub(out[i],t);
    374c:	e51b2010 	ldr	r2, [r11, #-16]
    3750:	e51b3030 	ldr	r3, [r11, #-48]	; 0xffffffd0
    3754:	e0823003 	add	r3, r2, r3
    3758:	e1a02fa3 	lsr	r2, r3, #31
    375c:	e0823003 	add	r3, r2, r3
    3760:	e1a030c3 	asr	r3, r3, #1
    3764:	e1a03183 	lsl	r3, r3, #3
    3768:	e51b2028 	ldr	r2, [r11, #-40]	; 0xffffffd8
    376c:	e0824003 	add	r4, r2, r3
    3770:	e51b3010 	ldr	r3, [r11, #-16]
    3774:	e1a03183 	lsl	r3, r3, #3
    3778:	e51b202c 	ldr	r2, [r11, #-44]	; 0xffffffd4
    377c:	e0822003 	add	r2, r2, r3
    3780:	e24b103c 	sub	r1, r11, #60	; 0x3c
    3784:	e51b301c 	ldr	r3, [r11, #-28]	; 0xffffffe4
    3788:	e58d3000 	str	r3, [sp]
    378c:	e51b3020 	ldr	r3, [r11, #-32]	; 0xffffffe0
    3790:	e1a00001 	mov	r0, r1
    3794:	e8920006 	ldm	r2, {r1, r2}
    3798:	ebfffdc5 	bl	2eb4 <sub>
    379c:	e1a03004 	mov	r3, r4
    37a0:	e24b203c 	sub	r2, r11, #60	; 0x3c
    37a4:	e8920003 	ldm	r2, {r0, r1}
    37a8:	e8830003 	stm	r3, {r0, r1}
{
	if (step < n) {
		_fft(out, buf, n, step * 2);
		_fft(out + step, buf + step, n, step * 2);
 
		for (int i = 0; i < n; i += 2 * step) {
    37ac:	e51b3034 	ldr	r3, [r11, #-52]	; 0xffffffcc
    37b0:	e1a03083 	lsl	r3, r3, #1
    37b4:	e51b2010 	ldr	r2, [r11, #-16]
    37b8:	e0823003 	add	r3, r2, r3
    37bc:	e50b3010 	str	r3, [r11, #-16]
    37c0:	e51b2010 	ldr	r2, [r11, #-16]
    37c4:	e51b3030 	ldr	r3, [r11, #-48]	; 0xffffffd0
    37c8:	e1520003 	cmp	r2, r3
    37cc:	baffff9a 	blt	363c <_fft+0x88>
			Complex t =multiply(expo,out[i + step]);
			buf[i / 2]     = add(out[i],t);
			buf[(i + n)/2] = sub(out[i],t);
		}
	}
}
    37d0:	e24bd008 	sub	sp, r11, #8
    37d4:	e8bd8810 	pop	{r4, r11, pc}

000037d8 <fft>:
 
void fft(Complex buf[], int n)
{
    37d8:	e92d49f0 	push	{r4, r5, r6, r7, r8, r11, lr}
    37dc:	e28db018 	add	r11, sp, #24
    37e0:	e24dd01c 	sub	sp, sp, #28
    37e4:	e50b0030 	str	r0, [r11, #-48]	; 0xffffffd0
    37e8:	e50b1034 	str	r1, [r11, #-52]	; 0xffffffcc
    37ec:	e1a0300d 	mov	r3, sp
    37f0:	e1a08003 	mov	r8, r3
	Complex out[n];
    37f4:	e51b1034 	ldr	r1, [r11, #-52]	; 0xffffffcc
    37f8:	e2413001 	sub	r3, r1, #1
    37fc:	e50b3024 	str	r3, [r11, #-36]	; 0xffffffdc
    3800:	e1a00001 	mov	r0, r1
    3804:	e1a02000 	mov	r2, r0
    3808:	e3a03000 	mov	r3, #0
    380c:	e1a00d22 	lsr	r0, r2, #26
    3810:	e1a07303 	lsl	r7, r3, #6
    3814:	e1807007 	orr	r7, r0, r7
    3818:	e1a06302 	lsl	r6, r2, #6
    381c:	e1a00001 	mov	r0, r1
    3820:	e1a02000 	mov	r2, r0
    3824:	e3a03000 	mov	r3, #0
    3828:	e1a00d22 	lsr	r0, r2, #26
    382c:	e1a05303 	lsl	r5, r3, #6
    3830:	e1805005 	orr	r5, r0, r5
    3834:	e1a04302 	lsl	r4, r2, #6
    3838:	e1a03001 	mov	r3, r1
    383c:	e1a03183 	lsl	r3, r3, #3
    3840:	e2833003 	add	r3, r3, #3
    3844:	e2833007 	add	r3, r3, #7
    3848:	e1a031a3 	lsr	r3, r3, #3
    384c:	e1a03183 	lsl	r3, r3, #3
    3850:	e04dd003 	sub	sp, sp, r3
    3854:	e1a0300d 	mov	r3, sp
    3858:	e2833003 	add	r3, r3, #3
    385c:	e1a03123 	lsr	r3, r3, #2
    3860:	e1a03103 	lsl	r3, r3, #2
    3864:	e50b3028 	str	r3, [r11, #-40]	; 0xffffffd8
	for (int i = 0; i < n; i++) out[i] = buf[i];
    3868:	e3a03000 	mov	r3, #0
    386c:	e50b3020 	str	r3, [r11, #-32]	; 0xffffffe0
    3870:	ea00000c 	b	38a8 <fft+0xd0>
    3874:	e51b3020 	ldr	r3, [r11, #-32]	; 0xffffffe0
    3878:	e1a03183 	lsl	r3, r3, #3
    387c:	e51b2030 	ldr	r2, [r11, #-48]	; 0xffffffd0
    3880:	e0822003 	add	r2, r2, r3
    3884:	e51b1028 	ldr	r1, [r11, #-40]	; 0xffffffd8
    3888:	e51b3020 	ldr	r3, [r11, #-32]	; 0xffffffe0
    388c:	e1a03183 	lsl	r3, r3, #3
    3890:	e0813003 	add	r3, r1, r3
    3894:	e8920003 	ldm	r2, {r0, r1}
    3898:	e8830003 	stm	r3, {r0, r1}
    389c:	e51b3020 	ldr	r3, [r11, #-32]	; 0xffffffe0
    38a0:	e2833001 	add	r3, r3, #1
    38a4:	e50b3020 	str	r3, [r11, #-32]	; 0xffffffe0
    38a8:	e51b2020 	ldr	r2, [r11, #-32]	; 0xffffffe0
    38ac:	e51b3034 	ldr	r3, [r11, #-52]	; 0xffffffcc
    38b0:	e1520003 	cmp	r2, r3
    38b4:	baffffee 	blt	3874 <fft+0x9c>
 
	_fft(buf, out, n, 1);
    38b8:	e51b3028 	ldr	r3, [r11, #-40]	; 0xffffffd8
    38bc:	e51b0030 	ldr	r0, [r11, #-48]	; 0xffffffd0
    38c0:	e1a01003 	mov	r1, r3
    38c4:	e51b2034 	ldr	r2, [r11, #-52]	; 0xffffffcc
    38c8:	e3a03001 	mov	r3, #1
    38cc:	ebffff38 	bl	35b4 <_fft>
    38d0:	e1a0d008 	mov	sp, r8
    38d4:	e24bd018 	sub	sp, r11, #24
    38d8:	e8bd89f0 	pop	{r4, r5, r6, r7, r8, r11, pc}

000038dc <cosf>:
    38dc:	e52de004 	push	{lr}		; (str lr, [sp, #-4]!)
    38e0:	e59f2090 	ldr	r2, [pc, #144]	; 3978 <cosf+0x9c>
    38e4:	e3c03102 	bic	r3, r0, #-2147483648	; 0x80000000
    38e8:	e1530002 	cmp	r3, r2
    38ec:	e24dd00c 	sub	sp, sp, #12
    38f0:	e1a01000 	mov	r1, r0
    38f4:	da000013 	ble	3948 <cosf+0x6c>
    38f8:	e59f207c 	ldr	r2, [pc, #124]	; 397c <cosf+0xa0>
    38fc:	e1530002 	cmp	r3, r2
    3900:	da000003 	ble	3914 <cosf+0x38>
    3904:	eb0005b0 	bl	4fcc <__aeabi_fsub>
    3908:	e28dd00c 	add	sp, sp, #12
    390c:	e49de004 	pop	{lr}		; (ldr lr, [sp], #4)
    3910:	e12fff1e 	bx	lr
    3914:	e1a0100d 	mov	r1, sp
    3918:	eb000047 	bl	3a3c <__ieee754_rem_pio2f>
    391c:	e2002003 	and	r2, r0, #3
    3920:	e3520001 	cmp	r2, #1
    3924:	e59d0000 	ldr	r0, [sp]
    3928:	e59d1004 	ldr	r1, [sp, #4]
    392c:	0a00000b 	beq	3960 <cosf+0x84>
    3930:	e3520002 	cmp	r2, #2
    3934:	0a000006 	beq	3954 <cosf+0x78>
    3938:	e3520000 	cmp	r2, #0
    393c:	1a00000a 	bne	396c <cosf+0x90>
    3940:	eb000155 	bl	3e9c <__kernel_cosf>
    3944:	eaffffef 	b	3908 <cosf+0x2c>
    3948:	e3a01000 	mov	r1, #0
    394c:	eb000152 	bl	3e9c <__kernel_cosf>
    3950:	eaffffec 	b	3908 <cosf+0x2c>
    3954:	eb000150 	bl	3e9c <__kernel_cosf>
    3958:	e2800102 	add	r0, r0, #-2147483648	; 0x80000000
    395c:	eaffffe9 	b	3908 <cosf+0x2c>
    3960:	eb00042a 	bl	4a10 <__kernel_sinf>
    3964:	e2800102 	add	r0, r0, #-2147483648	; 0x80000000
    3968:	eaffffe6 	b	3908 <cosf+0x2c>
    396c:	e3a02001 	mov	r2, #1
    3970:	eb000426 	bl	4a10 <__kernel_sinf>
    3974:	eaffffe3 	b	3908 <cosf+0x2c>
    3978:	3f490fd8 	.word	0x3f490fd8
    397c:	7f7fffff 	.word	0x7f7fffff

00003980 <sinf>:
    3980:	e52de004 	push	{lr}		; (str lr, [sp, #-4]!)
    3984:	e59f20a8 	ldr	r2, [pc, #168]	; 3a34 <sinf+0xb4>
    3988:	e3c03102 	bic	r3, r0, #-2147483648	; 0x80000000
    398c:	e1530002 	cmp	r3, r2
    3990:	e24dd00c 	sub	sp, sp, #12
    3994:	e1a01000 	mov	r1, r0
    3998:	da000014 	ble	39f0 <sinf+0x70>
    399c:	e59f2094 	ldr	r2, [pc, #148]	; 3a38 <sinf+0xb8>
    39a0:	e1530002 	cmp	r3, r2
    39a4:	da000003 	ble	39b8 <sinf+0x38>
    39a8:	eb000587 	bl	4fcc <__aeabi_fsub>
    39ac:	e28dd00c 	add	sp, sp, #12
    39b0:	e49de004 	pop	{lr}		; (ldr lr, [sp], #4)
    39b4:	e12fff1e 	bx	lr
    39b8:	e1a0100d 	mov	r1, sp
    39bc:	eb00001e 	bl	3a3c <__ieee754_rem_pio2f>
    39c0:	e2000003 	and	r0, r0, #3
    39c4:	e3500001 	cmp	r0, #1
    39c8:	0a000012 	beq	3a18 <sinf+0x98>
    39cc:	e3500002 	cmp	r0, #2
    39d0:	0a00000a 	beq	3a00 <sinf+0x80>
    39d4:	e3500000 	cmp	r0, #0
    39d8:	e59d1004 	ldr	r1, [sp, #4]
    39dc:	e59d0000 	ldr	r0, [sp]
    39e0:	1a000010 	bne	3a28 <sinf+0xa8>
    39e4:	e3a02001 	mov	r2, #1
    39e8:	eb000408 	bl	4a10 <__kernel_sinf>
    39ec:	eaffffee 	b	39ac <sinf+0x2c>
    39f0:	e3a01000 	mov	r1, #0
    39f4:	e3a02000 	mov	r2, #0
    39f8:	eb000404 	bl	4a10 <__kernel_sinf>
    39fc:	eaffffea 	b	39ac <sinf+0x2c>
    3a00:	e59d0000 	ldr	r0, [sp]
    3a04:	e59d1004 	ldr	r1, [sp, #4]
    3a08:	e3a02001 	mov	r2, #1
    3a0c:	eb0003ff 	bl	4a10 <__kernel_sinf>
    3a10:	e2800102 	add	r0, r0, #-2147483648	; 0x80000000
    3a14:	eaffffe4 	b	39ac <sinf+0x2c>
    3a18:	e59d0000 	ldr	r0, [sp]
    3a1c:	e59d1004 	ldr	r1, [sp, #4]
    3a20:	eb00011d 	bl	3e9c <__kernel_cosf>
    3a24:	eaffffe0 	b	39ac <sinf+0x2c>
    3a28:	eb00011b 	bl	3e9c <__kernel_cosf>
    3a2c:	e2800102 	add	r0, r0, #-2147483648	; 0x80000000
    3a30:	eaffffdd 	b	39ac <sinf+0x2c>
    3a34:	3f490fd8 	.word	0x3f490fd8
    3a38:	7f7fffff 	.word	0x7f7fffff

00003a3c <__ieee754_rem_pio2f>:
    3a3c:	e92d4ff0 	push	{r4, r5, r6, r7, r8, r9, r10, r11, lr}
    3a40:	e59f2418 	ldr	r2, [pc, #1048]	; 3e60 <__ieee754_rem_pio2f+0x424>
    3a44:	e3c04102 	bic	r4, r0, #-2147483648	; 0x80000000
    3a48:	e1540002 	cmp	r4, r2
    3a4c:	e24dd024 	sub	sp, sp, #36	; 0x24
    3a50:	e1a06000 	mov	r6, r0
    3a54:	e1a05001 	mov	r5, r1
    3a58:	da000043 	ble	3b6c <__ieee754_rem_pio2f+0x130>
    3a5c:	e59f2400 	ldr	r2, [pc, #1024]	; 3e64 <__ieee754_rem_pio2f+0x428>
    3a60:	e1540002 	cmp	r4, r2
    3a64:	ca000013 	bgt	3ab8 <__ieee754_rem_pio2f+0x7c>
    3a68:	e3500000 	cmp	r0, #0
    3a6c:	e59f13f4 	ldr	r1, [pc, #1012]	; 3e68 <__ieee754_rem_pio2f+0x42c>
    3a70:	da0000db 	ble	3de4 <__ieee754_rem_pio2f+0x3a8>
    3a74:	eb000554 	bl	4fcc <__aeabi_fsub>
    3a78:	e59f33ec 	ldr	r3, [pc, #1004]	; 3e6c <__ieee754_rem_pio2f+0x430>
    3a7c:	e3c6613e 	bic	r6, r6, #-2147483633	; 0x8000000f
    3a80:	e1560003 	cmp	r6, r3
    3a84:	e1a04000 	mov	r4, r0
    3a88:	0a000045 	beq	3ba4 <__ieee754_rem_pio2f+0x168>
    3a8c:	e59f13dc 	ldr	r1, [pc, #988]	; 3e70 <__ieee754_rem_pio2f+0x434>
    3a90:	eb00054d 	bl	4fcc <__aeabi_fsub>
    3a94:	e1a01000 	mov	r1, r0
    3a98:	e5850000 	str	r0, [r5]
    3a9c:	e1a00004 	mov	r0, r4
    3aa0:	eb000549 	bl	4fcc <__aeabi_fsub>
    3aa4:	e59f13c4 	ldr	r1, [pc, #964]	; 3e70 <__ieee754_rem_pio2f+0x434>
    3aa8:	eb000547 	bl	4fcc <__aeabi_fsub>
    3aac:	e3a07001 	mov	r7, #1
    3ab0:	e5850004 	str	r0, [r5, #4]
    3ab4:	ea000030 	b	3b7c <__ieee754_rem_pio2f+0x140>
    3ab8:	e59f23b4 	ldr	r2, [pc, #948]	; 3e74 <__ieee754_rem_pio2f+0x438>
    3abc:	e1540002 	cmp	r4, r2
    3ac0:	da000058 	ble	3c28 <__ieee754_rem_pio2f+0x1ec>
    3ac4:	e59f23ac 	ldr	r2, [pc, #940]	; 3e78 <__ieee754_rem_pio2f+0x43c>
    3ac8:	e1540002 	cmp	r4, r2
    3acc:	ca00002e 	bgt	3b8c <__ieee754_rem_pio2f+0x150>
    3ad0:	e1a0abc4 	asr	r10, r4, #23
    3ad4:	e24aa086 	sub	r10, r10, #134	; 0x86
    3ad8:	e0444b8a 	sub	r4, r4, r10, lsl #23
    3adc:	e1a00004 	mov	r0, r4
    3ae0:	eb0006e5 	bl	567c <__aeabi_f2iz>
    3ae4:	eb0005aa 	bl	5194 <__aeabi_i2f>
    3ae8:	e1a03000 	mov	r3, r0
    3aec:	e1a01000 	mov	r1, r0
    3af0:	e1a00004 	mov	r0, r4
    3af4:	e58d3014 	str	r3, [sp, #20]
    3af8:	eb000533 	bl	4fcc <__aeabi_fsub>
    3afc:	e59f1378 	ldr	r1, [pc, #888]	; 3e7c <__ieee754_rem_pio2f+0x440>
    3b00:	eb0005da 	bl	5270 <__aeabi_fmul>
    3b04:	e1a07000 	mov	r7, r0
    3b08:	eb0006db 	bl	567c <__aeabi_f2iz>
    3b0c:	eb0005a0 	bl	5194 <__aeabi_i2f>
    3b10:	e1a01000 	mov	r1, r0
    3b14:	e1a04000 	mov	r4, r0
    3b18:	e1a00007 	mov	r0, r7
    3b1c:	e58d4018 	str	r4, [sp, #24]
    3b20:	eb000529 	bl	4fcc <__aeabi_fsub>
    3b24:	e59f1350 	ldr	r1, [pc, #848]	; 3e7c <__ieee754_rem_pio2f+0x440>
    3b28:	eb0005d0 	bl	5270 <__aeabi_fmul>
    3b2c:	e3a01000 	mov	r1, #0
    3b30:	e58d001c 	str	r0, [sp, #28]
    3b34:	eb0006b2 	bl	5604 <__aeabi_fcmpeq>
    3b38:	e3500000 	cmp	r0, #0
    3b3c:	03a07003 	moveq	r7, #3
    3b40:	0a000025 	beq	3bdc <__ieee754_rem_pio2f+0x1a0>
    3b44:	e28d8018 	add	r8, sp, #24
    3b48:	e3a07003 	mov	r7, #3
    3b4c:	e1a00004 	mov	r0, r4
    3b50:	e3a01000 	mov	r1, #0
    3b54:	eb0006aa 	bl	5604 <__aeabi_fcmpeq>
    3b58:	e3500000 	cmp	r0, #0
    3b5c:	e2477001 	sub	r7, r7, #1
    3b60:	0a00001d 	beq	3bdc <__ieee754_rem_pio2f+0x1a0>
    3b64:	e5384004 	ldr	r4, [r8, #-4]!
    3b68:	eafffff7 	b	3b4c <__ieee754_rem_pio2f+0x110>
    3b6c:	e3a03000 	mov	r3, #0
    3b70:	e5850000 	str	r0, [r5]
    3b74:	e5813004 	str	r3, [r1, #4]
    3b78:	e3a07000 	mov	r7, #0
    3b7c:	e1a00007 	mov	r0, r7
    3b80:	e28dd024 	add	sp, sp, #36	; 0x24
    3b84:	e8bd4ff0 	pop	{r4, r5, r6, r7, r8, r9, r10, r11, lr}
    3b88:	e12fff1e 	bx	lr
    3b8c:	e1a01000 	mov	r1, r0
    3b90:	eb00050d 	bl	4fcc <__aeabi_fsub>
    3b94:	e3a07000 	mov	r7, #0
    3b98:	e5850004 	str	r0, [r5, #4]
    3b9c:	e5850000 	str	r0, [r5]
    3ba0:	eafffff5 	b	3b7c <__ieee754_rem_pio2f+0x140>
    3ba4:	e59f12d4 	ldr	r1, [pc, #724]	; 3e80 <__ieee754_rem_pio2f+0x444>
    3ba8:	eb000507 	bl	4fcc <__aeabi_fsub>
    3bac:	e59f12d0 	ldr	r1, [pc, #720]	; 3e84 <__ieee754_rem_pio2f+0x448>
    3bb0:	e1a04000 	mov	r4, r0
    3bb4:	eb000504 	bl	4fcc <__aeabi_fsub>
    3bb8:	e1a01000 	mov	r1, r0
    3bbc:	e5850000 	str	r0, [r5]
    3bc0:	e1a00004 	mov	r0, r4
    3bc4:	eb000500 	bl	4fcc <__aeabi_fsub>
    3bc8:	e59f12b4 	ldr	r1, [pc, #692]	; 3e84 <__ieee754_rem_pio2f+0x448>
    3bcc:	eb0004fe 	bl	4fcc <__aeabi_fsub>
    3bd0:	e3a07001 	mov	r7, #1
    3bd4:	e5850004 	str	r0, [r5, #4]
    3bd8:	eaffffe7 	b	3b7c <__ieee754_rem_pio2f+0x140>
    3bdc:	e3a03002 	mov	r3, #2
    3be0:	e58d3000 	str	r3, [sp]
    3be4:	e59f329c 	ldr	r3, [pc, #668]	; 3e88 <__ieee754_rem_pio2f+0x44c>
    3be8:	e28d0014 	add	r0, sp, #20
    3bec:	e58d3004 	str	r3, [sp, #4]
    3bf0:	e1a01005 	mov	r1, r5
    3bf4:	e1a03007 	mov	r3, r7
    3bf8:	e1a0200a 	mov	r2, r10
    3bfc:	eb00012b 	bl	40b0 <__kernel_rem_pio2f>
    3c00:	e3560000 	cmp	r6, #0
    3c04:	e1a07000 	mov	r7, r0
    3c08:	aaffffdb 	bge	3b7c <__ieee754_rem_pio2f+0x140>
    3c0c:	e895000c 	ldm	r5, {r2, r3}
    3c10:	e2822102 	add	r2, r2, #-2147483648	; 0x80000000
    3c14:	e2833102 	add	r3, r3, #-2147483648	; 0x80000000
    3c18:	e5852000 	str	r2, [r5]
    3c1c:	e5853004 	str	r3, [r5, #4]
    3c20:	e2607000 	rsb	r7, r0, #0
    3c24:	eaffffd4 	b	3b7c <__ieee754_rem_pio2f+0x140>
    3c28:	eb0003cb 	bl	4b5c <fabsf>
    3c2c:	e59f1258 	ldr	r1, [pc, #600]	; 3e8c <__ieee754_rem_pio2f+0x450>
    3c30:	e1a08000 	mov	r8, r0
    3c34:	eb00058d 	bl	5270 <__aeabi_fmul>
    3c38:	e3a0143f 	mov	r1, #1056964608	; 0x3f000000
    3c3c:	eb0004e3 	bl	4fd0 <__addsf3>
    3c40:	eb00068d 	bl	567c <__aeabi_f2iz>
    3c44:	e1a07000 	mov	r7, r0
    3c48:	eb000551 	bl	5194 <__aeabi_i2f>
    3c4c:	e59f1214 	ldr	r1, [pc, #532]	; 3e68 <__ieee754_rem_pio2f+0x42c>
    3c50:	e1a0b000 	mov	r11, r0
    3c54:	eb000585 	bl	5270 <__aeabi_fmul>
    3c58:	e1a01000 	mov	r1, r0
    3c5c:	e1a00008 	mov	r0, r8
    3c60:	eb0004d9 	bl	4fcc <__aeabi_fsub>
    3c64:	e59f1204 	ldr	r1, [pc, #516]	; 3e70 <__ieee754_rem_pio2f+0x434>
    3c68:	e1a0a000 	mov	r10, r0
    3c6c:	e1a0000b 	mov	r0, r11
    3c70:	eb00057e 	bl	5270 <__aeabi_fmul>
    3c74:	e357001f 	cmp	r7, #31
    3c78:	e1a09000 	mov	r9, r0
    3c7c:	e1a01009 	mov	r1, r9
    3c80:	e1a0000a 	mov	r0, r10
    3c84:	ca000016 	bgt	3ce4 <__ieee754_rem_pio2f+0x2a8>
    3c88:	e59f3200 	ldr	r3, [pc, #512]	; 3e90 <__ieee754_rem_pio2f+0x454>
    3c8c:	e2472001 	sub	r2, r7, #1
    3c90:	e7933102 	ldr	r3, [r3, r2, lsl #2]
    3c94:	e3c420ff 	bic	r2, r4, #255	; 0xff
    3c98:	e1520003 	cmp	r2, r3
    3c9c:	0a000010 	beq	3ce4 <__ieee754_rem_pio2f+0x2a8>
    3ca0:	eb0004c9 	bl	4fcc <__aeabi_fsub>
    3ca4:	e1a08000 	mov	r8, r0
    3ca8:	e5858000 	str	r8, [r5]
    3cac:	e1a01008 	mov	r1, r8
    3cb0:	e1a0000a 	mov	r0, r10
    3cb4:	eb0004c4 	bl	4fcc <__aeabi_fsub>
    3cb8:	e1a01009 	mov	r1, r9
    3cbc:	eb0004c2 	bl	4fcc <__aeabi_fsub>
    3cc0:	e3560000 	cmp	r6, #0
    3cc4:	e5850004 	str	r0, [r5, #4]
    3cc8:	aaffffab 	bge	3b7c <__ieee754_rem_pio2f+0x140>
    3ccc:	e2888102 	add	r8, r8, #-2147483648	; 0x80000000
    3cd0:	e2800102 	add	r0, r0, #-2147483648	; 0x80000000
    3cd4:	e5858000 	str	r8, [r5]
    3cd8:	e5850004 	str	r0, [r5, #4]
    3cdc:	e2677000 	rsb	r7, r7, #0
    3ce0:	eaffffa5 	b	3b7c <__ieee754_rem_pio2f+0x140>
    3ce4:	eb0004b8 	bl	4fcc <__aeabi_fsub>
    3ce8:	e1a02ba0 	lsr	r2, r0, #23
    3cec:	e1a03bc4 	asr	r3, r4, #23
    3cf0:	e20220ff 	and	r2, r2, #255	; 0xff
    3cf4:	e0622003 	rsb	r2, r2, r3
    3cf8:	e3520008 	cmp	r2, #8
    3cfc:	e1a08000 	mov	r8, r0
    3d00:	daffffe8 	ble	3ca8 <__ieee754_rem_pio2f+0x26c>
    3d04:	e59f1174 	ldr	r1, [pc, #372]	; 3e80 <__ieee754_rem_pio2f+0x444>
    3d08:	e1a0000b 	mov	r0, r11
    3d0c:	e58d300c 	str	r3, [sp, #12]
    3d10:	eb000556 	bl	5270 <__aeabi_fmul>
    3d14:	e1a08000 	mov	r8, r0
    3d18:	e1a01008 	mov	r1, r8
    3d1c:	e1a0000a 	mov	r0, r10
    3d20:	eb0004a9 	bl	4fcc <__aeabi_fsub>
    3d24:	e1a04000 	mov	r4, r0
    3d28:	e1a01004 	mov	r1, r4
    3d2c:	e1a0000a 	mov	r0, r10
    3d30:	eb0004a5 	bl	4fcc <__aeabi_fsub>
    3d34:	e1a01008 	mov	r1, r8
    3d38:	eb0004a3 	bl	4fcc <__aeabi_fsub>
    3d3c:	e59f1140 	ldr	r1, [pc, #320]	; 3e84 <__ieee754_rem_pio2f+0x448>
    3d40:	e1a08000 	mov	r8, r0
    3d44:	e1a0000b 	mov	r0, r11
    3d48:	eb000548 	bl	5270 <__aeabi_fmul>
    3d4c:	e1a01008 	mov	r1, r8
    3d50:	eb00049d 	bl	4fcc <__aeabi_fsub>
    3d54:	e1a09000 	mov	r9, r0
    3d58:	e1a01009 	mov	r1, r9
    3d5c:	e1a00004 	mov	r0, r4
    3d60:	eb000499 	bl	4fcc <__aeabi_fsub>
    3d64:	e59d300c 	ldr	r3, [sp, #12]
    3d68:	e1a02ba0 	lsr	r2, r0, #23
    3d6c:	e20220ff 	and	r2, r2, #255	; 0xff
    3d70:	e0623003 	rsb	r3, r2, r3
    3d74:	e3530019 	cmp	r3, #25
    3d78:	e1a08000 	mov	r8, r0
    3d7c:	d5850000 	strle	r0, [r5]
    3d80:	d1a0a004 	movle	r10, r4
    3d84:	daffffc8 	ble	3cac <__ieee754_rem_pio2f+0x270>
    3d88:	e59f1104 	ldr	r1, [pc, #260]	; 3e94 <__ieee754_rem_pio2f+0x458>
    3d8c:	e1a0000b 	mov	r0, r11
    3d90:	eb000536 	bl	5270 <__aeabi_fmul>
    3d94:	e1a08000 	mov	r8, r0
    3d98:	e1a01008 	mov	r1, r8
    3d9c:	e1a00004 	mov	r0, r4
    3da0:	eb000489 	bl	4fcc <__aeabi_fsub>
    3da4:	e1a0a000 	mov	r10, r0
    3da8:	e1a0100a 	mov	r1, r10
    3dac:	e1a00004 	mov	r0, r4
    3db0:	eb000485 	bl	4fcc <__aeabi_fsub>
    3db4:	e1a01008 	mov	r1, r8
    3db8:	eb000483 	bl	4fcc <__aeabi_fsub>
    3dbc:	e59f10d4 	ldr	r1, [pc, #212]	; 3e98 <__ieee754_rem_pio2f+0x45c>
    3dc0:	e1a04000 	mov	r4, r0
    3dc4:	e1a0000b 	mov	r0, r11
    3dc8:	eb000528 	bl	5270 <__aeabi_fmul>
    3dcc:	e1a01004 	mov	r1, r4
    3dd0:	eb00047d 	bl	4fcc <__aeabi_fsub>
    3dd4:	e1a09000 	mov	r9, r0
    3dd8:	e1a01009 	mov	r1, r9
    3ddc:	e1a0000a 	mov	r0, r10
    3de0:	eaffffae 	b	3ca0 <__ieee754_rem_pio2f+0x264>
    3de4:	eb000479 	bl	4fd0 <__addsf3>
    3de8:	e59f307c 	ldr	r3, [pc, #124]	; 3e6c <__ieee754_rem_pio2f+0x430>
    3dec:	e3c6613e 	bic	r6, r6, #-2147483633	; 0x8000000f
    3df0:	e1560003 	cmp	r6, r3
    3df4:	e1a04000 	mov	r4, r0
    3df8:	0a00000a 	beq	3e28 <__ieee754_rem_pio2f+0x3ec>
    3dfc:	e59f106c 	ldr	r1, [pc, #108]	; 3e70 <__ieee754_rem_pio2f+0x434>
    3e00:	eb000472 	bl	4fd0 <__addsf3>
    3e04:	e1a01000 	mov	r1, r0
    3e08:	e5850000 	str	r0, [r5]
    3e0c:	e1a00004 	mov	r0, r4
    3e10:	eb00046d 	bl	4fcc <__aeabi_fsub>
    3e14:	e59f1054 	ldr	r1, [pc, #84]	; 3e70 <__ieee754_rem_pio2f+0x434>
    3e18:	eb00046c 	bl	4fd0 <__addsf3>
    3e1c:	e3e07000 	mvn	r7, #0
    3e20:	e5850004 	str	r0, [r5, #4]
    3e24:	eaffff54 	b	3b7c <__ieee754_rem_pio2f+0x140>
    3e28:	e59f1050 	ldr	r1, [pc, #80]	; 3e80 <__ieee754_rem_pio2f+0x444>
    3e2c:	eb000467 	bl	4fd0 <__addsf3>
    3e30:	e59f104c 	ldr	r1, [pc, #76]	; 3e84 <__ieee754_rem_pio2f+0x448>
    3e34:	e1a04000 	mov	r4, r0
    3e38:	eb000464 	bl	4fd0 <__addsf3>
    3e3c:	e1a01000 	mov	r1, r0
    3e40:	e5850000 	str	r0, [r5]
    3e44:	e1a00004 	mov	r0, r4
    3e48:	eb00045f 	bl	4fcc <__aeabi_fsub>
    3e4c:	e59f1030 	ldr	r1, [pc, #48]	; 3e84 <__ieee754_rem_pio2f+0x448>
    3e50:	eb00045e 	bl	4fd0 <__addsf3>
    3e54:	e3e07000 	mvn	r7, #0
    3e58:	e5850004 	str	r0, [r5, #4]
    3e5c:	eaffff46 	b	3b7c <__ieee754_rem_pio2f+0x140>
    3e60:	3f490fd8 	.word	0x3f490fd8
    3e64:	4016cbe3 	.word	0x4016cbe3
    3e68:	3fc90f80 	.word	0x3fc90f80
    3e6c:	3fc90fd0 	.word	0x3fc90fd0
    3e70:	37354443 	.word	0x37354443
    3e74:	43490f80 	.word	0x43490f80
    3e78:	7f7fffff 	.word	0x7f7fffff
    3e7c:	43800000 	.word	0x43800000
    3e80:	37354400 	.word	0x37354400
    3e84:	2e85a308 	.word	0x2e85a308
    3e88:	00007fa8 	.word	0x00007fa8
    3e8c:	3f22f984 	.word	0x3f22f984
    3e90:	00007f28 	.word	0x00007f28
    3e94:	2e85a300 	.word	0x2e85a300
    3e98:	248d3132 	.word	0x248d3132

00003e9c <__kernel_cosf>:
    3e9c:	e92d45f8 	push	{r3, r4, r5, r6, r7, r8, r10, lr}
    3ea0:	e3c06102 	bic	r6, r0, #-2147483648	; 0x80000000
    3ea4:	e3560432 	cmp	r6, #838860800	; 0x32000000
    3ea8:	e1a05000 	mov	r5, r0
    3eac:	e1a07001 	mov	r7, r1
    3eb0:	aa000032 	bge	3f80 <__kernel_cosf+0xe4>
    3eb4:	eb0005f0 	bl	567c <__aeabi_f2iz>
    3eb8:	e3500000 	cmp	r0, #0
    3ebc:	0a00006f 	beq	4080 <__kernel_cosf+0x1e4>
    3ec0:	e1a01005 	mov	r1, r5
    3ec4:	e1a00005 	mov	r0, r5
    3ec8:	eb0004e8 	bl	5270 <__aeabi_fmul>
    3ecc:	e59f11b4 	ldr	r1, [pc, #436]	; 4088 <__kernel_cosf+0x1ec>
    3ed0:	e1a04000 	mov	r4, r0
    3ed4:	eb0004e5 	bl	5270 <__aeabi_fmul>
    3ed8:	e59f11ac 	ldr	r1, [pc, #428]	; 408c <__kernel_cosf+0x1f0>
    3edc:	eb00043b 	bl	4fd0 <__addsf3>
    3ee0:	e1a01004 	mov	r1, r4
    3ee4:	eb0004e1 	bl	5270 <__aeabi_fmul>
    3ee8:	e59f11a0 	ldr	r1, [pc, #416]	; 4090 <__kernel_cosf+0x1f4>
    3eec:	eb000436 	bl	4fcc <__aeabi_fsub>
    3ef0:	e1a01004 	mov	r1, r4
    3ef4:	eb0004dd 	bl	5270 <__aeabi_fmul>
    3ef8:	e59f1194 	ldr	r1, [pc, #404]	; 4094 <__kernel_cosf+0x1f8>
    3efc:	eb000433 	bl	4fd0 <__addsf3>
    3f00:	e1a01004 	mov	r1, r4
    3f04:	eb0004d9 	bl	5270 <__aeabi_fmul>
    3f08:	e59f1188 	ldr	r1, [pc, #392]	; 4098 <__kernel_cosf+0x1fc>
    3f0c:	eb00042e 	bl	4fcc <__aeabi_fsub>
    3f10:	e1a01004 	mov	r1, r4
    3f14:	eb0004d5 	bl	5270 <__aeabi_fmul>
    3f18:	e59f117c 	ldr	r1, [pc, #380]	; 409c <__kernel_cosf+0x200>
    3f1c:	eb00042b 	bl	4fd0 <__addsf3>
    3f20:	e1a01004 	mov	r1, r4
    3f24:	eb0004d1 	bl	5270 <__aeabi_fmul>
    3f28:	e1a08000 	mov	r8, r0
    3f2c:	e1a00004 	mov	r0, r4
    3f30:	e3a0143f 	mov	r1, #1056964608	; 0x3f000000
    3f34:	eb0004cd 	bl	5270 <__aeabi_fmul>
    3f38:	e1a01008 	mov	r1, r8
    3f3c:	e1a06000 	mov	r6, r0
    3f40:	e1a00004 	mov	r0, r4
    3f44:	eb0004c9 	bl	5270 <__aeabi_fmul>
    3f48:	e1a01007 	mov	r1, r7
    3f4c:	e1a04000 	mov	r4, r0
    3f50:	e1a00005 	mov	r0, r5
    3f54:	eb0004c5 	bl	5270 <__aeabi_fmul>
    3f58:	e1a01000 	mov	r1, r0
    3f5c:	e1a00004 	mov	r0, r4
    3f60:	eb000419 	bl	4fcc <__aeabi_fsub>
    3f64:	e1a01000 	mov	r1, r0
    3f68:	e1a00006 	mov	r0, r6
    3f6c:	eb000416 	bl	4fcc <__aeabi_fsub>
    3f70:	e1a01000 	mov	r1, r0
    3f74:	e3a005fe 	mov	r0, #1065353216	; 0x3f800000
    3f78:	eb000413 	bl	4fcc <__aeabi_fsub>
    3f7c:	ea00003a 	b	406c <__kernel_cosf+0x1d0>
    3f80:	e1a01000 	mov	r1, r0
    3f84:	eb0004b9 	bl	5270 <__aeabi_fmul>
    3f88:	e59f10f8 	ldr	r1, [pc, #248]	; 4088 <__kernel_cosf+0x1ec>
    3f8c:	e1a04000 	mov	r4, r0
    3f90:	eb0004b6 	bl	5270 <__aeabi_fmul>
    3f94:	e59f10f0 	ldr	r1, [pc, #240]	; 408c <__kernel_cosf+0x1f0>
    3f98:	eb00040c 	bl	4fd0 <__addsf3>
    3f9c:	e1a01004 	mov	r1, r4
    3fa0:	eb0004b2 	bl	5270 <__aeabi_fmul>
    3fa4:	e59f10e4 	ldr	r1, [pc, #228]	; 4090 <__kernel_cosf+0x1f4>
    3fa8:	eb000407 	bl	4fcc <__aeabi_fsub>
    3fac:	e1a01004 	mov	r1, r4
    3fb0:	eb0004ae 	bl	5270 <__aeabi_fmul>
    3fb4:	e59f10d8 	ldr	r1, [pc, #216]	; 4094 <__kernel_cosf+0x1f8>
    3fb8:	eb000404 	bl	4fd0 <__addsf3>
    3fbc:	e1a01004 	mov	r1, r4
    3fc0:	eb0004aa 	bl	5270 <__aeabi_fmul>
    3fc4:	e59f10cc 	ldr	r1, [pc, #204]	; 4098 <__kernel_cosf+0x1fc>
    3fc8:	eb0003ff 	bl	4fcc <__aeabi_fsub>
    3fcc:	e1a01004 	mov	r1, r4
    3fd0:	eb0004a6 	bl	5270 <__aeabi_fmul>
    3fd4:	e59f10c0 	ldr	r1, [pc, #192]	; 409c <__kernel_cosf+0x200>
    3fd8:	eb0003fc 	bl	4fd0 <__addsf3>
    3fdc:	e1a01004 	mov	r1, r4
    3fe0:	eb0004a2 	bl	5270 <__aeabi_fmul>
    3fe4:	e59f30b4 	ldr	r3, [pc, #180]	; 40a0 <__kernel_cosf+0x204>
    3fe8:	e1560003 	cmp	r6, r3
    3fec:	e1a08000 	mov	r8, r0
    3ff0:	daffffcd 	ble	3f2c <__kernel_cosf+0x90>
    3ff4:	e59f30a8 	ldr	r3, [pc, #168]	; 40a4 <__kernel_cosf+0x208>
    3ff8:	e1560003 	cmp	r6, r3
    3ffc:	ca00001c 	bgt	4074 <__kernel_cosf+0x1d8>
    4000:	e28664ff 	add	r6, r6, #-16777216	; 0xff000000
    4004:	e3a005fe 	mov	r0, #1065353216	; 0x3f800000
    4008:	e1a01006 	mov	r1, r6
    400c:	eb0003ee 	bl	4fcc <__aeabi_fsub>
    4010:	e1a0a000 	mov	r10, r0
    4014:	e1a00004 	mov	r0, r4
    4018:	e3a0143f 	mov	r1, #1056964608	; 0x3f000000
    401c:	eb000493 	bl	5270 <__aeabi_fmul>
    4020:	e1a01006 	mov	r1, r6
    4024:	eb0003e8 	bl	4fcc <__aeabi_fsub>
    4028:	e1a01008 	mov	r1, r8
    402c:	e1a06000 	mov	r6, r0
    4030:	e1a00004 	mov	r0, r4
    4034:	eb00048d 	bl	5270 <__aeabi_fmul>
    4038:	e1a01007 	mov	r1, r7
    403c:	e1a04000 	mov	r4, r0
    4040:	e1a00005 	mov	r0, r5
    4044:	eb000489 	bl	5270 <__aeabi_fmul>
    4048:	e1a01000 	mov	r1, r0
    404c:	e1a00004 	mov	r0, r4
    4050:	eb0003dd 	bl	4fcc <__aeabi_fsub>
    4054:	e1a01000 	mov	r1, r0
    4058:	e1a00006 	mov	r0, r6
    405c:	eb0003da 	bl	4fcc <__aeabi_fsub>
    4060:	e1a01000 	mov	r1, r0
    4064:	e1a0000a 	mov	r0, r10
    4068:	eb0003d7 	bl	4fcc <__aeabi_fsub>
    406c:	e8bd45f8 	pop	{r3, r4, r5, r6, r7, r8, r10, lr}
    4070:	e12fff1e 	bx	lr
    4074:	e59fa02c 	ldr	r10, [pc, #44]	; 40a8 <__kernel_cosf+0x20c>
    4078:	e59f602c 	ldr	r6, [pc, #44]	; 40ac <__kernel_cosf+0x210>
    407c:	eaffffe4 	b	4014 <__kernel_cosf+0x178>
    4080:	e3a005fe 	mov	r0, #1065353216	; 0x3f800000
    4084:	eafffff8 	b	406c <__kernel_cosf+0x1d0>
    4088:	ad47d74e 	.word	0xad47d74e
    408c:	310f74f6 	.word	0x310f74f6
    4090:	3493f27c 	.word	0x3493f27c
    4094:	37d00d01 	.word	0x37d00d01
    4098:	3ab60b61 	.word	0x3ab60b61
    409c:	3d2aaaab 	.word	0x3d2aaaab
    40a0:	3e999999 	.word	0x3e999999
    40a4:	3f480000 	.word	0x3f480000
    40a8:	3f380000 	.word	0x3f380000
    40ac:	3e900000 	.word	0x3e900000

000040b0 <__kernel_rem_pio2f>:
    40b0:	e92d4ff0 	push	{r4, r5, r6, r7, r8, r9, r10, r11, lr}
    40b4:	e24ddf5f 	sub	sp, sp, #380	; 0x17c
    40b8:	e58d302c 	str	r3, [sp, #44]	; 0x2c
    40bc:	e59d41a0 	ldr	r4, [sp, #416]	; 0x1a0
    40c0:	e59f393c 	ldr	r3, [pc, #2364]	; 4a04 <__kernel_rem_pio2f+0x954>
    40c4:	e7933104 	ldr	r3, [r3, r4, lsl #2]
    40c8:	e252c003 	subs	r12, r2, #3
    40cc:	4282c004 	addmi	r12, r2, #4
    40d0:	e58d3020 	str	r3, [sp, #32]
    40d4:	e59d302c 	ldr	r3, [sp, #44]	; 0x2c
    40d8:	e1a0c1cc 	asr	r12, r12, #3
    40dc:	e2433001 	sub	r3, r3, #1
    40e0:	e1cccfcc 	bic	r12, r12, r12, asr #31
    40e4:	e59d4020 	ldr	r4, [sp, #32]
    40e8:	e58d300c 	str	r3, [sp, #12]
    40ec:	e58dc030 	str	r12, [sp, #48]	; 0x30
    40f0:	e1e0c00c 	mvn	r12, r12
    40f4:	e082c18c 	add	r12, r2, r12, lsl #3
    40f8:	e0933004 	adds	r3, r3, r4
    40fc:	e59d2030 	ldr	r2, [sp, #48]	; 0x30
    4100:	e59d400c 	ldr	r4, [sp, #12]
    4104:	e1a06000 	mov	r6, r0
    4108:	e58d1024 	str	r1, [sp, #36]	; 0x24
    410c:	e58dc01c 	str	r12, [sp, #28]
    4110:	e0647002 	rsb	r7, r4, r2
    4114:	4a00000e 	bmi	4154 <__kernel_rem_pio2f+0xa4>
    4118:	e59d41a4 	ldr	r4, [sp, #420]	; 0x1a4
    411c:	e0873003 	add	r3, r7, r3
    4120:	e084a107 	add	r10, r4, r7, lsl #2
    4124:	e2835001 	add	r5, r3, #1
    4128:	e3a08000 	mov	r8, #0
    412c:	e28d4088 	add	r4, sp, #136	; 0x88
    4130:	e3570000 	cmp	r7, #0
    4134:	b3a00000 	movlt	r0, #0
    4138:	a79a0008 	ldrge	r0, [r10, r8]
    413c:	ab000414 	blge	5194 <__aeabi_i2f>
    4140:	e2877001 	add	r7, r7, #1
    4144:	e1570005 	cmp	r7, r5
    4148:	e7840008 	str	r0, [r4, r8]
    414c:	e2888004 	add	r8, r8, #4
    4150:	1afffff6 	bne	4130 <__kernel_rem_pio2f+0x80>
    4154:	e59d2020 	ldr	r2, [sp, #32]
    4158:	e3520000 	cmp	r2, #0
    415c:	ba000215 	blt	49b8 <__kernel_rem_pio2f+0x908>
    4160:	e59d3020 	ldr	r3, [sp, #32]
    4164:	e59d402c 	ldr	r4, [sp, #44]	; 0x2c
    4168:	e1a07103 	lsl	r7, r3, #2
    416c:	e28def4a 	add	lr, sp, #296	; 0x128
    4170:	e58d7008 	str	r7, [sp, #8]
    4174:	e28d5f49 	add	r5, sp, #292	; 0x124
    4178:	e08e9007 	add	r9, lr, r7
    417c:	e1a0b104 	lsl	r11, r4, #2
    4180:	e59d200c 	ldr	r2, [sp, #12]
    4184:	e3520000 	cmp	r2, #0
    4188:	ba000103 	blt	459c <__kernel_rem_pio2f+0x4ec>
    418c:	e28d3088 	add	r3, sp, #136	; 0x88
    4190:	e083a104 	add	r10, r3, r4, lsl #2
    4194:	e3a08000 	mov	r8, #0
    4198:	e3a07000 	mov	r7, #0
    419c:	e7960008 	ldr	r0, [r6, r8]
    41a0:	e53a1004 	ldr	r1, [r10, #-4]!
    41a4:	eb000431 	bl	5270 <__aeabi_fmul>
    41a8:	e1a01000 	mov	r1, r0
    41ac:	e1a00007 	mov	r0, r7
    41b0:	eb000386 	bl	4fd0 <__addsf3>
    41b4:	e2888004 	add	r8, r8, #4
    41b8:	e158000b 	cmp	r8, r11
    41bc:	e1a07000 	mov	r7, r0
    41c0:	1afffff5 	bne	419c <__kernel_rem_pio2f+0xec>
    41c4:	e5a57004 	str	r7, [r5, #4]!
    41c8:	e1550009 	cmp	r5, r9
    41cc:	e2844001 	add	r4, r4, #1
    41d0:	1affffea 	bne	4180 <__kernel_rem_pio2f+0xd0>
    41d4:	e59d7008 	ldr	r7, [sp, #8]
    41d8:	e28d2038 	add	r2, sp, #56	; 0x38
    41dc:	e0822007 	add	r2, r2, r7
    41e0:	e58d2034 	str	r2, [sp, #52]	; 0x34
    41e4:	e59d8020 	ldr	r8, [sp, #32]
    41e8:	e1a04108 	lsl	r4, r8, #2
    41ec:	e28def5e 	add	lr, sp, #376	; 0x178
    41f0:	e08e3004 	add	r3, lr, r4
    41f4:	e3580000 	cmp	r8, #0
    41f8:	e58d4008 	str	r4, [sp, #8]
    41fc:	e5139050 	ldr	r9, [r3, #-80]	; 0xffffffb0
    4200:	da000017 	ble	4264 <__kernel_rem_pio2f+0x1b4>
    4204:	e59d2008 	ldr	r2, [sp, #8]
    4208:	e28d4034 	add	r4, sp, #52	; 0x34
    420c:	e28d3f4a 	add	r3, sp, #296	; 0x128
    4210:	e0835002 	add	r5, r3, r2
    4214:	e0847002 	add	r7, r4, r2
    4218:	e3a015ee 	mov	r1, #998244352	; 0x3b800000
    421c:	e1a00009 	mov	r0, r9
    4220:	eb000412 	bl	5270 <__aeabi_fmul>
    4224:	eb000514 	bl	567c <__aeabi_f2iz>
    4228:	eb0003d9 	bl	5194 <__aeabi_i2f>
    422c:	e59f17d4 	ldr	r1, [pc, #2004]	; 4a08 <__kernel_rem_pio2f+0x958>
    4230:	e1a0a000 	mov	r10, r0
    4234:	eb00040d 	bl	5270 <__aeabi_fmul>
    4238:	e1a01000 	mov	r1, r0
    423c:	e1a00009 	mov	r0, r9
    4240:	eb000361 	bl	4fcc <__aeabi_fsub>
    4244:	eb00050c 	bl	567c <__aeabi_f2iz>
    4248:	e1a0100a 	mov	r1, r10
    424c:	e5a40004 	str	r0, [r4, #4]!
    4250:	e5350004 	ldr	r0, [r5, #-4]!
    4254:	eb00035d 	bl	4fd0 <__addsf3>
    4258:	e1540007 	cmp	r4, r7
    425c:	e1a09000 	mov	r9, r0
    4260:	1affffec 	bne	4218 <__kernel_rem_pio2f+0x168>
    4264:	e59d101c 	ldr	r1, [sp, #28]
    4268:	e1a00009 	mov	r0, r9
    426c:	eb000270 	bl	4c34 <scalbnf>
    4270:	e3a0143e 	mov	r1, #1040187392	; 0x3e000000
    4274:	e1a04000 	mov	r4, r0
    4278:	eb0003fc 	bl	5270 <__aeabi_fmul>
    427c:	eb000238 	bl	4b64 <floorf>
    4280:	e3a01441 	mov	r1, #1090519040	; 0x41000000
    4284:	eb0003f9 	bl	5270 <__aeabi_fmul>
    4288:	e1a01000 	mov	r1, r0
    428c:	e1a00004 	mov	r0, r4
    4290:	eb00034d 	bl	4fcc <__aeabi_fsub>
    4294:	e1a04000 	mov	r4, r0
    4298:	eb0004f7 	bl	567c <__aeabi_f2iz>
    429c:	e1a05000 	mov	r5, r0
    42a0:	eb0003bb 	bl	5194 <__aeabi_i2f>
    42a4:	e1a01000 	mov	r1, r0
    42a8:	e1a00004 	mov	r0, r4
    42ac:	eb000346 	bl	4fcc <__aeabi_fsub>
    42b0:	e59d201c 	ldr	r2, [sp, #28]
    42b4:	e3520000 	cmp	r2, #0
    42b8:	e1a07000 	mov	r7, r0
    42bc:	da00009e 	ble	453c <__kernel_rem_pio2f+0x48c>
    42c0:	e28d3f5e 	add	r3, sp, #376	; 0x178
    42c4:	e2482001 	sub	r2, r8, #1
    42c8:	e0832102 	add	r2, r3, r2, lsl #2
    42cc:	e59d401c 	ldr	r4, [sp, #28]
    42d0:	e5120140 	ldr	r0, [r2, #-320]	; 0xfffffec0
    42d4:	e2643008 	rsb	r3, r4, #8
    42d8:	e1a01350 	asr	r1, r0, r3
    42dc:	e0403311 	sub	r3, r0, r1, lsl r3
    42e0:	e2644007 	rsb	r4, r4, #7
    42e4:	e1a04453 	asr	r4, r3, r4
    42e8:	e5023140 	str	r3, [r2, #-320]	; 0xfffffec0
    42ec:	e0855001 	add	r5, r5, r1
    42f0:	e3540000 	cmp	r4, #0
    42f4:	da000024 	ble	438c <__kernel_rem_pio2f+0x2dc>
    42f8:	e3580000 	cmp	r8, #0
    42fc:	e2855001 	add	r5, r5, #1
    4300:	da0000a3 	ble	4594 <__kernel_rem_pio2f+0x4e4>
    4304:	e59d2008 	ldr	r2, [sp, #8]
    4308:	e28d3038 	add	r3, sp, #56	; 0x38
    430c:	e0831002 	add	r1, r3, r2
    4310:	e3a09000 	mov	r9, #0
    4314:	ea000005 	b	4330 <__kernel_rem_pio2f+0x280>
    4318:	e3520000 	cmp	r2, #0
    431c:	12622c01 	rsbne	r2, r2, #256	; 0x100
    4320:	15032004 	strne	r2, [r3, #-4]
    4324:	13a09001 	movne	r9, #1
    4328:	e1530001 	cmp	r3, r1
    432c:	0a000007 	beq	4350 <__kernel_rem_pio2f+0x2a0>
    4330:	e3590000 	cmp	r9, #0
    4334:	e4932004 	ldr	r2, [r3], #4
    4338:	0afffff6 	beq	4318 <__kernel_rem_pio2f+0x268>
    433c:	e26220ff 	rsb	r2, r2, #255	; 0xff
    4340:	e1530001 	cmp	r3, r1
    4344:	e5032004 	str	r2, [r3, #-4]
    4348:	e3a09001 	mov	r9, #1
    434c:	1afffff7 	bne	4330 <__kernel_rem_pio2f+0x280>
    4350:	e59d301c 	ldr	r3, [sp, #28]
    4354:	e3530000 	cmp	r3, #0
    4358:	da000009 	ble	4384 <__kernel_rem_pio2f+0x2d4>
    435c:	e3530001 	cmp	r3, #1
    4360:	0a00007b 	beq	4554 <__kernel_rem_pio2f+0x4a4>
    4364:	e3530002 	cmp	r3, #2
    4368:	1a000005 	bne	4384 <__kernel_rem_pio2f+0x2d4>
    436c:	e2483001 	sub	r3, r8, #1
    4370:	e28d0f5e 	add	r0, sp, #376	; 0x178
    4374:	e0803103 	add	r3, r0, r3, lsl #2
    4378:	e5132140 	ldr	r2, [r3, #-320]	; 0xfffffec0
    437c:	e202203f 	and	r2, r2, #63	; 0x3f
    4380:	e5032140 	str	r2, [r3, #-320]	; 0xfffffec0
    4384:	e3540002 	cmp	r4, #2
    4388:	0a00005d 	beq	4504 <__kernel_rem_pio2f+0x454>
    438c:	e1a00007 	mov	r0, r7
    4390:	e3a01000 	mov	r1, #0
    4394:	eb00049a 	bl	5604 <__aeabi_fcmpeq>
    4398:	e3500000 	cmp	r0, #0
    439c:	0a000084 	beq	45b4 <__kernel_rem_pio2f+0x504>
    43a0:	e59d2020 	ldr	r2, [sp, #32]
    43a4:	e2480001 	sub	r0, r8, #1
    43a8:	e1520000 	cmp	r2, r0
    43ac:	ca00000a 	bgt	43dc <__kernel_rem_pio2f+0x32c>
    43b0:	e59d2008 	ldr	r2, [sp, #8]
    43b4:	e28de038 	add	lr, sp, #56	; 0x38
    43b8:	e59dc034 	ldr	r12, [sp, #52]	; 0x34
    43bc:	e08e3002 	add	r3, lr, r2
    43c0:	e3a02000 	mov	r2, #0
    43c4:	e5331004 	ldr	r1, [r3, #-4]!
    43c8:	e153000c 	cmp	r3, r12
    43cc:	e1822001 	orr	r2, r2, r1
    43d0:	1afffffb 	bne	43c4 <__kernel_rem_pio2f+0x314>
    43d4:	e3520000 	cmp	r2, #0
    43d8:	1a000160 	bne	4960 <__kernel_rem_pio2f+0x8b0>
    43dc:	e59d3020 	ldr	r3, [sp, #32]
    43e0:	e2432001 	sub	r2, r3, #1
    43e4:	e1a02102 	lsl	r2, r2, #2
    43e8:	e28d4f5e 	add	r4, sp, #376	; 0x178
    43ec:	e0843002 	add	r3, r4, r2
    43f0:	e5133140 	ldr	r3, [r3, #-320]	; 0xfffffec0
    43f4:	e3530000 	cmp	r3, #0
    43f8:	1a00016c 	bne	49b0 <__kernel_rem_pio2f+0x900>
    43fc:	e28de038 	add	lr, sp, #56	; 0x38
    4400:	e08e2002 	add	r2, lr, r2
    4404:	e3a03001 	mov	r3, #1
    4408:	e5321004 	ldr	r1, [r2, #-4]!
    440c:	e3510000 	cmp	r1, #0
    4410:	e2833001 	add	r3, r3, #1
    4414:	0afffffb 	beq	4408 <__kernel_rem_pio2f+0x358>
    4418:	e0883003 	add	r3, r8, r3
    441c:	e2882001 	add	r2, r8, #1
    4420:	e1520003 	cmp	r2, r3
    4424:	e58d3028 	str	r3, [sp, #40]	; 0x28
    4428:	ca000033 	bgt	44fc <__kernel_rem_pio2f+0x44c>
    442c:	e59d400c 	ldr	r4, [sp, #12]
    4430:	e59d3030 	ldr	r3, [sp, #48]	; 0x30
    4434:	e0842002 	add	r2, r4, r2
    4438:	e28d4088 	add	r4, sp, #136	; 0x88
    443c:	e0881003 	add	r1, r8, r3
    4440:	e58d4018 	str	r4, [sp, #24]
    4444:	e28d3028 	add	r3, sp, #40	; 0x28
    4448:	e8930018 	ldm	r3, {r3, r4}
    444c:	e0689003 	rsb	r9, r8, r3
    4450:	e2825001 	add	r5, r2, #1
    4454:	e0843008 	add	r3, r4, r8
    4458:	e59d2018 	ldr	r2, [sp, #24]
    445c:	e59d41a4 	ldr	r4, [sp, #420]	; 0x1a4
    4460:	e59de008 	ldr	lr, [sp, #8]
    4464:	e0848101 	add	r8, r4, r1, lsl #2
    4468:	e1a09109 	lsl	r9, r9, #2
    446c:	e28d4f4a 	add	r4, sp, #296	; 0x128
    4470:	e0823103 	add	r3, r2, r3, lsl #2
    4474:	e084400e 	add	r4, r4, lr
    4478:	e58d9014 	str	r9, [sp, #20]
    447c:	e58d3010 	str	r3, [sp, #16]
    4480:	e58d4008 	str	r4, [sp, #8]
    4484:	e3a04000 	mov	r4, #0
    4488:	e5b80004 	ldr	r0, [r8, #4]!
    448c:	eb000340 	bl	5194 <__aeabi_i2f>
    4490:	e59d300c 	ldr	r3, [sp, #12]
    4494:	e59d2010 	ldr	r2, [sp, #16]
    4498:	e3530000 	cmp	r3, #0
    449c:	e3a0a000 	mov	r10, #0
    44a0:	e7820004 	str	r0, [r2, r4]
    44a4:	ba00000c 	blt	44dc <__kernel_rem_pio2f+0x42c>
    44a8:	e59d3018 	ldr	r3, [sp, #24]
    44ac:	e3a09000 	mov	r9, #0
    44b0:	e0837105 	add	r7, r3, r5, lsl #2
    44b4:	e7960009 	ldr	r0, [r6, r9]
    44b8:	e5371004 	ldr	r1, [r7, #-4]!
    44bc:	eb00036b 	bl	5270 <__aeabi_fmul>
    44c0:	e1a01000 	mov	r1, r0
    44c4:	e1a0000a 	mov	r0, r10
    44c8:	eb0002c0 	bl	4fd0 <__addsf3>
    44cc:	e2899004 	add	r9, r9, #4
    44d0:	e159000b 	cmp	r9, r11
    44d4:	e1a0a000 	mov	r10, r0
    44d8:	1afffff5 	bne	44b4 <__kernel_rem_pio2f+0x404>
    44dc:	e59d3008 	ldr	r3, [sp, #8]
    44e0:	e59d2014 	ldr	r2, [sp, #20]
    44e4:	e2844004 	add	r4, r4, #4
    44e8:	e5a3a004 	str	r10, [r3, #4]!
    44ec:	e1540002 	cmp	r4, r2
    44f0:	e58d3008 	str	r3, [sp, #8]
    44f4:	e2855001 	add	r5, r5, #1
    44f8:	1affffe2 	bne	4488 <__kernel_rem_pio2f+0x3d8>
    44fc:	e59d8028 	ldr	r8, [sp, #40]	; 0x28
    4500:	eaffff38 	b	41e8 <__kernel_rem_pio2f+0x138>
    4504:	e1a01007 	mov	r1, r7
    4508:	e3a005fe 	mov	r0, #1065353216	; 0x3f800000
    450c:	eb0002ae 	bl	4fcc <__aeabi_fsub>
    4510:	e3590000 	cmp	r9, #0
    4514:	e1a07000 	mov	r7, r0
    4518:	0affff9b 	beq	438c <__kernel_rem_pio2f+0x2dc>
    451c:	e59d101c 	ldr	r1, [sp, #28]
    4520:	e3a005fe 	mov	r0, #1065353216	; 0x3f800000
    4524:	eb0001c2 	bl	4c34 <scalbnf>
    4528:	e1a01000 	mov	r1, r0
    452c:	e1a00007 	mov	r0, r7
    4530:	eb0002a5 	bl	4fcc <__aeabi_fsub>
    4534:	e1a07000 	mov	r7, r0
    4538:	eaffff93 	b	438c <__kernel_rem_pio2f+0x2dc>
    453c:	1a00000b 	bne	4570 <__kernel_rem_pio2f+0x4c0>
    4540:	e28def5e 	add	lr, sp, #376	; 0x178
    4544:	e08e3108 	add	r3, lr, r8, lsl #2
    4548:	e5134144 	ldr	r4, [r3, #-324]	; 0xfffffebc
    454c:	e1a04444 	asr	r4, r4, #8
    4550:	eaffff66 	b	42f0 <__kernel_rem_pio2f+0x240>
    4554:	e2483001 	sub	r3, r8, #1
    4558:	e28def5e 	add	lr, sp, #376	; 0x178
    455c:	e08e3103 	add	r3, lr, r3, lsl #2
    4560:	e5132140 	ldr	r2, [r3, #-320]	; 0xfffffec0
    4564:	e202207f 	and	r2, r2, #127	; 0x7f
    4568:	e5032140 	str	r2, [r3, #-320]	; 0xfffffec0
    456c:	eaffff84 	b	4384 <__kernel_rem_pio2f+0x2d4>
    4570:	e3a0143f 	mov	r1, #1056964608	; 0x3f000000
    4574:	eb000434 	bl	564c <__aeabi_fcmpge>
    4578:	e3500000 	cmp	r0, #0
    457c:	03a04000 	moveq	r4, #0
    4580:	0affff81 	beq	438c <__kernel_rem_pio2f+0x2dc>
    4584:	e3580000 	cmp	r8, #0
    4588:	e3a04002 	mov	r4, #2
    458c:	e2855001 	add	r5, r5, #1
    4590:	caffff5b 	bgt	4304 <__kernel_rem_pio2f+0x254>
    4594:	e3a09000 	mov	r9, #0
    4598:	eaffff6c 	b	4350 <__kernel_rem_pio2f+0x2a0>
    459c:	e3a07000 	mov	r7, #0
    45a0:	e5a57004 	str	r7, [r5, #4]!
    45a4:	e1550009 	cmp	r5, r9
    45a8:	e2844001 	add	r4, r4, #1
    45ac:	1afffef3 	bne	4180 <__kernel_rem_pio2f+0xd0>
    45b0:	eaffff07 	b	41d4 <__kernel_rem_pio2f+0x124>
    45b4:	e59d201c 	ldr	r2, [sp, #28]
    45b8:	e1a00007 	mov	r0, r7
    45bc:	e2621000 	rsb	r1, r2, #0
    45c0:	e58d500c 	str	r5, [sp, #12]
    45c4:	eb00019a 	bl	4c34 <scalbnf>
    45c8:	e59f1438 	ldr	r1, [pc, #1080]	; 4a08 <__kernel_rem_pio2f+0x958>
    45cc:	e1a05000 	mov	r5, r0
    45d0:	eb00041d 	bl	564c <__aeabi_fcmpge>
    45d4:	e3500000 	cmp	r0, #0
    45d8:	0a0000fa 	beq	49c8 <__kernel_rem_pio2f+0x918>
    45dc:	e3a015ee 	mov	r1, #998244352	; 0x3b800000
    45e0:	e1a00005 	mov	r0, r5
    45e4:	eb000321 	bl	5270 <__aeabi_fmul>
    45e8:	eb000423 	bl	567c <__aeabi_f2iz>
    45ec:	eb0002e8 	bl	5194 <__aeabi_i2f>
    45f0:	e59f1410 	ldr	r1, [pc, #1040]	; 4a08 <__kernel_rem_pio2f+0x958>
    45f4:	e1a06000 	mov	r6, r0
    45f8:	eb00031c 	bl	5270 <__aeabi_fmul>
    45fc:	e1a01000 	mov	r1, r0
    4600:	e1a00005 	mov	r0, r5
    4604:	eb000270 	bl	4fcc <__aeabi_fsub>
    4608:	eb00041b 	bl	567c <__aeabi_f2iz>
    460c:	e59d2008 	ldr	r2, [sp, #8]
    4610:	e28d3f5e 	add	r3, sp, #376	; 0x178
    4614:	e0839002 	add	r9, r3, r2
    4618:	e5090140 	str	r0, [r9, #-320]	; 0xfffffec0
    461c:	e1a00006 	mov	r0, r6
    4620:	eb000415 	bl	567c <__aeabi_f2iz>
    4624:	e59d201c 	ldr	r2, [sp, #28]
    4628:	e2888001 	add	r8, r8, #1
    462c:	e28def5e 	add	lr, sp, #376	; 0x178
    4630:	e08e3108 	add	r3, lr, r8, lsl #2
    4634:	e2822008 	add	r2, r2, #8
    4638:	e58d201c 	str	r2, [sp, #28]
    463c:	e5030140 	str	r0, [r3, #-320]	; 0xfffffec0
    4640:	e3a005fe 	mov	r0, #1065353216	; 0x3f800000
    4644:	e59d101c 	ldr	r1, [sp, #28]
    4648:	eb000179 	bl	4c34 <scalbnf>
    464c:	e3580000 	cmp	r8, #0
    4650:	e1a05000 	mov	r5, r0
    4654:	ba000039 	blt	4740 <__kernel_rem_pio2f+0x690>
    4658:	e068af08 	rsb	r10, r8, r8, lsl #30
    465c:	e1a06108 	lsl	r6, r8, #2
    4660:	e1a0a10a 	lsl	r10, r10, #2
    4664:	e28d0038 	add	r0, sp, #56	; 0x38
    4668:	e28d1f4a 	add	r1, sp, #296	; 0x128
    466c:	e0807006 	add	r7, r0, r6
    4670:	e24aa004 	sub	r10, r10, #4
    4674:	e0816006 	add	r6, r1, r6
    4678:	e3a09000 	mov	r9, #0
    467c:	e7970009 	ldr	r0, [r7, r9]
    4680:	eb0002c3 	bl	5194 <__aeabi_i2f>
    4684:	e1a01005 	mov	r1, r5
    4688:	eb0002f8 	bl	5270 <__aeabi_fmul>
    468c:	e3a015ee 	mov	r1, #998244352	; 0x3b800000
    4690:	e7860009 	str	r0, [r6, r9]
    4694:	e1a00005 	mov	r0, r5
    4698:	eb0002f4 	bl	5270 <__aeabi_fmul>
    469c:	e2499004 	sub	r9, r9, #4
    46a0:	e159000a 	cmp	r9, r10
    46a4:	e1a05000 	mov	r5, r0
    46a8:	1afffff3 	bne	467c <__kernel_rem_pio2f+0x5cc>
    46ac:	e2883001 	add	r3, r8, #1
    46b0:	e59f7354 	ldr	r7, [pc, #852]	; 4a0c <__kernel_rem_pio2f+0x95c>
    46b4:	e59d9020 	ldr	r9, [sp, #32]
    46b8:	e58d8008 	str	r8, [sp, #8]
    46bc:	e58d4010 	str	r4, [sp, #16]
    46c0:	e3a05000 	mov	r5, #0
    46c4:	e1a0b003 	mov	r11, r3
    46c8:	e3590000 	cmp	r9, #0
    46cc:	ba0000a1 	blt	4958 <__kernel_rem_pio2f+0x8a8>
    46d0:	e3550000 	cmp	r5, #0
    46d4:	a3a0a000 	movge	r10, #0
    46d8:	a3a04000 	movge	r4, #0
    46dc:	a1a0800a 	movge	r8, r10
    46e0:	aa000003 	bge	46f4 <__kernel_rem_pio2f+0x644>
    46e4:	ea00009b 	b	4958 <__kernel_rem_pio2f+0x8a8>
    46e8:	e1580005 	cmp	r8, r5
    46ec:	e28aa004 	add	r10, r10, #4
    46f0:	ca000009 	bgt	471c <__kernel_rem_pio2f+0x66c>
    46f4:	e796100a 	ldr	r1, [r6, r10]
    46f8:	e797000a 	ldr	r0, [r7, r10]
    46fc:	eb0002db 	bl	5270 <__aeabi_fmul>
    4700:	e1a01000 	mov	r1, r0
    4704:	e1a00004 	mov	r0, r4
    4708:	eb000230 	bl	4fd0 <__addsf3>
    470c:	e2888001 	add	r8, r8, #1
    4710:	e1590008 	cmp	r9, r8
    4714:	e1a04000 	mov	r4, r0
    4718:	aafffff2 	bge	46e8 <__kernel_rem_pio2f+0x638>
    471c:	e28d2f5e 	add	r2, sp, #376	; 0x178
    4720:	e0823105 	add	r3, r2, r5, lsl #2
    4724:	e2855001 	add	r5, r5, #1
    4728:	e155000b 	cmp	r5, r11
    472c:	e50340a0 	str	r4, [r3, #-160]	; 0xffffff60
    4730:	e2466004 	sub	r6, r6, #4
    4734:	1affffe3 	bne	46c8 <__kernel_rem_pio2f+0x618>
    4738:	e59d8008 	ldr	r8, [sp, #8]
    473c:	e59d4010 	ldr	r4, [sp, #16]
    4740:	e59d21a0 	ldr	r2, [sp, #416]	; 0x1a0
    4744:	e3520003 	cmp	r2, #3
    4748:	979ff102 	ldrls	pc, [pc, r2, lsl #2]
    474c:	ea00000f 	b	4790 <__kernel_rem_pio2f+0x6e0>
    4750:	0000491c 	.word	0x0000491c
    4754:	00004894 	.word	0x00004894
    4758:	00004894 	.word	0x00004894
    475c:	000047a4 	.word	0x000047a4
    4760:	e3540000 	cmp	r4, #0
    4764:	e3a00000 	mov	r0, #0
    4768:	0a000042 	beq	4878 <__kernel_rem_pio2f+0x7c8>
    476c:	e28d20d8 	add	r2, sp, #216	; 0xd8
    4770:	e892000c 	ldm	r2, {r2, r3}
    4774:	e59d4024 	ldr	r4, [sp, #36]	; 0x24
    4778:	e2822102 	add	r2, r2, #-2147483648	; 0x80000000
    477c:	e2833102 	add	r3, r3, #-2147483648	; 0x80000000
    4780:	e2800102 	add	r0, r0, #-2147483648	; 0x80000000
    4784:	e5842000 	str	r2, [r4]
    4788:	e5843004 	str	r3, [r4, #4]
    478c:	e5840008 	str	r0, [r4, #8]
    4790:	e59d200c 	ldr	r2, [sp, #12]
    4794:	e2020007 	and	r0, r2, #7
    4798:	e28ddf5f 	add	sp, sp, #380	; 0x17c
    479c:	e8bd4ff0 	pop	{r4, r5, r6, r7, r8, r9, r10, r11, lr}
    47a0:	e12fff1e 	bx	lr
    47a4:	e3580000 	cmp	r8, #0
    47a8:	daffffec 	ble	4760 <__kernel_rem_pio2f+0x6b0>
    47ac:	e28d70d8 	add	r7, sp, #216	; 0xd8
    47b0:	e2485001 	sub	r5, r8, #1
    47b4:	e0875105 	add	r5, r7, r5, lsl #2
    47b8:	e28d20d4 	add	r2, sp, #212	; 0xd4
    47bc:	e1a06005 	mov	r6, r5
    47c0:	e416b004 	ldr	r11, [r6], #-4
    47c4:	e5969008 	ldr	r9, [r6, #8]
    47c8:	e1a0000b 	mov	r0, r11
    47cc:	e1a01009 	mov	r1, r9
    47d0:	e58d2004 	str	r2, [sp, #4]
    47d4:	eb0001fd 	bl	4fd0 <__addsf3>
    47d8:	e1a0a000 	mov	r10, r0
    47dc:	e1a0100a 	mov	r1, r10
    47e0:	e1a0000b 	mov	r0, r11
    47e4:	eb0001f8 	bl	4fcc <__aeabi_fsub>
    47e8:	e1a01000 	mov	r1, r0
    47ec:	e1a00009 	mov	r0, r9
    47f0:	eb0001f6 	bl	4fd0 <__addsf3>
    47f4:	e59d2004 	ldr	r2, [sp, #4]
    47f8:	e1560002 	cmp	r6, r2
    47fc:	e5860008 	str	r0, [r6, #8]
    4800:	e586a004 	str	r10, [r6, #4]
    4804:	1affffed 	bne	47c0 <__kernel_rem_pio2f+0x710>
    4808:	e3580001 	cmp	r8, #1
    480c:	daffffd3 	ble	4760 <__kernel_rem_pio2f+0x6b0>
    4810:	e4159004 	ldr	r9, [r5], #-4
    4814:	e595a008 	ldr	r10, [r5, #8]
    4818:	e1a00009 	mov	r0, r9
    481c:	e1a0100a 	mov	r1, r10
    4820:	eb0001ea 	bl	4fd0 <__addsf3>
    4824:	e1a06000 	mov	r6, r0
    4828:	e1a01006 	mov	r1, r6
    482c:	e1a00009 	mov	r0, r9
    4830:	eb0001e5 	bl	4fcc <__aeabi_fsub>
    4834:	e1a01000 	mov	r1, r0
    4838:	e1a0000a 	mov	r0, r10
    483c:	eb0001e3 	bl	4fd0 <__addsf3>
    4840:	e1550007 	cmp	r5, r7
    4844:	e5850008 	str	r0, [r5, #8]
    4848:	e5856004 	str	r6, [r5, #4]
    484c:	1affffef 	bne	4810 <__kernel_rem_pio2f+0x760>
    4850:	e2886001 	add	r6, r8, #1
    4854:	e0856106 	add	r6, r5, r6, lsl #2
    4858:	e3a00000 	mov	r0, #0
    485c:	e2855008 	add	r5, r5, #8
    4860:	e5361004 	ldr	r1, [r6, #-4]!
    4864:	eb0001d9 	bl	4fd0 <__addsf3>
    4868:	e1560005 	cmp	r6, r5
    486c:	1afffffb 	bne	4860 <__kernel_rem_pio2f+0x7b0>
    4870:	e3540000 	cmp	r4, #0
    4874:	1affffbc 	bne	476c <__kernel_rem_pio2f+0x6bc>
    4878:	e59d4024 	ldr	r4, [sp, #36]	; 0x24
    487c:	e59d30d8 	ldr	r3, [sp, #216]	; 0xd8
    4880:	e5843000 	str	r3, [r4]
    4884:	e59d30dc 	ldr	r3, [sp, #220]	; 0xdc
    4888:	e5840008 	str	r0, [r4, #8]
    488c:	e5843004 	str	r3, [r4, #4]
    4890:	eaffffbe 	b	4790 <__kernel_rem_pio2f+0x6e0>
    4894:	e3580000 	cmp	r8, #0
    4898:	b3a03000 	movlt	r3, #0
    489c:	ba000009 	blt	48c8 <__kernel_rem_pio2f+0x818>
    48a0:	e28d60d8 	add	r6, sp, #216	; 0xd8
    48a4:	e2885001 	add	r5, r8, #1
    48a8:	e3a03000 	mov	r3, #0
    48ac:	e0865105 	add	r5, r6, r5, lsl #2
    48b0:	e1a00003 	mov	r0, r3
    48b4:	e5351004 	ldr	r1, [r5, #-4]!
    48b8:	eb0001c4 	bl	4fd0 <__addsf3>
    48bc:	e1550006 	cmp	r5, r6
    48c0:	1afffffb 	bne	48b4 <__kernel_rem_pio2f+0x804>
    48c4:	e1a03000 	mov	r3, r0
    48c8:	e3540000 	cmp	r4, #0
    48cc:	e59de024 	ldr	lr, [sp, #36]	; 0x24
    48d0:	12832102 	addne	r2, r3, #-2147483648	; 0x80000000
    48d4:	01a02003 	moveq	r2, r3
    48d8:	e58e2000 	str	r2, [lr]
    48dc:	e59d00d8 	ldr	r0, [sp, #216]	; 0xd8
    48e0:	e1a01003 	mov	r1, r3
    48e4:	eb0001b8 	bl	4fcc <__aeabi_fsub>
    48e8:	e3580000 	cmp	r8, #0
    48ec:	da000005 	ble	4908 <__kernel_rem_pio2f+0x858>
    48f0:	e28d50d8 	add	r5, sp, #216	; 0xd8
    48f4:	e0858108 	add	r8, r5, r8, lsl #2
    48f8:	e5b51004 	ldr	r1, [r5, #4]!
    48fc:	eb0001b3 	bl	4fd0 <__addsf3>
    4900:	e1550008 	cmp	r5, r8
    4904:	1afffffb 	bne	48f8 <__kernel_rem_pio2f+0x848>
    4908:	e3540000 	cmp	r4, #0
    490c:	e59d2024 	ldr	r2, [sp, #36]	; 0x24
    4910:	12800102 	addne	r0, r0, #-2147483648	; 0x80000000
    4914:	e5820004 	str	r0, [r2, #4]
    4918:	eaffff9c 	b	4790 <__kernel_rem_pio2f+0x6e0>
    491c:	e3580000 	cmp	r8, #0
    4920:	ba000031 	blt	49ec <__kernel_rem_pio2f+0x93c>
    4924:	e28d60d8 	add	r6, sp, #216	; 0xd8
    4928:	e2885001 	add	r5, r8, #1
    492c:	e3a00000 	mov	r0, #0
    4930:	e0865105 	add	r5, r6, r5, lsl #2
    4934:	e5351004 	ldr	r1, [r5, #-4]!
    4938:	eb0001a4 	bl	4fd0 <__addsf3>
    493c:	e1550006 	cmp	r5, r6
    4940:	1afffffb 	bne	4934 <__kernel_rem_pio2f+0x884>
    4944:	e3540000 	cmp	r4, #0
    4948:	e59d3024 	ldr	r3, [sp, #36]	; 0x24
    494c:	12800102 	addne	r0, r0, #-2147483648	; 0x80000000
    4950:	e5830000 	str	r0, [r3]
    4954:	eaffff8d 	b	4790 <__kernel_rem_pio2f+0x6e0>
    4958:	e3a04000 	mov	r4, #0
    495c:	eaffff6e 	b	471c <__kernel_rem_pio2f+0x66c>
    4960:	e1a03100 	lsl	r3, r0, #2
    4964:	e28def5e 	add	lr, sp, #376	; 0x178
    4968:	e08e2003 	add	r2, lr, r3
    496c:	e5122140 	ldr	r2, [r2, #-320]	; 0xfffffec0
    4970:	e3520000 	cmp	r2, #0
    4974:	e59d201c 	ldr	r2, [sp, #28]
    4978:	e2422008 	sub	r2, r2, #8
    497c:	e58d500c 	str	r5, [sp, #12]
    4980:	e58d201c 	str	r2, [sp, #28]
    4984:	1a000016 	bne	49e4 <__kernel_rem_pio2f+0x934>
    4988:	e28de038 	add	lr, sp, #56	; 0x38
    498c:	e08e3003 	add	r3, lr, r3
    4990:	e1a08000 	mov	r8, r0
    4994:	e5331004 	ldr	r1, [r3, #-4]!
    4998:	e3510000 	cmp	r1, #0
    499c:	e2488001 	sub	r8, r8, #1
    49a0:	e2422008 	sub	r2, r2, #8
    49a4:	0afffffa 	beq	4994 <__kernel_rem_pio2f+0x8e4>
    49a8:	e58d201c 	str	r2, [sp, #28]
    49ac:	eaffff23 	b	4640 <__kernel_rem_pio2f+0x590>
    49b0:	e3a03001 	mov	r3, #1
    49b4:	eafffe97 	b	4418 <__kernel_rem_pio2f+0x368>
    49b8:	e59d302c 	ldr	r3, [sp, #44]	; 0x2c
    49bc:	e1a07102 	lsl	r7, r2, #2
    49c0:	e1a0b103 	lsl	r11, r3, #2
    49c4:	eafffe03 	b	41d8 <__kernel_rem_pio2f+0x128>
    49c8:	e1a00005 	mov	r0, r5
    49cc:	eb00032a 	bl	567c <__aeabi_f2iz>
    49d0:	e59d3008 	ldr	r3, [sp, #8]
    49d4:	e28def5e 	add	lr, sp, #376	; 0x178
    49d8:	e08e9003 	add	r9, lr, r3
    49dc:	e5090140 	str	r0, [r9, #-320]	; 0xfffffec0
    49e0:	eaffff16 	b	4640 <__kernel_rem_pio2f+0x590>
    49e4:	e1a08000 	mov	r8, r0
    49e8:	eaffff14 	b	4640 <__kernel_rem_pio2f+0x590>
    49ec:	e3a00000 	mov	r0, #0
    49f0:	e3540000 	cmp	r4, #0
    49f4:	e59d3024 	ldr	r3, [sp, #36]	; 0x24
    49f8:	12800102 	addne	r0, r0, #-2147483648	; 0x80000000
    49fc:	e5830000 	str	r0, [r3]
    4a00:	eaffff62 	b	4790 <__kernel_rem_pio2f+0x6e0>
    4a04:	000082c0 	.word	0x000082c0
    4a08:	43800000 	.word	0x43800000
    4a0c:	000082cc 	.word	0x000082cc

00004a10 <__kernel_sinf>:
    4a10:	e92d45f8 	push	{r3, r4, r5, r6, r7, r8, r10, lr}
    4a14:	e3c03102 	bic	r3, r0, #-2147483648	; 0x80000000
    4a18:	e3530432 	cmp	r3, #838860800	; 0x32000000
    4a1c:	e1a04000 	mov	r4, r0
    4a20:	e1a07001 	mov	r7, r1
    4a24:	e1a08002 	mov	r8, r2
    4a28:	aa000002 	bge	4a38 <__kernel_sinf+0x28>
    4a2c:	eb000312 	bl	567c <__aeabi_f2iz>
    4a30:	e3500000 	cmp	r0, #0
    4a34:	0a000033 	beq	4b08 <__kernel_sinf+0xf8>
    4a38:	e1a01004 	mov	r1, r4
    4a3c:	e1a00004 	mov	r0, r4
    4a40:	eb00020a 	bl	5270 <__aeabi_fmul>
    4a44:	e1a01004 	mov	r1, r4
    4a48:	e1a05000 	mov	r5, r0
    4a4c:	eb000207 	bl	5270 <__aeabi_fmul>
    4a50:	e59f10ec 	ldr	r1, [pc, #236]	; 4b44 <__kernel_sinf+0x134>
    4a54:	e1a06000 	mov	r6, r0
    4a58:	e1a00005 	mov	r0, r5
    4a5c:	eb000203 	bl	5270 <__aeabi_fmul>
    4a60:	e59f10e0 	ldr	r1, [pc, #224]	; 4b48 <__kernel_sinf+0x138>
    4a64:	eb000158 	bl	4fcc <__aeabi_fsub>
    4a68:	e1a01005 	mov	r1, r5
    4a6c:	eb0001ff 	bl	5270 <__aeabi_fmul>
    4a70:	e59f10d4 	ldr	r1, [pc, #212]	; 4b4c <__kernel_sinf+0x13c>
    4a74:	eb000155 	bl	4fd0 <__addsf3>
    4a78:	e1a01005 	mov	r1, r5
    4a7c:	eb0001fb 	bl	5270 <__aeabi_fmul>
    4a80:	e59f10c8 	ldr	r1, [pc, #200]	; 4b50 <__kernel_sinf+0x140>
    4a84:	eb000150 	bl	4fcc <__aeabi_fsub>
    4a88:	e1a01005 	mov	r1, r5
    4a8c:	eb0001f7 	bl	5270 <__aeabi_fmul>
    4a90:	e59f10bc 	ldr	r1, [pc, #188]	; 4b54 <__kernel_sinf+0x144>
    4a94:	eb00014d 	bl	4fd0 <__addsf3>
    4a98:	e3580000 	cmp	r8, #0
    4a9c:	e1a0a000 	mov	r10, r0
    4aa0:	0a00001b 	beq	4b14 <__kernel_sinf+0x104>
    4aa4:	e3a0143f 	mov	r1, #1056964608	; 0x3f000000
    4aa8:	e1a00007 	mov	r0, r7
    4aac:	eb0001ef 	bl	5270 <__aeabi_fmul>
    4ab0:	e1a0100a 	mov	r1, r10
    4ab4:	e1a08000 	mov	r8, r0
    4ab8:	e1a00006 	mov	r0, r6
    4abc:	eb0001eb 	bl	5270 <__aeabi_fmul>
    4ac0:	e1a01000 	mov	r1, r0
    4ac4:	e1a00008 	mov	r0, r8
    4ac8:	eb00013f 	bl	4fcc <__aeabi_fsub>
    4acc:	e1a01005 	mov	r1, r5
    4ad0:	eb0001e6 	bl	5270 <__aeabi_fmul>
    4ad4:	e1a01007 	mov	r1, r7
    4ad8:	eb00013b 	bl	4fcc <__aeabi_fsub>
    4adc:	e59f1074 	ldr	r1, [pc, #116]	; 4b58 <__kernel_sinf+0x148>
    4ae0:	e1a05000 	mov	r5, r0
    4ae4:	e1a00006 	mov	r0, r6
    4ae8:	eb0001e0 	bl	5270 <__aeabi_fmul>
    4aec:	e1a01000 	mov	r1, r0
    4af0:	e1a00005 	mov	r0, r5
    4af4:	eb000135 	bl	4fd0 <__addsf3>
    4af8:	e1a01000 	mov	r1, r0
    4afc:	e1a00004 	mov	r0, r4
    4b00:	eb000131 	bl	4fcc <__aeabi_fsub>
    4b04:	e1a04000 	mov	r4, r0
    4b08:	e1a00004 	mov	r0, r4
    4b0c:	e8bd45f8 	pop	{r3, r4, r5, r6, r7, r8, r10, lr}
    4b10:	e12fff1e 	bx	lr
    4b14:	e1a01000 	mov	r1, r0
    4b18:	e1a00005 	mov	r0, r5
    4b1c:	eb0001d3 	bl	5270 <__aeabi_fmul>
    4b20:	e59f1030 	ldr	r1, [pc, #48]	; 4b58 <__kernel_sinf+0x148>
    4b24:	eb000128 	bl	4fcc <__aeabi_fsub>
    4b28:	e1a01006 	mov	r1, r6
    4b2c:	eb0001cf 	bl	5270 <__aeabi_fmul>
    4b30:	e1a01000 	mov	r1, r0
    4b34:	e1a00004 	mov	r0, r4
    4b38:	eb000124 	bl	4fd0 <__addsf3>
    4b3c:	e1a04000 	mov	r4, r0
    4b40:	eafffff0 	b	4b08 <__kernel_sinf+0xf8>
    4b44:	2f2ec9d3 	.word	0x2f2ec9d3
    4b48:	32d72f34 	.word	0x32d72f34
    4b4c:	3638ef1b 	.word	0x3638ef1b
    4b50:	39500d01 	.word	0x39500d01
    4b54:	3c088889 	.word	0x3c088889
    4b58:	3e2aaaab 	.word	0x3e2aaaab

00004b5c <fabsf>:
    4b5c:	e3c00102 	bic	r0, r0, #-2147483648	; 0x80000000
    4b60:	e12fff1e 	bx	lr

00004b64 <floorf>:
    4b64:	e92d40f8 	push	{r3, r4, r5, r6, r7, lr}
    4b68:	e3c06102 	bic	r6, r0, #-2147483648	; 0x80000000
    4b6c:	e1a05ba6 	lsr	r5, r6, #23
    4b70:	e245507f 	sub	r5, r5, #127	; 0x7f
    4b74:	e3550016 	cmp	r5, #22
    4b78:	e1a01000 	mov	r1, r0
    4b7c:	e1a04000 	mov	r4, r0
    4b80:	ca000014 	bgt	4bd8 <floorf+0x74>
    4b84:	e3550000 	cmp	r5, #0
    4b88:	e1a07000 	mov	r7, r0
    4b8c:	ba000017 	blt	4bf0 <floorf+0x8c>
    4b90:	e59f608c 	ldr	r6, [pc, #140]	; 4c24 <floorf+0xc0>
    4b94:	e1a06556 	asr	r6, r6, r5
    4b98:	e1160000 	tst	r6, r0
    4b9c:	0a00000a 	beq	4bcc <floorf+0x68>
    4ba0:	e59f1080 	ldr	r1, [pc, #128]	; 4c28 <floorf+0xc4>
    4ba4:	eb000109 	bl	4fd0 <__addsf3>
    4ba8:	e3a01000 	mov	r1, #0
    4bac:	eb0002ac 	bl	5664 <__aeabi_fcmpgt>
    4bb0:	e3500000 	cmp	r0, #0
    4bb4:	0a000003 	beq	4bc8 <floorf+0x64>
    4bb8:	e3540000 	cmp	r4, #0
    4bbc:	b3a03502 	movlt	r3, #8388608	; 0x800000
    4bc0:	b0847553 	addlt	r7, r4, r3, asr r5
    4bc4:	e1c74006 	bic	r4, r7, r6
    4bc8:	e1a01004 	mov	r1, r4
    4bcc:	e1a00001 	mov	r0, r1
    4bd0:	e8bd40f8 	pop	{r3, r4, r5, r6, r7, lr}
    4bd4:	e12fff1e 	bx	lr
    4bd8:	e59f304c 	ldr	r3, [pc, #76]	; 4c2c <floorf+0xc8>
    4bdc:	e1560003 	cmp	r6, r3
    4be0:	9afffff9 	bls	4bcc <floorf+0x68>
    4be4:	eb0000f9 	bl	4fd0 <__addsf3>
    4be8:	e1a01000 	mov	r1, r0
    4bec:	eafffff6 	b	4bcc <floorf+0x68>
    4bf0:	e59f1030 	ldr	r1, [pc, #48]	; 4c28 <floorf+0xc4>
    4bf4:	eb0000f5 	bl	4fd0 <__addsf3>
    4bf8:	e3a01000 	mov	r1, #0
    4bfc:	eb000298 	bl	5664 <__aeabi_fcmpgt>
    4c00:	e3500000 	cmp	r0, #0
    4c04:	0affffef 	beq	4bc8 <floorf+0x64>
    4c08:	e3540000 	cmp	r4, #0
    4c0c:	a3a04000 	movge	r4, #0
    4c10:	aaffffec 	bge	4bc8 <floorf+0x64>
    4c14:	e59f3014 	ldr	r3, [pc, #20]	; 4c30 <floorf+0xcc>
    4c18:	e3560000 	cmp	r6, #0
    4c1c:	11a04003 	movne	r4, r3
    4c20:	eaffffe8 	b	4bc8 <floorf+0x64>
    4c24:	007fffff 	.word	0x007fffff
    4c28:	7149f2ca 	.word	0x7149f2ca
    4c2c:	7f7fffff 	.word	0x7f7fffff
    4c30:	bf800000 	.word	0xbf800000

00004c34 <scalbnf>:
    4c34:	e3d0c102 	bics	r12, r0, #-2147483648	; 0x80000000
    4c38:	e92d4010 	push	{r4, lr}
    4c3c:	e1a03000 	mov	r3, r0
    4c40:	e1a02000 	mov	r2, r0
    4c44:	e1a04001 	mov	r4, r1
    4c48:	0a00000e 	beq	4c88 <scalbnf+0x54>
    4c4c:	e59f10e8 	ldr	r1, [pc, #232]	; 4d3c <scalbnf+0x108>
    4c50:	e15c0001 	cmp	r12, r1
    4c54:	8a00000e 	bhi	4c94 <scalbnf+0x60>
    4c58:	e35c0502 	cmp	r12, #8388608	; 0x800000
    4c5c:	3a000010 	bcc	4ca4 <scalbnf+0x70>
    4c60:	e1a0cbac 	lsr	r12, r12, #23
    4c64:	e08cc004 	add	r12, r12, r4
    4c68:	e35c00fe 	cmp	r12, #254	; 0xfe
    4c6c:	c1a01003 	movgt	r1, r3
    4c70:	ca000023 	bgt	4d04 <scalbnf+0xd0>
    4c74:	e35c0000 	cmp	r12, #0
    4c78:	da000015 	ble	4cd4 <scalbnf+0xa0>
    4c7c:	e3c2247f 	bic	r2, r2, #2130706432	; 0x7f000000
    4c80:	e3c23502 	bic	r3, r2, #8388608	; 0x800000
    4c84:	e1833b8c 	orr	r3, r3, r12, lsl #23
    4c88:	e1a00003 	mov	r0, r3
    4c8c:	e8bd4010 	pop	{r4, lr}
    4c90:	e12fff1e 	bx	lr
    4c94:	e1a01000 	mov	r1, r0
    4c98:	eb0000cc 	bl	4fd0 <__addsf3>
    4c9c:	e1a03000 	mov	r3, r0
    4ca0:	eafffff8 	b	4c88 <scalbnf+0x54>
    4ca4:	e3a01313 	mov	r1, #1275068416	; 0x4c000000
    4ca8:	eb000170 	bl	5270 <__aeabi_fmul>
    4cac:	e59f208c 	ldr	r2, [pc, #140]	; 4d40 <scalbnf+0x10c>
    4cb0:	e1540002 	cmp	r4, r2
    4cb4:	e1a03000 	mov	r3, r0
    4cb8:	ba00000d 	blt	4cf4 <scalbnf+0xc0>
    4cbc:	e59fc080 	ldr	r12, [pc, #128]	; 4d44 <scalbnf+0x110>
    4cc0:	e000c00c 	and	r12, r0, r12
    4cc4:	e1a0cbcc 	asr	r12, r12, #23
    4cc8:	e1a02000 	mov	r2, r0
    4ccc:	e24cc019 	sub	r12, r12, #25
    4cd0:	eaffffe3 	b	4c64 <scalbnf+0x30>
    4cd4:	e37c0016 	cmn	r12, #22
    4cd8:	aa00000f 	bge	4d1c <scalbnf+0xe8>
    4cdc:	e59f2064 	ldr	r2, [pc, #100]	; 4d48 <scalbnf+0x114>
    4ce0:	e1540002 	cmp	r4, r2
    4ce4:	e1a01003 	mov	r1, r3
    4ce8:	ca000005 	bgt	4d04 <scalbnf+0xd0>
    4cec:	e59f0058 	ldr	r0, [pc, #88]	; 4d4c <scalbnf+0x118>
    4cf0:	eb000017 	bl	4d54 <copysignf>
    4cf4:	e59f1050 	ldr	r1, [pc, #80]	; 4d4c <scalbnf+0x118>
    4cf8:	eb00015c 	bl	5270 <__aeabi_fmul>
    4cfc:	e1a03000 	mov	r3, r0
    4d00:	eaffffe0 	b	4c88 <scalbnf+0x54>
    4d04:	e59f0044 	ldr	r0, [pc, #68]	; 4d50 <scalbnf+0x11c>
    4d08:	eb000011 	bl	4d54 <copysignf>
    4d0c:	e59f103c 	ldr	r1, [pc, #60]	; 4d50 <scalbnf+0x11c>
    4d10:	eb000156 	bl	5270 <__aeabi_fmul>
    4d14:	e1a03000 	mov	r3, r0
    4d18:	eaffffda 	b	4c88 <scalbnf+0x54>
    4d1c:	e3c2247f 	bic	r2, r2, #2130706432	; 0x7f000000
    4d20:	e28c0019 	add	r0, r12, #25
    4d24:	e3c22502 	bic	r2, r2, #8388608	; 0x800000
    4d28:	e1820b80 	orr	r0, r2, r0, lsl #23
    4d2c:	e3a01433 	mov	r1, #855638016	; 0x33000000
    4d30:	eb00014e 	bl	5270 <__aeabi_fmul>
    4d34:	e1a03000 	mov	r3, r0
    4d38:	eaffffd2 	b	4c88 <scalbnf+0x54>
    4d3c:	7f7fffff 	.word	0x7f7fffff
    4d40:	ffff3cb0 	.word	0xffff3cb0
    4d44:	7f800000 	.word	0x7f800000
    4d48:	0000c350 	.word	0x0000c350
    4d4c:	0da24260 	.word	0x0da24260
    4d50:	7149f2ca 	.word	0x7149f2ca

00004d54 <copysignf>:
    4d54:	e2011102 	and	r1, r1, #-2147483648	; 0x80000000
    4d58:	e3c00102 	bic	r0, r0, #-2147483648	; 0x80000000
    4d5c:	e1810000 	orr	r0, r1, r0
    4d60:	e12fff1e 	bx	lr

00004d64 <__aeabi_uidiv>:
    4d64:	e2512001 	subs	r2, r1, #1
    4d68:	012fff1e 	bxeq	lr
    4d6c:	3a000036 	bcc	4e4c <__aeabi_uidiv+0xe8>
    4d70:	e1500001 	cmp	r0, r1
    4d74:	9a000022 	bls	4e04 <__aeabi_uidiv+0xa0>
    4d78:	e1110002 	tst	r1, r2
    4d7c:	0a000023 	beq	4e10 <__aeabi_uidiv+0xac>
    4d80:	e311020e 	tst	r1, #-536870912	; 0xe0000000
    4d84:	01a01181 	lsleq	r1, r1, #3
    4d88:	03a03008 	moveq	r3, #8
    4d8c:	13a03001 	movne	r3, #1
    4d90:	e3510201 	cmp	r1, #268435456	; 0x10000000
    4d94:	31510000 	cmpcc	r1, r0
    4d98:	31a01201 	lslcc	r1, r1, #4
    4d9c:	31a03203 	lslcc	r3, r3, #4
    4da0:	3afffffa 	bcc	4d90 <__aeabi_uidiv+0x2c>
    4da4:	e3510102 	cmp	r1, #-2147483648	; 0x80000000
    4da8:	31510000 	cmpcc	r1, r0
    4dac:	31a01081 	lslcc	r1, r1, #1
    4db0:	31a03083 	lslcc	r3, r3, #1
    4db4:	3afffffa 	bcc	4da4 <__aeabi_uidiv+0x40>
    4db8:	e3a02000 	mov	r2, #0
    4dbc:	e1500001 	cmp	r0, r1
    4dc0:	20400001 	subcs	r0, r0, r1
    4dc4:	21822003 	orrcs	r2, r2, r3
    4dc8:	e15000a1 	cmp	r0, r1, lsr #1
    4dcc:	204000a1 	subcs	r0, r0, r1, lsr #1
    4dd0:	218220a3 	orrcs	r2, r2, r3, lsr #1
    4dd4:	e1500121 	cmp	r0, r1, lsr #2
    4dd8:	20400121 	subcs	r0, r0, r1, lsr #2
    4ddc:	21822123 	orrcs	r2, r2, r3, lsr #2
    4de0:	e15001a1 	cmp	r0, r1, lsr #3
    4de4:	204001a1 	subcs	r0, r0, r1, lsr #3
    4de8:	218221a3 	orrcs	r2, r2, r3, lsr #3
    4dec:	e3500000 	cmp	r0, #0
    4df0:	11b03223 	lsrsne	r3, r3, #4
    4df4:	11a01221 	lsrne	r1, r1, #4
    4df8:	1affffef 	bne	4dbc <__aeabi_uidiv+0x58>
    4dfc:	e1a00002 	mov	r0, r2
    4e00:	e12fff1e 	bx	lr
    4e04:	03a00001 	moveq	r0, #1
    4e08:	13a00000 	movne	r0, #0
    4e0c:	e12fff1e 	bx	lr
    4e10:	e3510801 	cmp	r1, #65536	; 0x10000
    4e14:	21a01821 	lsrcs	r1, r1, #16
    4e18:	23a02010 	movcs	r2, #16
    4e1c:	33a02000 	movcc	r2, #0
    4e20:	e3510c01 	cmp	r1, #256	; 0x100
    4e24:	21a01421 	lsrcs	r1, r1, #8
    4e28:	22822008 	addcs	r2, r2, #8
    4e2c:	e3510010 	cmp	r1, #16
    4e30:	21a01221 	lsrcs	r1, r1, #4
    4e34:	22822004 	addcs	r2, r2, #4
    4e38:	e3510004 	cmp	r1, #4
    4e3c:	82822003 	addhi	r2, r2, #3
    4e40:	908220a1 	addls	r2, r2, r1, lsr #1
    4e44:	e1a00230 	lsr	r0, r0, r2
    4e48:	e12fff1e 	bx	lr
    4e4c:	e3500000 	cmp	r0, #0
    4e50:	13e00000 	mvnne	r0, #0
    4e54:	ea000059 	b	4fc0 <__aeabi_idiv0>

00004e58 <__aeabi_uidivmod>:
    4e58:	e3510000 	cmp	r1, #0
    4e5c:	0afffffa 	beq	4e4c <__aeabi_uidiv+0xe8>
    4e60:	e92d4003 	push	{r0, r1, lr}
    4e64:	ebffffbe 	bl	4d64 <__aeabi_uidiv>
    4e68:	e8bd4006 	pop	{r1, r2, lr}
    4e6c:	e0030092 	mul	r3, r2, r0
    4e70:	e0411003 	sub	r1, r1, r3
    4e74:	e12fff1e 	bx	lr

00004e78 <__aeabi_idiv>:
    4e78:	e3510000 	cmp	r1, #0
    4e7c:	0a000043 	beq	4f90 <.divsi3_skip_div0_test+0x110>

00004e80 <.divsi3_skip_div0_test>:
    4e80:	e020c001 	eor	r12, r0, r1
    4e84:	42611000 	rsbmi	r1, r1, #0
    4e88:	e2512001 	subs	r2, r1, #1
    4e8c:	0a000027 	beq	4f30 <.divsi3_skip_div0_test+0xb0>
    4e90:	e1b03000 	movs	r3, r0
    4e94:	42603000 	rsbmi	r3, r0, #0
    4e98:	e1530001 	cmp	r3, r1
    4e9c:	9a000026 	bls	4f3c <.divsi3_skip_div0_test+0xbc>
    4ea0:	e1110002 	tst	r1, r2
    4ea4:	0a000028 	beq	4f4c <.divsi3_skip_div0_test+0xcc>
    4ea8:	e311020e 	tst	r1, #-536870912	; 0xe0000000
    4eac:	01a01181 	lsleq	r1, r1, #3
    4eb0:	03a02008 	moveq	r2, #8
    4eb4:	13a02001 	movne	r2, #1
    4eb8:	e3510201 	cmp	r1, #268435456	; 0x10000000
    4ebc:	31510003 	cmpcc	r1, r3
    4ec0:	31a01201 	lslcc	r1, r1, #4
    4ec4:	31a02202 	lslcc	r2, r2, #4
    4ec8:	3afffffa 	bcc	4eb8 <.divsi3_skip_div0_test+0x38>
    4ecc:	e3510102 	cmp	r1, #-2147483648	; 0x80000000
    4ed0:	31510003 	cmpcc	r1, r3
    4ed4:	31a01081 	lslcc	r1, r1, #1
    4ed8:	31a02082 	lslcc	r2, r2, #1
    4edc:	3afffffa 	bcc	4ecc <.divsi3_skip_div0_test+0x4c>
    4ee0:	e3a00000 	mov	r0, #0
    4ee4:	e1530001 	cmp	r3, r1
    4ee8:	20433001 	subcs	r3, r3, r1
    4eec:	21800002 	orrcs	r0, r0, r2
    4ef0:	e15300a1 	cmp	r3, r1, lsr #1
    4ef4:	204330a1 	subcs	r3, r3, r1, lsr #1
    4ef8:	218000a2 	orrcs	r0, r0, r2, lsr #1
    4efc:	e1530121 	cmp	r3, r1, lsr #2
    4f00:	20433121 	subcs	r3, r3, r1, lsr #2
    4f04:	21800122 	orrcs	r0, r0, r2, lsr #2
    4f08:	e15301a1 	cmp	r3, r1, lsr #3
    4f0c:	204331a1 	subcs	r3, r3, r1, lsr #3
    4f10:	218001a2 	orrcs	r0, r0, r2, lsr #3
    4f14:	e3530000 	cmp	r3, #0
    4f18:	11b02222 	lsrsne	r2, r2, #4
    4f1c:	11a01221 	lsrne	r1, r1, #4
    4f20:	1affffef 	bne	4ee4 <.divsi3_skip_div0_test+0x64>
    4f24:	e35c0000 	cmp	r12, #0
    4f28:	42600000 	rsbmi	r0, r0, #0
    4f2c:	e12fff1e 	bx	lr
    4f30:	e13c0000 	teq	r12, r0
    4f34:	42600000 	rsbmi	r0, r0, #0
    4f38:	e12fff1e 	bx	lr
    4f3c:	33a00000 	movcc	r0, #0
    4f40:	01a00fcc 	asreq	r0, r12, #31
    4f44:	03800001 	orreq	r0, r0, #1
    4f48:	e12fff1e 	bx	lr
    4f4c:	e3510801 	cmp	r1, #65536	; 0x10000
    4f50:	21a01821 	lsrcs	r1, r1, #16
    4f54:	23a02010 	movcs	r2, #16
    4f58:	33a02000 	movcc	r2, #0
    4f5c:	e3510c01 	cmp	r1, #256	; 0x100
    4f60:	21a01421 	lsrcs	r1, r1, #8
    4f64:	22822008 	addcs	r2, r2, #8
    4f68:	e3510010 	cmp	r1, #16
    4f6c:	21a01221 	lsrcs	r1, r1, #4
    4f70:	22822004 	addcs	r2, r2, #4
    4f74:	e3510004 	cmp	r1, #4
    4f78:	82822003 	addhi	r2, r2, #3
    4f7c:	908220a1 	addls	r2, r2, r1, lsr #1
    4f80:	e35c0000 	cmp	r12, #0
    4f84:	e1a00233 	lsr	r0, r3, r2
    4f88:	42600000 	rsbmi	r0, r0, #0
    4f8c:	e12fff1e 	bx	lr
    4f90:	e3500000 	cmp	r0, #0
    4f94:	c3e00102 	mvngt	r0, #-2147483648	; 0x80000000
    4f98:	b3a00102 	movlt	r0, #-2147483648	; 0x80000000
    4f9c:	ea000007 	b	4fc0 <__aeabi_idiv0>

00004fa0 <__aeabi_idivmod>:
    4fa0:	e3510000 	cmp	r1, #0
    4fa4:	0afffff9 	beq	4f90 <.divsi3_skip_div0_test+0x110>
    4fa8:	e92d4003 	push	{r0, r1, lr}
    4fac:	ebffffb3 	bl	4e80 <.divsi3_skip_div0_test>
    4fb0:	e8bd4006 	pop	{r1, r2, lr}
    4fb4:	e0030092 	mul	r3, r2, r0
    4fb8:	e0411003 	sub	r1, r1, r3
    4fbc:	e12fff1e 	bx	lr

00004fc0 <__aeabi_idiv0>:
    4fc0:	e12fff1e 	bx	lr

00004fc4 <__aeabi_frsub>:
    4fc4:	e2200102 	eor	r0, r0, #-2147483648	; 0x80000000
    4fc8:	ea000000 	b	4fd0 <__addsf3>

00004fcc <__aeabi_fsub>:
    4fcc:	e2211102 	eor	r1, r1, #-2147483648	; 0x80000000

00004fd0 <__addsf3>:
    4fd0:	e1b02080 	lsls	r2, r0, #1
    4fd4:	11b03081 	lslsne	r3, r1, #1
    4fd8:	11320003 	teqne	r2, r3
    4fdc:	11f0cc42 	mvnsne	r12, r2, asr #24
    4fe0:	11f0cc43 	mvnsne	r12, r3, asr #24
    4fe4:	0a000047 	beq	5108 <__addsf3+0x138>
    4fe8:	e1a02c22 	lsr	r2, r2, #24
    4fec:	e0723c23 	rsbs	r3, r2, r3, lsr #24
    4ff0:	c0822003 	addgt	r2, r2, r3
    4ff4:	c0201001 	eorgt	r1, r0, r1
    4ff8:	c0210000 	eorgt	r0, r1, r0
    4ffc:	c0201001 	eorgt	r1, r0, r1
    5000:	b2633000 	rsblt	r3, r3, #0
    5004:	e3530019 	cmp	r3, #25
    5008:	812fff1e 	bxhi	lr
    500c:	e3100102 	tst	r0, #-2147483648	; 0x80000000
    5010:	e3800502 	orr	r0, r0, #8388608	; 0x800000
    5014:	e3c004ff 	bic	r0, r0, #-16777216	; 0xff000000
    5018:	12600000 	rsbne	r0, r0, #0
    501c:	e3110102 	tst	r1, #-2147483648	; 0x80000000
    5020:	e3811502 	orr	r1, r1, #8388608	; 0x800000
    5024:	e3c114ff 	bic	r1, r1, #-16777216	; 0xff000000
    5028:	12611000 	rsbne	r1, r1, #0
    502c:	e1320003 	teq	r2, r3
    5030:	0a00002e 	beq	50f0 <__addsf3+0x120>
    5034:	e2422001 	sub	r2, r2, #1
    5038:	e0900351 	adds	r0, r0, r1, asr r3
    503c:	e2633020 	rsb	r3, r3, #32
    5040:	e1a01311 	lsl	r1, r1, r3
    5044:	e2003102 	and	r3, r0, #-2147483648	; 0x80000000
    5048:	5a000001 	bpl	5054 <__addsf3+0x84>
    504c:	e2711000 	rsbs	r1, r1, #0
    5050:	e2e00000 	rsc	r0, r0, #0
    5054:	e3500502 	cmp	r0, #8388608	; 0x800000
    5058:	3a00000b 	bcc	508c <__addsf3+0xbc>
    505c:	e3500401 	cmp	r0, #16777216	; 0x1000000
    5060:	3a000004 	bcc	5078 <__addsf3+0xa8>
    5064:	e1b000a0 	lsrs	r0, r0, #1
    5068:	e1a01061 	rrx	r1, r1
    506c:	e2822001 	add	r2, r2, #1
    5070:	e35200fe 	cmp	r2, #254	; 0xfe
    5074:	2a000038 	bcs	515c <__addsf3+0x18c>
    5078:	e3510102 	cmp	r1, #-2147483648	; 0x80000000
    507c:	e0a00b82 	adc	r0, r0, r2, lsl #23
    5080:	03c00001 	biceq	r0, r0, #1
    5084:	e1800003 	orr	r0, r0, r3
    5088:	e12fff1e 	bx	lr
    508c:	e1b01081 	lsls	r1, r1, #1
    5090:	e0a00000 	adc	r0, r0, r0
    5094:	e3100502 	tst	r0, #8388608	; 0x800000
    5098:	e2422001 	sub	r2, r2, #1
    509c:	1afffff5 	bne	5078 <__addsf3+0xa8>
    50a0:	e1b0c620 	lsrs	r12, r0, #12
    50a4:	01a00600 	lsleq	r0, r0, #12
    50a8:	0242200c 	subeq	r2, r2, #12
    50ac:	e31008ff 	tst	r0, #16711680	; 0xff0000
    50b0:	01a00400 	lsleq	r0, r0, #8
    50b4:	02422008 	subeq	r2, r2, #8
    50b8:	e310060f 	tst	r0, #15728640	; 0xf00000
    50bc:	01a00200 	lsleq	r0, r0, #4
    50c0:	02422004 	subeq	r2, r2, #4
    50c4:	e3100503 	tst	r0, #12582912	; 0xc00000
    50c8:	01a00100 	lsleq	r0, r0, #2
    50cc:	02422002 	subeq	r2, r2, #2
    50d0:	e3500502 	cmp	r0, #8388608	; 0x800000
    50d4:	31a00080 	lslcc	r0, r0, #1
    50d8:	e2d22000 	sbcs	r2, r2, #0
    50dc:	a0800b82 	addge	r0, r0, r2, lsl #23
    50e0:	b2622000 	rsblt	r2, r2, #0
    50e4:	a1800003 	orrge	r0, r0, r3
    50e8:	b1830230 	orrlt	r0, r3, r0, lsr r2
    50ec:	e12fff1e 	bx	lr
    50f0:	e3320000 	teq	r2, #0
    50f4:	e2211502 	eor	r1, r1, #8388608	; 0x800000
    50f8:	02200502 	eoreq	r0, r0, #8388608	; 0x800000
    50fc:	02822001 	addeq	r2, r2, #1
    5100:	12433001 	subne	r3, r3, #1
    5104:	eaffffca 	b	5034 <__addsf3+0x64>
    5108:	e1a03081 	lsl	r3, r1, #1
    510c:	e1f0cc42 	mvns	r12, r2, asr #24
    5110:	11f0cc43 	mvnsne	r12, r3, asr #24
    5114:	0a000013 	beq	5168 <__addsf3+0x198>
    5118:	e1320003 	teq	r2, r3
    511c:	0a000002 	beq	512c <__addsf3+0x15c>
    5120:	e3320000 	teq	r2, #0
    5124:	01a00001 	moveq	r0, r1
    5128:	e12fff1e 	bx	lr
    512c:	e1300001 	teq	r0, r1
    5130:	13a00000 	movne	r0, #0
    5134:	112fff1e 	bxne	lr
    5138:	e31204ff 	tst	r2, #-16777216	; 0xff000000
    513c:	1a000002 	bne	514c <__addsf3+0x17c>
    5140:	e1b00080 	lsls	r0, r0, #1
    5144:	23800102 	orrcs	r0, r0, #-2147483648	; 0x80000000
    5148:	e12fff1e 	bx	lr
    514c:	e2922402 	adds	r2, r2, #33554432	; 0x2000000
    5150:	32800502 	addcc	r0, r0, #8388608	; 0x800000
    5154:	312fff1e 	bxcc	lr
    5158:	e2003102 	and	r3, r0, #-2147483648	; 0x80000000
    515c:	e383047f 	orr	r0, r3, #2130706432	; 0x7f000000
    5160:	e3800502 	orr	r0, r0, #8388608	; 0x800000
    5164:	e12fff1e 	bx	lr
    5168:	e1f02c42 	mvns	r2, r2, asr #24
    516c:	11a00001 	movne	r0, r1
    5170:	01f03c43 	mvnseq	r3, r3, asr #24
    5174:	11a01000 	movne	r1, r0
    5178:	e1b02480 	lsls	r2, r0, #9
    517c:	01b03481 	lslseq	r3, r1, #9
    5180:	01300001 	teqeq	r0, r1
    5184:	13800501 	orrne	r0, r0, #4194304	; 0x400000
    5188:	e12fff1e 	bx	lr

0000518c <__aeabi_ui2f>:
    518c:	e3a03000 	mov	r3, #0
    5190:	ea000001 	b	519c <__aeabi_i2f+0x8>

00005194 <__aeabi_i2f>:
    5194:	e2103102 	ands	r3, r0, #-2147483648	; 0x80000000
    5198:	42600000 	rsbmi	r0, r0, #0
    519c:	e1b0c000 	movs	r12, r0
    51a0:	012fff1e 	bxeq	lr
    51a4:	e383344b 	orr	r3, r3, #1258291200	; 0x4b000000
    51a8:	e1a01000 	mov	r1, r0
    51ac:	e3a00000 	mov	r0, #0
    51b0:	ea00000f 	b	51f4 <__aeabi_l2f+0x30>

000051b4 <__aeabi_ul2f>:
    51b4:	e1902001 	orrs	r2, r0, r1
    51b8:	012fff1e 	bxeq	lr
    51bc:	e3a03000 	mov	r3, #0
    51c0:	ea000005 	b	51dc <__aeabi_l2f+0x18>

000051c4 <__aeabi_l2f>:
    51c4:	e1902001 	orrs	r2, r0, r1
    51c8:	012fff1e 	bxeq	lr
    51cc:	e2113102 	ands	r3, r1, #-2147483648	; 0x80000000
    51d0:	5a000001 	bpl	51dc <__aeabi_l2f+0x18>
    51d4:	e2700000 	rsbs	r0, r0, #0
    51d8:	e2e11000 	rsc	r1, r1, #0
    51dc:	e1b0c001 	movs	r12, r1
    51e0:	01a0c000 	moveq	r12, r0
    51e4:	01a01000 	moveq	r1, r0
    51e8:	03a00000 	moveq	r0, #0
    51ec:	e383345b 	orr	r3, r3, #1526726656	; 0x5b000000
    51f0:	02433201 	subeq	r3, r3, #268435456	; 0x10000000
    51f4:	e2433502 	sub	r3, r3, #8388608	; 0x800000
    51f8:	e3a02017 	mov	r2, #23
    51fc:	e35c0801 	cmp	r12, #65536	; 0x10000
    5200:	21a0c82c 	lsrcs	r12, r12, #16
    5204:	22422010 	subcs	r2, r2, #16
    5208:	e35c0c01 	cmp	r12, #256	; 0x100
    520c:	21a0c42c 	lsrcs	r12, r12, #8
    5210:	22422008 	subcs	r2, r2, #8
    5214:	e35c0010 	cmp	r12, #16
    5218:	21a0c22c 	lsrcs	r12, r12, #4
    521c:	22422004 	subcs	r2, r2, #4
    5220:	e35c0004 	cmp	r12, #4
    5224:	22422002 	subcs	r2, r2, #2
    5228:	304220ac 	subcc	r2, r2, r12, lsr #1
    522c:	e05221ac 	subs	r2, r2, r12, lsr #3
    5230:	e0433b82 	sub	r3, r3, r2, lsl #23
    5234:	ba000006 	blt	5254 <__aeabi_l2f+0x90>
    5238:	e0833211 	add	r3, r3, r1, lsl r2
    523c:	e1a0c210 	lsl	r12, r0, r2
    5240:	e2622020 	rsb	r2, r2, #32
    5244:	e35c0102 	cmp	r12, #-2147483648	; 0x80000000
    5248:	e0a30230 	adc	r0, r3, r0, lsr r2
    524c:	03c00001 	biceq	r0, r0, #1
    5250:	e12fff1e 	bx	lr
    5254:	e2822020 	add	r2, r2, #32
    5258:	e1a0c211 	lsl	r12, r1, r2
    525c:	e2622020 	rsb	r2, r2, #32
    5260:	e190008c 	orrs	r0, r0, r12, lsl #1
    5264:	e0a30231 	adc	r0, r3, r1, lsr r2
    5268:	01c00fac 	biceq	r0, r0, r12, lsr #31
    526c:	e12fff1e 	bx	lr

00005270 <__aeabi_fmul>:
    5270:	e3a0c0ff 	mov	r12, #255	; 0xff
    5274:	e01c2ba0 	ands	r2, r12, r0, lsr #23
    5278:	101c3ba1 	andsne	r3, r12, r1, lsr #23
    527c:	1132000c 	teqne	r2, r12
    5280:	1133000c 	teqne	r3, r12
    5284:	0a00003e 	beq	5384 <__aeabi_fmul+0x114>
    5288:	e0822003 	add	r2, r2, r3
    528c:	e020c001 	eor	r12, r0, r1
    5290:	e1b00480 	lsls	r0, r0, #9
    5294:	11b01481 	lslsne	r1, r1, #9
    5298:	0a000010 	beq	52e0 <__aeabi_fmul+0x70>
    529c:	e3a03302 	mov	r3, #134217728	; 0x8000000
    52a0:	e18302a0 	orr	r0, r3, r0, lsr #5
    52a4:	e18312a1 	orr	r1, r3, r1, lsr #5
    52a8:	e0813190 	umull	r3, r1, r0, r1
    52ac:	e20c0102 	and	r0, r12, #-2147483648	; 0x80000000
    52b0:	e3510502 	cmp	r1, #8388608	; 0x800000
    52b4:	31a01081 	lslcc	r1, r1, #1
    52b8:	31811fa3 	orrcc	r1, r1, r3, lsr #31
    52bc:	31a03083 	lslcc	r3, r3, #1
    52c0:	e1800001 	orr	r0, r0, r1
    52c4:	e2c2207f 	sbc	r2, r2, #127	; 0x7f
    52c8:	e35200fd 	cmp	r2, #253	; 0xfd
    52cc:	8a00000f 	bhi	5310 <__aeabi_fmul+0xa0>
    52d0:	e3530102 	cmp	r3, #-2147483648	; 0x80000000
    52d4:	e0a00b82 	adc	r0, r0, r2, lsl #23
    52d8:	03c00001 	biceq	r0, r0, #1
    52dc:	e12fff1e 	bx	lr
    52e0:	e3300000 	teq	r0, #0
    52e4:	e20cc102 	and	r12, r12, #-2147483648	; 0x80000000
    52e8:	01a01481 	lsleq	r1, r1, #9
    52ec:	e18c04a0 	orr	r0, r12, r0, lsr #9
    52f0:	e18004a1 	orr	r0, r0, r1, lsr #9
    52f4:	e252207f 	subs	r2, r2, #127	; 0x7f
    52f8:	c27230ff 	rsbsgt	r3, r2, #255	; 0xff
    52fc:	c1800b82 	orrgt	r0, r0, r2, lsl #23
    5300:	c12fff1e 	bxgt	lr
    5304:	e3800502 	orr	r0, r0, #8388608	; 0x800000
    5308:	e3a03000 	mov	r3, #0
    530c:	e2522001 	subs	r2, r2, #1
    5310:	ca000035 	bgt	53ec <__aeabi_fmul+0x17c>
    5314:	e3720019 	cmn	r2, #25
    5318:	d2000102 	andle	r0, r0, #-2147483648	; 0x80000000
    531c:	d12fff1e 	bxle	lr
    5320:	e2622000 	rsb	r2, r2, #0
    5324:	e1b01080 	lsls	r1, r0, #1
    5328:	e1a01231 	lsr	r1, r1, r2
    532c:	e2622020 	rsb	r2, r2, #32
    5330:	e1a0c210 	lsl	r12, r0, r2
    5334:	e1b00061 	rrxs	r0, r1
    5338:	e2a00000 	adc	r0, r0, #0
    533c:	e193308c 	orrs	r3, r3, r12, lsl #1
    5340:	01c00fac 	biceq	r0, r0, r12, lsr #31
    5344:	e12fff1e 	bx	lr
    5348:	e3320000 	teq	r2, #0
    534c:	e200c102 	and	r12, r0, #-2147483648	; 0x80000000
    5350:	01a00080 	lsleq	r0, r0, #1
    5354:	03100502 	tsteq	r0, #8388608	; 0x800000
    5358:	02422001 	subeq	r2, r2, #1
    535c:	0afffffb 	beq	5350 <__aeabi_fmul+0xe0>
    5360:	e180000c 	orr	r0, r0, r12
    5364:	e3330000 	teq	r3, #0
    5368:	e201c102 	and	r12, r1, #-2147483648	; 0x80000000
    536c:	01a01081 	lsleq	r1, r1, #1
    5370:	03110502 	tsteq	r1, #8388608	; 0x800000
    5374:	02433001 	subeq	r3, r3, #1
    5378:	0afffffb 	beq	536c <__aeabi_fmul+0xfc>
    537c:	e181100c 	orr	r1, r1, r12
    5380:	eaffffc0 	b	5288 <__aeabi_fmul+0x18>
    5384:	e00c3ba1 	and	r3, r12, r1, lsr #23
    5388:	e132000c 	teq	r2, r12
    538c:	1133000c 	teqne	r3, r12
    5390:	0a000005 	beq	53ac <__aeabi_fmul+0x13c>
    5394:	e3d0c102 	bics	r12, r0, #-2147483648	; 0x80000000
    5398:	13d1c102 	bicsne	r12, r1, #-2147483648	; 0x80000000
    539c:	1affffe9 	bne	5348 <__aeabi_fmul+0xd8>
    53a0:	e0200001 	eor	r0, r0, r1
    53a4:	e2000102 	and	r0, r0, #-2147483648	; 0x80000000
    53a8:	e12fff1e 	bx	lr
    53ac:	e3300000 	teq	r0, #0
    53b0:	13300102 	teqne	r0, #-2147483648	; 0x80000000
    53b4:	01a00001 	moveq	r0, r1
    53b8:	13310000 	teqne	r1, #0
    53bc:	13310102 	teqne	r1, #-2147483648	; 0x80000000
    53c0:	0a00000d 	beq	53fc <__aeabi_fmul+0x18c>
    53c4:	e132000c 	teq	r2, r12
    53c8:	1a000001 	bne	53d4 <__aeabi_fmul+0x164>
    53cc:	e1b02480 	lsls	r2, r0, #9
    53d0:	1a000009 	bne	53fc <__aeabi_fmul+0x18c>
    53d4:	e133000c 	teq	r3, r12
    53d8:	1a000002 	bne	53e8 <__aeabi_fmul+0x178>
    53dc:	e1b03481 	lsls	r3, r1, #9
    53e0:	11a00001 	movne	r0, r1
    53e4:	1a000004 	bne	53fc <__aeabi_fmul+0x18c>
    53e8:	e0200001 	eor	r0, r0, r1
    53ec:	e2000102 	and	r0, r0, #-2147483648	; 0x80000000
    53f0:	e380047f 	orr	r0, r0, #2130706432	; 0x7f000000
    53f4:	e3800502 	orr	r0, r0, #8388608	; 0x800000
    53f8:	e12fff1e 	bx	lr
    53fc:	e380047f 	orr	r0, r0, #2130706432	; 0x7f000000
    5400:	e3800503 	orr	r0, r0, #12582912	; 0xc00000
    5404:	e12fff1e 	bx	lr

00005408 <__aeabi_fdiv>:
    5408:	e3a0c0ff 	mov	r12, #255	; 0xff
    540c:	e01c2ba0 	ands	r2, r12, r0, lsr #23
    5410:	101c3ba1 	andsne	r3, r12, r1, lsr #23
    5414:	1132000c 	teqne	r2, r12
    5418:	1133000c 	teqne	r3, r12
    541c:	0a00003a 	beq	550c <__aeabi_fdiv+0x104>
    5420:	e0422003 	sub	r2, r2, r3
    5424:	e020c001 	eor	r12, r0, r1
    5428:	e1b01481 	lsls	r1, r1, #9
    542c:	e1a00480 	lsl	r0, r0, #9
    5430:	0a00001c 	beq	54a8 <__aeabi_fdiv+0xa0>
    5434:	e3a03201 	mov	r3, #268435456	; 0x10000000
    5438:	e1831221 	orr	r1, r3, r1, lsr #4
    543c:	e1833220 	orr	r3, r3, r0, lsr #4
    5440:	e20c0102 	and	r0, r12, #-2147483648	; 0x80000000
    5444:	e1530001 	cmp	r3, r1
    5448:	31a03083 	lslcc	r3, r3, #1
    544c:	e2a2207d 	adc	r2, r2, #125	; 0x7d
    5450:	e3a0c502 	mov	r12, #8388608	; 0x800000
    5454:	e1530001 	cmp	r3, r1
    5458:	20433001 	subcs	r3, r3, r1
    545c:	2180000c 	orrcs	r0, r0, r12
    5460:	e15300a1 	cmp	r3, r1, lsr #1
    5464:	204330a1 	subcs	r3, r3, r1, lsr #1
    5468:	218000ac 	orrcs	r0, r0, r12, lsr #1
    546c:	e1530121 	cmp	r3, r1, lsr #2
    5470:	20433121 	subcs	r3, r3, r1, lsr #2
    5474:	2180012c 	orrcs	r0, r0, r12, lsr #2
    5478:	e15301a1 	cmp	r3, r1, lsr #3
    547c:	204331a1 	subcs	r3, r3, r1, lsr #3
    5480:	218001ac 	orrcs	r0, r0, r12, lsr #3
    5484:	e1b03203 	lsls	r3, r3, #4
    5488:	11b0c22c 	lsrsne	r12, r12, #4
    548c:	1afffff0 	bne	5454 <__aeabi_fdiv+0x4c>
    5490:	e35200fd 	cmp	r2, #253	; 0xfd
    5494:	8affff9d 	bhi	5310 <__aeabi_fmul+0xa0>
    5498:	e1530001 	cmp	r3, r1
    549c:	e0a00b82 	adc	r0, r0, r2, lsl #23
    54a0:	03c00001 	biceq	r0, r0, #1
    54a4:	e12fff1e 	bx	lr
    54a8:	e20cc102 	and	r12, r12, #-2147483648	; 0x80000000
    54ac:	e18c04a0 	orr	r0, r12, r0, lsr #9
    54b0:	e292207f 	adds	r2, r2, #127	; 0x7f
    54b4:	c27230ff 	rsbsgt	r3, r2, #255	; 0xff
    54b8:	c1800b82 	orrgt	r0, r0, r2, lsl #23
    54bc:	c12fff1e 	bxgt	lr
    54c0:	e3800502 	orr	r0, r0, #8388608	; 0x800000
    54c4:	e3a03000 	mov	r3, #0
    54c8:	e2522001 	subs	r2, r2, #1
    54cc:	eaffff8f 	b	5310 <__aeabi_fmul+0xa0>
    54d0:	e3320000 	teq	r2, #0
    54d4:	e200c102 	and	r12, r0, #-2147483648	; 0x80000000
    54d8:	01a00080 	lsleq	r0, r0, #1
    54dc:	03100502 	tsteq	r0, #8388608	; 0x800000
    54e0:	02422001 	subeq	r2, r2, #1
    54e4:	0afffffb 	beq	54d8 <__aeabi_fdiv+0xd0>
    54e8:	e180000c 	orr	r0, r0, r12
    54ec:	e3330000 	teq	r3, #0
    54f0:	e201c102 	and	r12, r1, #-2147483648	; 0x80000000
    54f4:	01a01081 	lsleq	r1, r1, #1
    54f8:	03110502 	tsteq	r1, #8388608	; 0x800000
    54fc:	02433001 	subeq	r3, r3, #1
    5500:	0afffffb 	beq	54f4 <__aeabi_fdiv+0xec>
    5504:	e181100c 	orr	r1, r1, r12
    5508:	eaffffc4 	b	5420 <__aeabi_fdiv+0x18>
    550c:	e00c3ba1 	and	r3, r12, r1, lsr #23
    5510:	e132000c 	teq	r2, r12
    5514:	1a000005 	bne	5530 <__aeabi_fdiv+0x128>
    5518:	e1b02480 	lsls	r2, r0, #9
    551c:	1affffb6 	bne	53fc <__aeabi_fmul+0x18c>
    5520:	e133000c 	teq	r3, r12
    5524:	1affffaf 	bne	53e8 <__aeabi_fmul+0x178>
    5528:	e1a00001 	mov	r0, r1
    552c:	eaffffb2 	b	53fc <__aeabi_fmul+0x18c>
    5530:	e133000c 	teq	r3, r12
    5534:	1a000003 	bne	5548 <__aeabi_fdiv+0x140>
    5538:	e1b03481 	lsls	r3, r1, #9
    553c:	0affff97 	beq	53a0 <__aeabi_fmul+0x130>
    5540:	e1a00001 	mov	r0, r1
    5544:	eaffffac 	b	53fc <__aeabi_fmul+0x18c>
    5548:	e3d0c102 	bics	r12, r0, #-2147483648	; 0x80000000
    554c:	13d1c102 	bicsne	r12, r1, #-2147483648	; 0x80000000
    5550:	1affffde 	bne	54d0 <__aeabi_fdiv+0xc8>
    5554:	e3d02102 	bics	r2, r0, #-2147483648	; 0x80000000
    5558:	1affffa2 	bne	53e8 <__aeabi_fmul+0x178>
    555c:	e3d13102 	bics	r3, r1, #-2147483648	; 0x80000000
    5560:	1affff8e 	bne	53a0 <__aeabi_fmul+0x130>
    5564:	eaffffa4 	b	53fc <__aeabi_fmul+0x18c>

00005568 <__gesf2>:
    5568:	e3e0c000 	mvn	r12, #0
    556c:	ea000002 	b	557c <__cmpsf2+0x4>

00005570 <__lesf2>:
    5570:	e3a0c001 	mov	r12, #1
    5574:	ea000000 	b	557c <__cmpsf2+0x4>

00005578 <__cmpsf2>:
    5578:	e3a0c001 	mov	r12, #1
    557c:	e52dc004 	push	{r12}		; (str r12, [sp, #-4]!)
    5580:	e1a02080 	lsl	r2, r0, #1
    5584:	e1a03081 	lsl	r3, r1, #1
    5588:	e1f0cc42 	mvns	r12, r2, asr #24
    558c:	11f0cc43 	mvnsne	r12, r3, asr #24
    5590:	0a000007 	beq	55b4 <__cmpsf2+0x3c>
    5594:	e28dd004 	add	sp, sp, #4
    5598:	e192c0a3 	orrs	r12, r2, r3, lsr #1
    559c:	11300001 	teqne	r0, r1
    55a0:	50520003 	subspl	r0, r2, r3
    55a4:	81a00fc1 	asrhi	r0, r1, #31
    55a8:	31e00fc1 	mvncc	r0, r1, asr #31
    55ac:	13800001 	orrne	r0, r0, #1
    55b0:	e12fff1e 	bx	lr
    55b4:	e1f0cc42 	mvns	r12, r2, asr #24
    55b8:	1a000001 	bne	55c4 <__cmpsf2+0x4c>
    55bc:	e1b0c480 	lsls	r12, r0, #9
    55c0:	1a000003 	bne	55d4 <__cmpsf2+0x5c>
    55c4:	e1f0cc43 	mvns	r12, r3, asr #24
    55c8:	1afffff1 	bne	5594 <__cmpsf2+0x1c>
    55cc:	e1b0c481 	lsls	r12, r1, #9
    55d0:	0affffef 	beq	5594 <__cmpsf2+0x1c>
    55d4:	e49d0004 	pop	{r0}		; (ldr r0, [sp], #4)
    55d8:	e12fff1e 	bx	lr

000055dc <__aeabi_cfrcmple>:
    55dc:	e1a0c000 	mov	r12, r0
    55e0:	e1a00001 	mov	r0, r1
    55e4:	e1a0100c 	mov	r1, r12
    55e8:	eaffffff 	b	55ec <__aeabi_cfcmpeq>

000055ec <__aeabi_cfcmpeq>:
    55ec:	e92d400f 	push	{r0, r1, r2, r3, lr}
    55f0:	ebffffe0 	bl	5578 <__cmpsf2>
    55f4:	e3500000 	cmp	r0, #0
    55f8:	43700000 	cmnmi	r0, #0
    55fc:	e8bd400f 	pop	{r0, r1, r2, r3, lr}
    5600:	e12fff1e 	bx	lr

00005604 <__aeabi_fcmpeq>:
    5604:	e52de008 	str	lr, [sp, #-8]!
    5608:	ebfffff7 	bl	55ec <__aeabi_cfcmpeq>
    560c:	03a00001 	moveq	r0, #1
    5610:	13a00000 	movne	r0, #0
    5614:	e49de008 	ldr	lr, [sp], #8
    5618:	e12fff1e 	bx	lr

0000561c <__aeabi_fcmplt>:
    561c:	e52de008 	str	lr, [sp, #-8]!
    5620:	ebfffff1 	bl	55ec <__aeabi_cfcmpeq>
    5624:	33a00001 	movcc	r0, #1
    5628:	23a00000 	movcs	r0, #0
    562c:	e49de008 	ldr	lr, [sp], #8
    5630:	e12fff1e 	bx	lr

00005634 <__aeabi_fcmple>:
    5634:	e52de008 	str	lr, [sp, #-8]!
    5638:	ebffffeb 	bl	55ec <__aeabi_cfcmpeq>
    563c:	93a00001 	movls	r0, #1
    5640:	83a00000 	movhi	r0, #0
    5644:	e49de008 	ldr	lr, [sp], #8
    5648:	e12fff1e 	bx	lr

0000564c <__aeabi_fcmpge>:
    564c:	e52de008 	str	lr, [sp, #-8]!
    5650:	ebffffe1 	bl	55dc <__aeabi_cfrcmple>
    5654:	93a00001 	movls	r0, #1
    5658:	83a00000 	movhi	r0, #0
    565c:	e49de008 	ldr	lr, [sp], #8
    5660:	e12fff1e 	bx	lr

00005664 <__aeabi_fcmpgt>:
    5664:	e52de008 	str	lr, [sp, #-8]!
    5668:	ebffffdb 	bl	55dc <__aeabi_cfrcmple>
    566c:	33a00001 	movcc	r0, #1
    5670:	23a00000 	movcs	r0, #0
    5674:	e49de008 	ldr	lr, [sp], #8
    5678:	e12fff1e 	bx	lr

0000567c <__aeabi_f2iz>:
    567c:	e1a02080 	lsl	r2, r0, #1
    5680:	e352047f 	cmp	r2, #2130706432	; 0x7f000000
    5684:	3a000008 	bcc	56ac <__aeabi_f2iz+0x30>
    5688:	e3a0309e 	mov	r3, #158	; 0x9e
    568c:	e0532c22 	subs	r2, r3, r2, lsr #24
    5690:	9a000007 	bls	56b4 <__aeabi_f2iz+0x38>
    5694:	e1a03400 	lsl	r3, r0, #8
    5698:	e3833102 	orr	r3, r3, #-2147483648	; 0x80000000
    569c:	e3100102 	tst	r0, #-2147483648	; 0x80000000
    56a0:	e1a00233 	lsr	r0, r3, r2
    56a4:	12600000 	rsbne	r0, r0, #0
    56a8:	e12fff1e 	bx	lr
    56ac:	e3a00000 	mov	r0, #0
    56b0:	e12fff1e 	bx	lr
    56b4:	e3720061 	cmn	r2, #97	; 0x61
    56b8:	1a000001 	bne	56c4 <__aeabi_f2iz+0x48>
    56bc:	e1b02480 	lsls	r2, r0, #9
    56c0:	1a000002 	bne	56d0 <__aeabi_f2iz+0x54>
    56c4:	e2100102 	ands	r0, r0, #-2147483648	; 0x80000000
    56c8:	03e00102 	mvneq	r0, #-2147483648	; 0x80000000
    56cc:	e12fff1e 	bx	lr
    56d0:	e3a00000 	mov	r0, #0
    56d4:	e12fff1e 	bx	lr

000056d8 <atexit>:
    56d8:	e1a01000 	mov	r1, r0
    56dc:	e3a00000 	mov	r0, #0
    56e0:	e92d4008 	push	{r3, lr}
    56e4:	e1a02000 	mov	r2, r0
    56e8:	e1a03000 	mov	r3, r0
    56ec:	eb000091 	bl	5938 <__register_exitproc>
    56f0:	e8bd4008 	pop	{r3, lr}
    56f4:	e12fff1e 	bx	lr

000056f8 <exit>:
    56f8:	e92d4008 	push	{r3, lr}
    56fc:	e3a01000 	mov	r1, #0
    5700:	e1a04000 	mov	r4, r0
    5704:	eb0000c8 	bl	5a2c <__call_exitprocs>
    5708:	e59f3018 	ldr	r3, [pc, #24]	; 5728 <exit+0x30>
    570c:	e5930000 	ldr	r0, [r3]
    5710:	e590303c 	ldr	r3, [r0, #60]	; 0x3c
    5714:	e3530000 	cmp	r3, #0
    5718:	11a0e00f 	movne	lr, pc
    571c:	112fff13 	bxne	r3
    5720:	e1a00004 	mov	r0, r4
    5724:	eb00014c 	bl	5c5c <_exit>
    5728:	000082f8 	.word	0x000082f8

0000572c <memset>:
    572c:	e3520003 	cmp	r2, #3
    5730:	e52d4004 	push	{r4}		; (str r4, [sp, #-4]!)
    5734:	e20110ff 	and	r1, r1, #255	; 0xff
    5738:	8a000008 	bhi	5760 <memset+0x34>
    573c:	e3520000 	cmp	r2, #0
    5740:	0a000004 	beq	5758 <memset+0x2c>
    5744:	e1a03000 	mov	r3, r0
    5748:	e0822000 	add	r2, r2, r0
    574c:	e4c31001 	strb	r1, [r3], #1
    5750:	e1530002 	cmp	r3, r2
    5754:	1afffffc 	bne	574c <memset+0x20>
    5758:	e8bd0010 	ldmfd	sp!, {r4}
    575c:	e12fff1e 	bx	lr
    5760:	e3100003 	tst	r0, #3
    5764:	e0802002 	add	r2, r0, r2
    5768:	0a000007 	beq	578c <memset+0x60>
    576c:	e280c001 	add	r12, r0, #1
    5770:	e20c3003 	and	r3, r12, #3
    5774:	e3530000 	cmp	r3, #0
    5778:	e54c1001 	strb	r1, [r12, #-1]
    577c:	e1a0300c 	mov	r3, r12
    5780:	e28cc001 	add	r12, r12, #1
    5784:	1afffff9 	bne	5770 <memset+0x44>
    5788:	ea000000 	b	5790 <memset+0x64>
    578c:	e1a03000 	mov	r3, r0
    5790:	e0634002 	rsb	r4, r3, r2
    5794:	e081c401 	add	r12, r1, r1, lsl #8
    5798:	e354003f 	cmp	r4, #63	; 0x3f
    579c:	e08cc80c 	add	r12, r12, r12, lsl #16
    57a0:	da00001a 	ble	5810 <memset+0xe4>
    57a4:	e583c000 	str	r12, [r3]
    57a8:	e583c004 	str	r12, [r3, #4]
    57ac:	e583c008 	str	r12, [r3, #8]
    57b0:	e583c00c 	str	r12, [r3, #12]
    57b4:	e583c010 	str	r12, [r3, #16]
    57b8:	e583c014 	str	r12, [r3, #20]
    57bc:	e583c018 	str	r12, [r3, #24]
    57c0:	e583c01c 	str	r12, [r3, #28]
    57c4:	e583c020 	str	r12, [r3, #32]
    57c8:	e583c024 	str	r12, [r3, #36]	; 0x24
    57cc:	e583c028 	str	r12, [r3, #40]	; 0x28
    57d0:	e583c02c 	str	r12, [r3, #44]	; 0x2c
    57d4:	e583c030 	str	r12, [r3, #48]	; 0x30
    57d8:	e583c034 	str	r12, [r3, #52]	; 0x34
    57dc:	e583c038 	str	r12, [r3, #56]	; 0x38
    57e0:	e583c03c 	str	r12, [r3, #60]	; 0x3c
    57e4:	e2833040 	add	r3, r3, #64	; 0x40
    57e8:	e0634002 	rsb	r4, r3, r2
    57ec:	e354003f 	cmp	r4, #63	; 0x3f
    57f0:	caffffeb 	bgt	57a4 <memset+0x78>
    57f4:	ea000005 	b	5810 <memset+0xe4>
    57f8:	e583c000 	str	r12, [r3]
    57fc:	e583c004 	str	r12, [r3, #4]
    5800:	e583c008 	str	r12, [r3, #8]
    5804:	e583c00c 	str	r12, [r3, #12]
    5808:	e2833010 	add	r3, r3, #16
    580c:	e0634002 	rsb	r4, r3, r2
    5810:	e354000f 	cmp	r4, #15
    5814:	cafffff7 	bgt	57f8 <memset+0xcc>
    5818:	e3540003 	cmp	r4, #3
    581c:	da000006 	ble	583c <memset+0x110>
    5820:	e2834004 	add	r4, r3, #4
    5824:	e0643002 	rsb	r3, r4, r2
    5828:	e3530003 	cmp	r3, #3
    582c:	e504c004 	str	r12, [r4, #-4]
    5830:	e1a03004 	mov	r3, r4
    5834:	e2844004 	add	r4, r4, #4
    5838:	cafffff9 	bgt	5824 <memset+0xf8>
    583c:	e1520003 	cmp	r2, r3
    5840:	9affffc4 	bls	5758 <memset+0x2c>
    5844:	e2833001 	add	r3, r3, #1
    5848:	e2822001 	add	r2, r2, #1
    584c:	e5431001 	strb	r1, [r3, #-1]
    5850:	e2833001 	add	r3, r3, #1
    5854:	e1530002 	cmp	r3, r2
    5858:	1afffffb 	bne	584c <memset+0x120>
    585c:	eaffffbd 	b	5758 <memset+0x2c>

00005860 <srand>:
    5860:	e59f3010 	ldr	r3, [pc, #16]	; 5878 <srand+0x18>
    5864:	e5933000 	ldr	r3, [r3]
    5868:	e3a02000 	mov	r2, #0
    586c:	e58300a8 	str	r0, [r3, #168]	; 0xa8
    5870:	e58320ac 	str	r2, [r3, #172]	; 0xac
    5874:	e12fff1e 	bx	lr
    5878:	000083b8 	.word	0x000083b8

0000587c <rand>:
    587c:	e52d4004 	push	{r4}		; (str r4, [sp, #-4]!)
    5880:	e59f3044 	ldr	r3, [pc, #68]	; 58cc <rand+0x50>
    5884:	e593c000 	ldr	r12, [r3]
    5888:	e59f4040 	ldr	r4, [pc, #64]	; 58d0 <rand+0x54>
    588c:	e59c20a8 	ldr	r2, [r12, #168]	; 0xa8
    5890:	e0040492 	mul	r4, r2, r4
    5894:	e59c10ac 	ldr	r1, [r12, #172]	; 0xac
    5898:	e59f3034 	ldr	r3, [pc, #52]	; 58d4 <rand+0x58>
    589c:	e0244193 	mla	r4, r3, r1, r4
    58a0:	e0810392 	umull	r0, r1, r2, r3
    58a4:	e3a02001 	mov	r2, #1
    58a8:	e0922000 	adds	r2, r2, r0
    58ac:	e0841001 	add	r1, r4, r1
    58b0:	e3a03000 	mov	r3, #0
    58b4:	e0a33001 	adc	r3, r3, r1
    58b8:	e58c20a8 	str	r2, [r12, #168]	; 0xa8
    58bc:	e58c30ac 	str	r3, [r12, #172]	; 0xac
    58c0:	e3c30102 	bic	r0, r3, #-2147483648	; 0x80000000
    58c4:	e8bd0010 	ldmfd	sp!, {r4}
    58c8:	e12fff1e 	bx	lr
    58cc:	000083b8 	.word	0x000083b8
    58d0:	5851f42d 	.word	0x5851f42d
    58d4:	4c957f2d 	.word	0x4c957f2d

000058d8 <strlen>:
    58d8:	e3c01003 	bic	r1, r0, #3
    58dc:	e2100003 	ands	r0, r0, #3
    58e0:	e2600000 	rsb	r0, r0, #0
    58e4:	e4913004 	ldr	r3, [r1], #4
    58e8:	e280c004 	add	r12, r0, #4
    58ec:	e1a0c18c 	lsl	r12, r12, #3
    58f0:	e3e02000 	mvn	r2, #0
    58f4:	11833c32 	orrne	r3, r3, r2, lsr r12
    58f8:	e3a0c001 	mov	r12, #1
    58fc:	e18cc40c 	orr	r12, r12, r12, lsl #8
    5900:	e18cc80c 	orr	r12, r12, r12, lsl #16
    5904:	e043200c 	sub	r2, r3, r12
    5908:	e1c22003 	bic	r2, r2, r3
    590c:	e012238c 	ands	r2, r2, r12, lsl #7
    5910:	04913004 	ldreq	r3, [r1], #4
    5914:	02800004 	addeq	r0, r0, #4
    5918:	0afffff9 	beq	5904 <strlen+0x2c>
    591c:	e31300ff 	tst	r3, #255	; 0xff
    5920:	12800001 	addne	r0, r0, #1
    5924:	13130cff 	tstne	r3, #65280	; 0xff00
    5928:	12800001 	addne	r0, r0, #1
    592c:	131308ff 	tstne	r3, #16711680	; 0xff0000
    5930:	12800001 	addne	r0, r0, #1
    5934:	e12fff1e 	bx	lr

00005938 <__register_exitproc>:
    5938:	e59fc0e4 	ldr	r12, [pc, #228]	; 5a24 <__register_exitproc+0xec>
    593c:	e92d41f0 	push	{r4, r5, r6, r7, r8, lr}
    5940:	e59c4000 	ldr	r4, [r12]
    5944:	e594c148 	ldr	r12, [r4, #328]	; 0x148
    5948:	e35c0000 	cmp	r12, #0
    594c:	0284cf53 	addeq	r12, r4, #332	; 0x14c
    5950:	e59c5004 	ldr	r5, [r12, #4]
    5954:	0584c148 	streq	r12, [r4, #328]	; 0x148
    5958:	e355001f 	cmp	r5, #31
    595c:	e24dd010 	sub	sp, sp, #16
    5960:	e1a06000 	mov	r6, r0
    5964:	da000015 	ble	59c0 <__register_exitproc+0x88>
    5968:	e59f00b8 	ldr	r0, [pc, #184]	; 5a28 <__register_exitproc+0xf0>
    596c:	e3500000 	cmp	r0, #0
    5970:	1a000001 	bne	597c <__register_exitproc+0x44>
    5974:	e3e00000 	mvn	r0, #0
    5978:	ea000018 	b	59e0 <__register_exitproc+0xa8>
    597c:	e3a00e19 	mov	r0, #400	; 0x190
    5980:	e58d100c 	str	r1, [sp, #12]
    5984:	e58d2008 	str	r2, [sp, #8]
    5988:	e58d3004 	str	r3, [sp, #4]
    598c:	e320f000 	nop	{0}
    5990:	e250c000 	subs	r12, r0, #0
    5994:	e59d100c 	ldr	r1, [sp, #12]
    5998:	e59d2008 	ldr	r2, [sp, #8]
    599c:	e59d3004 	ldr	r3, [sp, #4]
    59a0:	0afffff3 	beq	5974 <__register_exitproc+0x3c>
    59a4:	e5945148 	ldr	r5, [r4, #328]	; 0x148
    59a8:	e3a00000 	mov	r0, #0
    59ac:	e58c0004 	str	r0, [r12, #4]
    59b0:	e58c5000 	str	r5, [r12]
    59b4:	e584c148 	str	r12, [r4, #328]	; 0x148
    59b8:	e58c0188 	str	r0, [r12, #392]	; 0x188
    59bc:	e58c018c 	str	r0, [r12, #396]	; 0x18c
    59c0:	e3560000 	cmp	r6, #0
    59c4:	e59c4004 	ldr	r4, [r12, #4]
    59c8:	1a000007 	bne	59ec <__register_exitproc+0xb4>
    59cc:	e2843002 	add	r3, r4, #2
    59d0:	e2844001 	add	r4, r4, #1
    59d4:	e78c1103 	str	r1, [r12, r3, lsl #2]
    59d8:	e58c4004 	str	r4, [r12, #4]
    59dc:	e3a00000 	mov	r0, #0
    59e0:	e28dd010 	add	sp, sp, #16
    59e4:	e8bd41f0 	pop	{r4, r5, r6, r7, r8, lr}
    59e8:	e12fff1e 	bx	lr
    59ec:	e3a00001 	mov	r0, #1
    59f0:	e1a00410 	lsl	r0, r0, r4
    59f4:	e08c8104 	add	r8, r12, r4, lsl #2
    59f8:	e3560002 	cmp	r6, #2
    59fc:	e59c7188 	ldr	r7, [r12, #392]	; 0x188
    5a00:	e5883108 	str	r3, [r8, #264]	; 0x108
    5a04:	059c318c 	ldreq	r3, [r12, #396]	; 0x18c
    5a08:	e1877000 	orr	r7, r7, r0
    5a0c:	01830000 	orreq	r0, r3, r0
    5a10:	e1a05008 	mov	r5, r8
    5a14:	e5882088 	str	r2, [r8, #136]	; 0x88
    5a18:	e58c7188 	str	r7, [r12, #392]	; 0x188
    5a1c:	058c018c 	streq	r0, [r12, #396]	; 0x18c
    5a20:	eaffffe9 	b	59cc <__register_exitproc+0x94>
    5a24:	000082f8 	.word	0x000082f8
    5a28:	00000000 	.word	0x00000000

00005a2c <__call_exitprocs>:
    5a2c:	e92d4ff0 	push	{r4, r5, r6, r7, r8, r9, r10, r11, lr}
    5a30:	e59f3168 	ldr	r3, [pc, #360]	; 5ba0 <__call_exitprocs+0x174>
    5a34:	e5933000 	ldr	r3, [r3]
    5a38:	e24dd014 	sub	sp, sp, #20
    5a3c:	e58d3004 	str	r3, [sp, #4]
    5a40:	e2833f52 	add	r3, r3, #328	; 0x148
    5a44:	e58d0008 	str	r0, [sp, #8]
    5a48:	e58d300c 	str	r3, [sp, #12]
    5a4c:	e1a07001 	mov	r7, r1
    5a50:	e3a08001 	mov	r8, #1
    5a54:	e59d3004 	ldr	r3, [sp, #4]
    5a58:	e5936148 	ldr	r6, [r3, #328]	; 0x148
    5a5c:	e3560000 	cmp	r6, #0
    5a60:	e59db00c 	ldr	r11, [sp, #12]
    5a64:	0a000033 	beq	5b38 <__call_exitprocs+0x10c>
    5a68:	e5965004 	ldr	r5, [r6, #4]
    5a6c:	e2554001 	subs	r4, r5, #1
    5a70:	5286a088 	addpl	r10, r6, #136	; 0x88
    5a74:	5285501f 	addpl	r5, r5, #31
    5a78:	508a5105 	addpl	r5, r10, r5, lsl #2
    5a7c:	5a000007 	bpl	5aa0 <__call_exitprocs+0x74>
    5a80:	ea000029 	b	5b2c <__call_exitprocs+0x100>
    5a84:	e5953000 	ldr	r3, [r5]
    5a88:	e1530007 	cmp	r3, r7
    5a8c:	0a000005 	beq	5aa8 <__call_exitprocs+0x7c>
    5a90:	e2444001 	sub	r4, r4, #1
    5a94:	e3740001 	cmn	r4, #1
    5a98:	e2455004 	sub	r5, r5, #4
    5a9c:	0a000022 	beq	5b2c <__call_exitprocs+0x100>
    5aa0:	e3570000 	cmp	r7, #0
    5aa4:	1afffff6 	bne	5a84 <__call_exitprocs+0x58>
    5aa8:	e5963004 	ldr	r3, [r6, #4]
    5aac:	e06a2005 	rsb	r2, r10, r5
    5ab0:	e2433001 	sub	r3, r3, #1
    5ab4:	e0862002 	add	r2, r6, r2
    5ab8:	e1530004 	cmp	r3, r4
    5abc:	e5123078 	ldr	r3, [r2, #-120]	; 0xffffff88
    5ac0:	13a01000 	movne	r1, #0
    5ac4:	05864004 	streq	r4, [r6, #4]
    5ac8:	15021078 	strne	r1, [r2, #-120]	; 0xffffff88
    5acc:	e3530000 	cmp	r3, #0
    5ad0:	0affffee 	beq	5a90 <__call_exitprocs+0x64>
    5ad4:	e1a02418 	lsl	r2, r8, r4
    5ad8:	e5961188 	ldr	r1, [r6, #392]	; 0x188
    5adc:	e1120001 	tst	r2, r1
    5ae0:	e5969004 	ldr	r9, [r6, #4]
    5ae4:	0a000016 	beq	5b44 <__call_exitprocs+0x118>
    5ae8:	e596118c 	ldr	r1, [r6, #396]	; 0x18c
    5aec:	e1120001 	tst	r2, r1
    5af0:	1a000016 	bne	5b50 <__call_exitprocs+0x124>
    5af4:	e59d0008 	ldr	r0, [sp, #8]
    5af8:	e5151080 	ldr	r1, [r5, #-128]	; 0xffffff80
    5afc:	e1a0e00f 	mov	lr, pc
    5b00:	e12fff13 	bx	r3
    5b04:	e5963004 	ldr	r3, [r6, #4]
    5b08:	e1530009 	cmp	r3, r9
    5b0c:	1affffd0 	bne	5a54 <__call_exitprocs+0x28>
    5b10:	e59b3000 	ldr	r3, [r11]
    5b14:	e1530006 	cmp	r3, r6
    5b18:	1affffcd 	bne	5a54 <__call_exitprocs+0x28>
    5b1c:	e2444001 	sub	r4, r4, #1
    5b20:	e3740001 	cmn	r4, #1
    5b24:	e2455004 	sub	r5, r5, #4
    5b28:	1affffdc 	bne	5aa0 <__call_exitprocs+0x74>
    5b2c:	e59f1070 	ldr	r1, [pc, #112]	; 5ba4 <__call_exitprocs+0x178>
    5b30:	e3510000 	cmp	r1, #0
    5b34:	1a000009 	bne	5b60 <__call_exitprocs+0x134>
    5b38:	e28dd014 	add	sp, sp, #20
    5b3c:	e8bd4ff0 	pop	{r4, r5, r6, r7, r8, r9, r10, r11, lr}
    5b40:	e12fff1e 	bx	lr
    5b44:	e1a0e00f 	mov	lr, pc
    5b48:	e12fff13 	bx	r3
    5b4c:	eaffffec 	b	5b04 <__call_exitprocs+0xd8>
    5b50:	e5150080 	ldr	r0, [r5, #-128]	; 0xffffff80
    5b54:	e1a0e00f 	mov	lr, pc
    5b58:	e12fff13 	bx	r3
    5b5c:	eaffffe8 	b	5b04 <__call_exitprocs+0xd8>
    5b60:	e5963004 	ldr	r3, [r6, #4]
    5b64:	e3530000 	cmp	r3, #0
    5b68:	e5963000 	ldr	r3, [r6]
    5b6c:	1a000008 	bne	5b94 <__call_exitprocs+0x168>
    5b70:	e3530000 	cmp	r3, #0
    5b74:	0a000006 	beq	5b94 <__call_exitprocs+0x168>
    5b78:	e1a00006 	mov	r0, r6
    5b7c:	e58b3000 	str	r3, [r11]
    5b80:	e320f000 	nop	{0}
    5b84:	e59b6000 	ldr	r6, [r11]
    5b88:	e3560000 	cmp	r6, #0
    5b8c:	1affffb5 	bne	5a68 <__call_exitprocs+0x3c>
    5b90:	eaffffe8 	b	5b38 <__call_exitprocs+0x10c>
    5b94:	e1a0b006 	mov	r11, r6
    5b98:	e1a06003 	mov	r6, r3
    5b9c:	eafffff9 	b	5b88 <__call_exitprocs+0x15c>
    5ba0:	000082f8 	.word	0x000082f8
    5ba4:	00000000 	.word	0x00000000

00005ba8 <register_fini>:
    5ba8:	e92d4008 	push	{r3, lr}
    5bac:	e59f3010 	ldr	r3, [pc, #16]	; 5bc4 <register_fini+0x1c>
    5bb0:	e3530000 	cmp	r3, #0
    5bb4:	159f000c 	ldrne	r0, [pc, #12]	; 5bc8 <register_fini+0x20>
    5bb8:	1bfffec6 	blne	56d8 <atexit>
    5bbc:	e8bd4008 	pop	{r3, lr}
    5bc0:	e12fff1e 	bx	lr
    5bc4:	00008320 	.word	0x00008320
    5bc8:	00005bcc 	.word	0x00005bcc

00005bcc <__libc_fini_array>:
    5bcc:	e92d4038 	push	{r3, r4, r5, lr}
    5bd0:	e59f5030 	ldr	r5, [pc, #48]	; 5c08 <__libc_fini_array+0x3c>
    5bd4:	e59f4030 	ldr	r4, [pc, #48]	; 5c0c <__libc_fini_array+0x40>
    5bd8:	e0654004 	rsb	r4, r5, r4
    5bdc:	e1b04144 	asrs	r4, r4, #2
    5be0:	10855104 	addne	r5, r5, r4, lsl #2
    5be4:	0a000004 	beq	5bfc <__libc_fini_array+0x30>
    5be8:	e5353004 	ldr	r3, [r5, #-4]!
    5bec:	e1a0e00f 	mov	lr, pc
    5bf0:	e12fff13 	bx	r3
    5bf4:	e2544001 	subs	r4, r4, #1
    5bf8:	1afffffa 	bne	5be8 <__libc_fini_array+0x1c>
    5bfc:	eb0009c7 	bl	8320 <__libc_fini>
    5c00:	e8bd4038 	pop	{r3, r4, r5, lr}
    5c04:	e12fff1e 	bx	lr
    5c08:	00008338 	.word	0x00008338
    5c0c:	0000833c 	.word	0x0000833c

00005c10 <__cs3_premain>:
    5c10:	e92d4008 	push	{r3, lr}
    5c14:	eb00001d 	bl	5c90 <__libc_init_array>
    5c18:	e59f3030 	ldr	r3, [pc, #48]	; 5c50 <__cs3_premain+0x40>
    5c1c:	e3530000 	cmp	r3, #0
    5c20:	15930000 	ldrne	r0, [r3]
    5c24:	01a00003 	moveq	r0, r3
    5c28:	e59f3024 	ldr	r3, [pc, #36]	; 5c54 <__cs3_premain+0x44>
    5c2c:	e3530000 	cmp	r3, #0
    5c30:	15931000 	ldrne	r1, [r3]
    5c34:	01a01003 	moveq	r1, r3
    5c38:	e3a02000 	mov	r2, #0
    5c3c:	ebffe986 	bl	25c <main>
    5c40:	e59f3010 	ldr	r3, [pc, #16]	; 5c58 <__cs3_premain+0x48>
    5c44:	e3530000 	cmp	r3, #0
    5c48:	1bfffeaa 	blne	56f8 <exit>
    5c4c:	eafffffe 	b	5c4c <__cs3_premain+0x3c>
	...
    5c58:	000056f8 	.word	0x000056f8

00005c5c <_exit>:
    5c5c:	e52de004 	push	{lr}		; (str lr, [sp, #-4]!)
    5c60:	e3a00018 	mov	r0, #24
    5c64:	e59f1004 	ldr	r1, [pc, #4]	; 5c70 <_exit+0x14>
    5c68:	ef123456 	svc	0x00123456
    5c6c:	eafffffe 	b	5c6c <_exit+0x10>
    5c70:	00020026 	.word	0x00020026

00005c74 <__cs3_isr_interrupt>:
    5c74:	eafffffe 	b	5c74 <__cs3_isr_interrupt>

00005c78 <__cs3_isr_undef>:
    5c78:	eafffffe 	b	5c78 <__cs3_isr_undef>

00005c7c <__cs3_isr_swi>:
    5c7c:	eafffffe 	b	5c7c <__cs3_isr_swi>

00005c80 <__cs3_isr_pabort>:
    5c80:	eafffffe 	b	5c80 <__cs3_isr_pabort>

00005c84 <__cs3_isr_dabort>:
    5c84:	eafffffe 	b	5c84 <__cs3_isr_dabort>

00005c88 <__cs3_isr_irq>:
    5c88:	eafffffe 	b	5c88 <__cs3_isr_irq>

00005c8c <__cs3_isr_fiq>:
    5c8c:	eafffffe 	b	5c8c <__cs3_isr_fiq>

00005c90 <__libc_init_array>:
    5c90:	e92d4070 	push	{r4, r5, r6, lr}
    5c94:	e59f506c 	ldr	r5, [pc, #108]	; 5d08 <__libc_init_array+0x78>
    5c98:	e59f606c 	ldr	r6, [pc, #108]	; 5d0c <__libc_init_array+0x7c>
    5c9c:	e0656006 	rsb	r6, r5, r6
    5ca0:	e1b06146 	asrs	r6, r6, #2
    5ca4:	12455004 	subne	r5, r5, #4
    5ca8:	13a04000 	movne	r4, #0
    5cac:	0a000005 	beq	5cc8 <__libc_init_array+0x38>
    5cb0:	e5b53004 	ldr	r3, [r5, #4]!
    5cb4:	e2844001 	add	r4, r4, #1
    5cb8:	e1a0e00f 	mov	lr, pc
    5cbc:	e12fff13 	bx	r3
    5cc0:	e1560004 	cmp	r6, r4
    5cc4:	1afffff9 	bne	5cb0 <__libc_init_array+0x20>
    5cc8:	e59f5040 	ldr	r5, [pc, #64]	; 5d10 <__libc_init_array+0x80>
    5ccc:	e59f6040 	ldr	r6, [pc, #64]	; 5d14 <__libc_init_array+0x84>
    5cd0:	e0656006 	rsb	r6, r5, r6
    5cd4:	eb000989 	bl	8300 <_init>
    5cd8:	e1b06146 	asrs	r6, r6, #2
    5cdc:	12455004 	subne	r5, r5, #4
    5ce0:	13a04000 	movne	r4, #0
    5ce4:	0a000005 	beq	5d00 <__libc_init_array+0x70>
    5ce8:	e5b53004 	ldr	r3, [r5, #4]!
    5cec:	e2844001 	add	r4, r4, #1
    5cf0:	e1a0e00f 	mov	lr, pc
    5cf4:	e12fff13 	bx	r3
    5cf8:	e1560004 	cmp	r6, r4
    5cfc:	1afffff9 	bne	5ce8 <__libc_init_array+0x58>
    5d00:	e8bd4070 	pop	{r4, r5, r6, lr}
    5d04:	e12fff1e 	bx	lr
    5d08:	00008318 	.word	0x00008318
    5d0c:	00008318 	.word	0x00008318
    5d10:	00008318 	.word	0x00008318
    5d14:	00008320 	.word	0x00008320

Disassembly of section .rodata:

00005d20 <intToChar>:
    5d20:	33323130 37363534 00003938 41544a0a     0123456789...JTA
    5d30:	41552047 74205452 0a747365 0000203e     G UART test.> ..
    5d40:	6572500a 61207373 6b20796e 74207965     .Press any key t
    5d50:	6f63206f 6e69746e 3e0a6575 00000020     o continue.> ...

00005d60 <colorScale.4664>:
    5d60:	00000037                                7...

00005d64 <colorOffset.4665>:
    5d64:	000000c8                                ....

00005d68 <COSs>:
    5d68:	00000000 3ff00000 91d14e3c 3feffe5c     .......?<N..\..?
    5d78:	b573eab3 3feffb15 fcb923a3 3feff487     ..s....?.#.....?
    5d88:	d5cfaace 3fefec56 d288ce70 3fefe0de     ....V..?p......?
    5d98:	a9fbe76d 3fefd2f1 5c28f5c3 3fefc28f     m......?..(\...?
    5da8:	a0275254 3fefb089 07c84b5e 3fef9b3d     TR'....?^K..=..?
    5db8:	4a2339c1 3fef837b 67381d7e 3fef6944     .9#J{..?~.8gDi.?
    5dc8:	5f06f694 3fef4c98 e8a71de7 3fef2e48     ..._.L.?....H..?
    5dd8:	95e9e1b1 3fef0cb2 1de69ad4 3feee8a7     .......?.......?
    5de8:	37b4a234 3feec2f8 7525460b 3fee9a02     4..7...?.F%u...?
    5df8:	4467381d 3fee6f69 374bc6a8 3fee4189     .8gDio.?..K7.A.?
    5e08:	bc01a36e 3fee1205 1b71758e 3fede00d     n......?.uq....?
    5e18:	559b3d08 3fedab9f 6a7ef9db 3fed74bc     .=.U...?..~j.t.?
    5e28:	5a1cac08 3fed3b64 db8bac71 3fed0068     ...Zd;.?q...h..?
    5e38:	37b4a234 3fecc2f8 6e978d50 3fec8312     4..7...?P..n...?
    5e48:	80346dc6 3fec40b7 23a29c78 3febfcb9     .m4..@.?x..#...?
    5e58:	a1cac083 3febb645 b1c432ca 3feb6e2e     ....E..?.2...n.?
    5e68:	e5604189 3feb22d0 61e4f766 3fead6a1     .A`..".?f..a...?
    5e78:	020c49ba 3fea872b eb1c432d 3fea36e2     .I..+..?-C...6.?
    5e88:	f7ced917 3fe9e353 9652bd3c 3fe98e21     ....S..?<.R.!..?
    5e98:	c6a7ef9e 3fe9374b d1b71759 3fe8de00     ....K7.?Y......?
    5ea8:	6e978d50 3fe88312 9d495183 3fe82680     P..n...?.QI..&.?
    5eb8:	a6b50b0f 3fe7c779 f9096bba 3fe767a0     ....y..?.k...g.?
    5ec8:	6f0068dc 3fe70481 2de00d1b 3fe6a090     .h.o...?...-...?
    5ed8:	7e90ff97 3fe63afb a9fbe76d 3fe5d2f1     ...~.:.?m......?
    5ee8:	67381d7e 3fe56944 6d5cfaad 3fe4fec5     ~.8gDi.?..\m...?
    5ef8:	4e3bcd36 3fe491d1 c0ebedfa 3fe42339     6.;N...?....9#.?
    5f08:	7c84b5dd 3fe3b3d0 12d77319 3fe341f2     ...|...?.s...A.?
    5f18:	f212d773 3fe2cf41 631f8a09 3fe25aee     s...A..?...c.Z.?
    5f28:	65fd8adb 3fe1e4f7 faacd9e8 3fe16d5c     ...e...?....\m.?
    5f38:	d844d014 3fe0f4f0 47ae147b 3fe07ae1     ..D....?{..G.z.?
    5f48:	00000000 3fe00000 94467382 3fdf06f6     .......?.sF....?
    5f58:	ba5e353f 3fde0c49 04189375 3fdd0e56     ?5^.I..?u...V..?
    5f68:	dfa43fe6 3fdc0ebe ded288ce 3fdb0be0     .?.....?.......?
    5f78:	6fd21ff3 3fda075f 92a30553 3fd9013a     ...o_..?S...:..?
    5f88:	474538ef 3fd7f972 8db8bac7 3fd6f006     .8EGr..?.......?
    5f98:	f7ced917 3fd5e353 61e4f766 3fd4d6a1     ....S..?f..a...?
    5fa8:	ef9db22d 3fd3c6a7 7d566cf4 3fd2b6ae     -......?.lV}...?
    5fb8:	2eb1c433 3fd1a36e e00d1b71 3fd0902d     3...n..?q...-..?
    5fc8:	467381d8 3fcef694 cccccccd 3fcccccc     ..sF...?.......?
    5fd8:	9a6b50b1 3fca9c77 6809d495 3fc86c22     .Pk.w..?...h"l.?
    5fe8:	594af4f1 3fc63886 4a8c154d 3fc404ea     ..JY.8.?M..J...?
    5ff8:	3bcd35a8 3fc1d14e a161e4f7 3fbf34d6     .5.;N..?..a..4.?
    6008:	126e978d 3fbac083 3c361134 3fb652bd     ..n....?4.6<.R.?
    6018:	ad42c3ca 3fb1de69 cb295e9e 3faac710     ..B.i..?.^)....?
    6028:	ad42c3ca 3fa1de69 1eb851ec 3f91eb85     ..B.i..?.Q.....?
	...
    6040:	1eb851ec bf91eb85 ad42c3ca bfa1de69     .Q........B.i...
    6050:	cb295e9e bfaac710 ad42c3ca bfb1de69     .^).......B.i...
    6060:	3c361134 bfb652bd 126e978d bfbac083     4.6<.R....n.....
    6070:	a161e4f7 bfbf34d6 3bcd35a8 bfc1d14e     ..a..4...5.;N...
    6080:	4a8c154d bfc404ea 594af4f1 bfc63886     M..J......JY.8..
    6090:	6809d495 bfc86c22 9a6b50b1 bfca9c77     ...h"l...Pk.w...
    60a0:	cccccccd bfcccccc 467381d8 bfcef694     ..........sF....
    60b0:	e00d1b71 bfd0902d 2eb1c433 bfd1a36e     q...-...3...n...
    60c0:	7d566cf4 bfd2b6ae ef9db22d bfd3c6a7     .lV}....-.......
    60d0:	61e4f766 bfd4d6a1 f7ced917 bfd5e353     f..a........S...
    60e0:	8db8bac7 bfd6f006 474538ef bfd7f972     .........8EGr...
    60f0:	92a30553 bfd9013a 6fd21ff3 bfda075f     S...:......o_...
    6100:	ded288ce bfdb0be0 dfa43fe6 bfdc0ebe     .........?......
    6110:	04189375 bfdd0e56 ba5e353f bfde0c49     u...V...?5^.I...
    6120:	94467382 bfdf06f6 00000000 bfe00000     .sF.............
    6130:	47ae147b bfe07ae1 d844d014 bfe0f4f0     {..G.z....D.....
    6140:	faacd9e8 bfe16d5c 65fd8adb bfe1e4f7     ....\m.....e....
    6150:	631f8a09 bfe25aee f212d773 bfe2cf41     ...c.Z..s...A...
    6160:	12d77319 bfe341f2 7c84b5dd bfe3b3d0     .s...A.....|....
    6170:	c0ebedfa bfe42339 4e3bcd36 bfe491d1     ....9#..6.;N....
    6180:	6d5cfaad bfe4fec5 67381d7e bfe56944     ..\m....~.8gDi..
    6190:	a9fbe76d bfe5d2f1 7e90ff97 bfe63afb     m..........~.:..
    61a0:	2de00d1b bfe6a090 6f0068dc bfe70481     ...-.....h.o....
    61b0:	f9096bba bfe767a0 a6b50b0f bfe7c779     .k...g......y...
    61c0:	9d495183 bfe82680 6e978d50 bfe88312     .QI..&..P..n....
    61d0:	d1b71759 bfe8de00 c6a7ef9e bfe9374b     Y...........K7..
    61e0:	9652bd3c bfe98e21 f7ced917 bfe9e353     <.R.!.......S...
    61f0:	eb1c432d bfea36e2 020c49ba bfea872b     -C...6...I..+...
    6200:	61e4f766 bfead6a1 e5604189 bfeb22d0     f..a.....A`.."..
    6210:	b1c432ca bfeb6e2e a1cac083 bfebb645     .2...n......E...
    6220:	23a29c78 bfebfcb9 80346dc6 bfec40b7     x..#.....m4..@..
    6230:	6e978d50 bfec8312 37b4a234 bfecc2f8     P..n....4..7....
    6240:	db8bac71 bfed0068 5a1cac08 bfed3b64     q...h......Zd;..
    6250:	6a7ef9db bfed74bc 559b3d08 bfedab9f     ..~j.t...=.U....
    6260:	1b71758e bfede00d bc01a36e bfee1205     .uq.....n.......
    6270:	374bc6a8 bfee4189 4467381d bfee6f69     ..K7.A...8gDio..
    6280:	7525460b bfee9a02 37b4a234 bfeec2f8     .F%u....4..7....
    6290:	1de69ad4 bfeee8a7 95e9e1b1 bfef0cb2     ................
    62a0:	e8a71de7 bfef2e48 5f06f694 bfef4c98     ....H......_.L..
    62b0:	67381d7e bfef6944 4a2339c1 bfef837b     ~.8gDi...9#J{...
    62c0:	07c84b5e bfef9b3d a0275254 bfefb089     ^K..=...TR'.....
    62d0:	5c28f5c3 bfefc28f a9fbe76d bfefd2f1     ..(\....m.......
    62e0:	d288ce70 bfefe0de d5cfaace bfefec56     p...........V...
    62f0:	fcb923a3 bfeff487 b573eab3 bfeffb15     .#........s.....
    6300:	91d14e3c bfeffe5c 00000000 bff00000     <N..\...........
    6310:	91d14e3c bfeffe5c b573eab3 bfeffb15     <N..\.....s.....
    6320:	fcb923a3 bfeff487 d5cfaace bfefec56     .#..........V...
    6330:	d288ce70 bfefe0de a9fbe76d bfefd2f1     p.......m.......
    6340:	5c28f5c3 bfefc28f a0275254 bfefb089     ..(\....TR'.....
    6350:	07c84b5e bfef9b3d 4a2339c1 bfef837b     ^K..=....9#J{...
    6360:	67381d7e bfef6944 5f06f694 bfef4c98     ~.8gDi....._.L..
    6370:	e8a71de7 bfef2e48 95e9e1b1 bfef0cb2     ....H...........
    6380:	1de69ad4 bfeee8a7 37b4a234 bfeec2f8     ........4..7....
    6390:	7525460b bfee9a02 4467381d bfee6f69     .F%u.....8gDio..
    63a0:	374bc6a8 bfee4189 bc01a36e bfee1205     ..K7.A..n.......
    63b0:	1b71758e bfede00d 559b3d08 bfedab9f     .uq......=.U....
    63c0:	6a7ef9db bfed74bc 5a1cac08 bfed3b64     ..~j.t.....Zd;..
    63d0:	db8bac71 bfed0068 37b4a234 bfecc2f8     q...h...4..7....
    63e0:	6e978d50 bfec8312 80346dc6 bfec40b7     P..n.....m4..@..
    63f0:	23a29c78 bfebfcb9 a1cac083 bfebb645     x..#........E...
    6400:	b1c432ca bfeb6e2e e5604189 bfeb22d0     .2...n...A`.."..
    6410:	61e4f766 bfead6a1 020c49ba bfea872b     f..a.....I..+...
    6420:	eb1c432d bfea36e2 f7ced917 bfe9e353     -C...6......S...
    6430:	9652bd3c bfe98e21 c6a7ef9e bfe9374b     <.R.!.......K7..
    6440:	d1b71759 bfe8de00 6e978d50 bfe88312     Y.......P..n....
    6450:	9d495183 bfe82680 a6b50b0f bfe7c779     .QI..&......y...
    6460:	f9096bba bfe767a0 6f0068dc bfe70481     .k...g...h.o....
    6470:	2de00d1b bfe6a090 7e90ff97 bfe63afb     ...-.......~.:..
    6480:	a9fbe76d bfe5d2f1 67381d7e bfe56944     m.......~.8gDi..
    6490:	6d5cfaad bfe4fec5 4e3bcd36 bfe491d1     ..\m....6.;N....
    64a0:	c0ebedfa bfe42339 7c84b5dd bfe3b3d0     ....9#.....|....
    64b0:	12d77319 bfe341f2 f212d773 bfe2cf41     .s...A..s...A...
    64c0:	631f8a09 bfe25aee 65fd8adb bfe1e4f7     ...c.Z.....e....
    64d0:	faacd9e8 bfe16d5c d844d014 bfe0f4f0     ....\m....D.....
    64e0:	47ae147b bfe07ae1 00000000 bfe00000     {..G.z..........
    64f0:	94467382 bfdf06f6 ba5e353f bfde0c49     .sF.....?5^.I...
    6500:	04189375 bfdd0e56 dfa43fe6 bfdc0ebe     u...V....?......
    6510:	ded288ce bfdb0be0 6fd21ff3 bfda075f     ...........o_...
    6520:	92a30553 bfd9013a 474538ef bfd7f972     S...:....8EGr...
    6530:	8db8bac7 bfd6f006 f7ced917 bfd5e353     ............S...
    6540:	61e4f766 bfd4d6a1 ef9db22d bfd3c6a7     f..a....-.......
    6550:	7d566cf4 bfd2b6ae 2eb1c433 bfd1a36e     .lV}....3...n...
    6560:	e00d1b71 bfd0902d 467381d8 bfcef694     q...-.....sF....
    6570:	cccccccd bfcccccc 9a6b50b1 bfca9c77     .........Pk.w...
    6580:	6809d495 bfc86c22 594af4f1 bfc63886     ...h"l....JY.8..
    6590:	4a8c154d bfc404ea 3bcd35a8 bfc1d14e     M..J.....5.;N...
    65a0:	a161e4f7 bfbf34d6 126e978d bfbac083     ..a..4....n.....
    65b0:	3c361134 bfb652bd ad42c3ca bfb1de69     4.6<.R....B.i...
    65c0:	cb295e9e bfaac710 ad42c3ca bfa1de69     .^).......B.i...
    65d0:	1eb851ec bf91eb85 00000000 80000000     .Q..............
    65e0:	1eb851ec 3f91eb85 ad42c3ca 3fa1de69     .Q.....?..B.i..?
    65f0:	cb295e9e 3faac710 ad42c3ca 3fb1de69     .^)....?..B.i..?
    6600:	3c361134 3fb652bd 126e978d 3fbac083     4.6<.R.?..n....?
    6610:	a161e4f7 3fbf34d6 3bcd35a8 3fc1d14e     ..a..4.?.5.;N..?
    6620:	4a8c154d 3fc404ea 594af4f1 3fc63886     M..J...?..JY.8.?
    6630:	6809d495 3fc86c22 9a6b50b1 3fca9c77     ...h"l.?.Pk.w..?
    6640:	cccccccd 3fcccccc 467381d8 3fcef694     .......?..sF...?
    6650:	e00d1b71 3fd0902d 2eb1c433 3fd1a36e     q...-..?3...n..?
    6660:	7d566cf4 3fd2b6ae ef9db22d 3fd3c6a7     .lV}...?-......?
    6670:	61e4f766 3fd4d6a1 f7ced917 3fd5e353     f..a...?....S..?
    6680:	8db8bac7 3fd6f006 474538ef 3fd7f972     .......?.8EGr..?
    6690:	92a30553 3fd9013a 6fd21ff3 3fda075f     S...:..?...o_..?
    66a0:	ded288ce 3fdb0be0 dfa43fe6 3fdc0ebe     .......?.?.....?
    66b0:	04189375 3fdd0e56 ba5e353f 3fde0c49     u...V..??5^.I..?
    66c0:	94467382 3fdf06f6 00000000 3fe00000     .sF....?.......?
    66d0:	47ae147b 3fe07ae1 d844d014 3fe0f4f0     {..G.z.?..D....?
    66e0:	faacd9e8 3fe16d5c 65fd8adb 3fe1e4f7     ....\m.?...e...?
    66f0:	631f8a09 3fe25aee f212d773 3fe2cf41     ...c.Z.?s...A..?
    6700:	12d77319 3fe341f2 7c84b5dd 3fe3b3d0     .s...A.?...|...?
    6710:	c0ebedfa 3fe42339 4e3bcd36 3fe491d1     ....9#.?6.;N...?
    6720:	6d5cfaad 3fe4fec5 67381d7e 3fe56944     ..\m...?~.8gDi.?
    6730:	a9fbe76d 3fe5d2f1 7e90ff97 3fe63afb     m......?...~.:.?
    6740:	2de00d1b 3fe6a090 6f0068dc 3fe70481     ...-...?.h.o...?
    6750:	f9096bba 3fe767a0 a6b50b0f 3fe7c779     .k...g.?....y..?
    6760:	9d495183 3fe82680 6e978d50 3fe88312     .QI..&.?P..n...?
    6770:	d1b71759 3fe8de00 c6a7ef9e 3fe9374b     Y......?....K7.?
    6780:	9652bd3c 3fe98e21 f7ced917 3fe9e353     <.R.!..?....S..?
    6790:	eb1c432d 3fea36e2 020c49ba 3fea872b     -C...6.?.I..+..?
    67a0:	61e4f766 3fead6a1 e5604189 3feb22d0     f..a...?.A`..".?
    67b0:	b1c432ca 3feb6e2e a1cac083 3febb645     .2...n.?....E..?
    67c0:	23a29c78 3febfcb9 80346dc6 3fec40b7     x..#...?.m4..@.?
    67d0:	6e978d50 3fec8312 37b4a234 3fecc2f8     P..n...?4..7...?
    67e0:	db8bac71 3fed0068 5a1cac08 3fed3b64     q...h..?...Zd;.?
    67f0:	6a7ef9db 3fed74bc 559b3d08 3fedab9f     ..~j.t.?.=.U...?
    6800:	1b71758e 3fede00d bc01a36e 3fee1205     .uq....?n......?
    6810:	374bc6a8 3fee4189 4467381d 3fee6f69     ..K7.A.?.8gDio.?
    6820:	7525460b 3fee9a02 37b4a234 3feec2f8     .F%u...?4..7...?
    6830:	1de69ad4 3feee8a7 95e9e1b1 3fef0cb2     .......?.......?
    6840:	e8a71de7 3fef2e48 5f06f694 3fef4c98     ....H..?..._.L.?
    6850:	67381d7e 3fef6944 4a2339c1 3fef837b     ~.8gDi.?.9#J{..?
    6860:	07c84b5e 3fef9b3d a0275254 3fefb089     ^K..=..?TR'....?
    6870:	5c28f5c3 3fefc28f a9fbe76d 3fefd2f1     ..(\...?m......?
    6880:	d288ce70 3fefe0de d5cfaace 3fefec56     p......?....V..?
    6890:	fcb923a3 3feff487 b573eab3 3feffb15     .#.....?..s....?
    68a0:	91d14e3c 3feffe5c                       <N..\..?

000068a8 <SINs>:
	...
    68b0:	1eb851ec 3f91eb85 ad42c3ca 3fa1de69     .Q.....?..B.i..?
    68c0:	cb295e9e 3faac710 ad42c3ca 3fb1de69     .^)....?..B.i..?
    68d0:	3c361134 3fb652bd 126e978d 3fbac083     4.6<.R.?..n....?
    68e0:	a161e4f7 3fbf34d6 3bcd35a8 3fc1d14e     ..a..4.?.5.;N..?
    68f0:	4a8c154d 3fc404ea 594af4f1 3fc63886     M..J...?..JY.8.?
    6900:	6809d495 3fc86c22 9a6b50b1 3fca9c77     ...h"l.?.Pk.w..?
    6910:	cccccccd 3fcccccc 467381d8 3fcef694     .......?..sF...?
    6920:	e00d1b71 3fd0902d 2eb1c433 3fd1a36e     q...-..?3...n..?
    6930:	7d566cf4 3fd2b6ae ef9db22d 3fd3c6a7     .lV}...?-......?
    6940:	61e4f766 3fd4d6a1 f7ced917 3fd5e353     f..a...?....S..?
    6950:	8db8bac7 3fd6f006 474538ef 3fd7f972     .......?.8EGr..?
    6960:	92a30553 3fd9013a 6fd21ff3 3fda075f     S...:..?...o_..?
    6970:	ded288ce 3fdb0be0 dfa43fe6 3fdc0ebe     .......?.?.....?
    6980:	04189375 3fdd0e56 ba5e353f 3fde0c49     u...V..??5^.I..?
    6990:	94467382 3fdf06f6 00000000 3fe00000     .sF....?.......?
    69a0:	47ae147b 3fe07ae1 d844d014 3fe0f4f0     {..G.z.?..D....?
    69b0:	faacd9e8 3fe16d5c 65fd8adb 3fe1e4f7     ....\m.?...e...?
    69c0:	631f8a09 3fe25aee f212d773 3fe2cf41     ...c.Z.?s...A..?
    69d0:	12d77319 3fe341f2 7c84b5dd 3fe3b3d0     .s...A.?...|...?
    69e0:	c0ebedfa 3fe42339 4e3bcd36 3fe491d1     ....9#.?6.;N...?
    69f0:	6d5cfaad 3fe4fec5 67381d7e 3fe56944     ..\m...?~.8gDi.?
    6a00:	a9fbe76d 3fe5d2f1 7e90ff97 3fe63afb     m......?...~.:.?
    6a10:	2de00d1b 3fe6a090 6f0068dc 3fe70481     ...-...?.h.o...?
    6a20:	f9096bba 3fe767a0 a6b50b0f 3fe7c779     .k...g.?....y..?
    6a30:	9d495183 3fe82680 6e978d50 3fe88312     .QI..&.?P..n...?
    6a40:	d1b71759 3fe8de00 c6a7ef9e 3fe9374b     Y......?....K7.?
    6a50:	9652bd3c 3fe98e21 f7ced917 3fe9e353     <.R.!..?....S..?
    6a60:	eb1c432d 3fea36e2 020c49ba 3fea872b     -C...6.?.I..+..?
    6a70:	61e4f766 3fead6a1 e5604189 3feb22d0     f..a...?.A`..".?
    6a80:	b1c432ca 3feb6e2e a1cac083 3febb645     .2...n.?....E..?
    6a90:	23a29c78 3febfcb9 80346dc6 3fec40b7     x..#...?.m4..@.?
    6aa0:	6e978d50 3fec8312 37b4a234 3fecc2f8     P..n...?4..7...?
    6ab0:	db8bac71 3fed0068 5a1cac08 3fed3b64     q...h..?...Zd;.?
    6ac0:	6a7ef9db 3fed74bc 559b3d08 3fedab9f     ..~j.t.?.=.U...?
    6ad0:	1b71758e 3fede00d bc01a36e 3fee1205     .uq....?n......?
    6ae0:	374bc6a8 3fee4189 4467381d 3fee6f69     ..K7.A.?.8gDio.?
    6af0:	7525460b 3fee9a02 37b4a234 3feec2f8     .F%u...?4..7...?
    6b00:	1de69ad4 3feee8a7 95e9e1b1 3fef0cb2     .......?.......?
    6b10:	e8a71de7 3fef2e48 5f06f694 3fef4c98     ....H..?..._.L.?
    6b20:	67381d7e 3fef6944 4a2339c1 3fef837b     ~.8gDi.?.9#J{..?
    6b30:	07c84b5e 3fef9b3d a0275254 3fefb089     ^K..=..?TR'....?
    6b40:	5c28f5c3 3fefc28f a9fbe76d 3fefd2f1     ..(\...?m......?
    6b50:	d288ce70 3fefe0de d5cfaace 3fefec56     p......?....V..?
    6b60:	fcb923a3 3feff487 b573eab3 3feffb15     .#.....?..s....?
    6b70:	91d14e3c 3feffe5c 00000000 3ff00000     <N..\..?.......?
    6b80:	91d14e3c 3feffe5c b573eab3 3feffb15     <N..\..?..s....?
    6b90:	fcb923a3 3feff487 d5cfaace 3fefec56     .#.....?....V..?
    6ba0:	d288ce70 3fefe0de a9fbe76d 3fefd2f1     p......?m......?
    6bb0:	5c28f5c3 3fefc28f a0275254 3fefb089     ..(\...?TR'....?
    6bc0:	07c84b5e 3fef9b3d 4a2339c1 3fef837b     ^K..=..?.9#J{..?
    6bd0:	67381d7e 3fef6944 5f06f694 3fef4c98     ~.8gDi.?..._.L.?
    6be0:	e8a71de7 3fef2e48 95e9e1b1 3fef0cb2     ....H..?.......?
    6bf0:	1de69ad4 3feee8a7 37b4a234 3feec2f8     .......?4..7...?
    6c00:	7525460b 3fee9a02 4467381d 3fee6f69     .F%u...?.8gDio.?
    6c10:	374bc6a8 3fee4189 bc01a36e 3fee1205     ..K7.A.?n......?
    6c20:	1b71758e 3fede00d 559b3d08 3fedab9f     .uq....?.=.U...?
    6c30:	6a7ef9db 3fed74bc 5a1cac08 3fed3b64     ..~j.t.?...Zd;.?
    6c40:	db8bac71 3fed0068 37b4a234 3fecc2f8     q...h..?4..7...?
    6c50:	6e978d50 3fec8312 80346dc6 3fec40b7     P..n...?.m4..@.?
    6c60:	23a29c78 3febfcb9 a1cac083 3febb645     x..#...?....E..?
    6c70:	b1c432ca 3feb6e2e e5604189 3feb22d0     .2...n.?.A`..".?
    6c80:	61e4f766 3fead6a1 020c49ba 3fea872b     f..a...?.I..+..?
    6c90:	eb1c432d 3fea36e2 f7ced917 3fe9e353     -C...6.?....S..?
    6ca0:	9652bd3c 3fe98e21 c6a7ef9e 3fe9374b     <.R.!..?....K7.?
    6cb0:	d1b71759 3fe8de00 6e978d50 3fe88312     Y......?P..n...?
    6cc0:	9d495183 3fe82680 a6b50b0f 3fe7c779     .QI..&.?....y..?
    6cd0:	f9096bba 3fe767a0 6f0068dc 3fe70481     .k...g.?.h.o...?
    6ce0:	2de00d1b 3fe6a090 7e90ff97 3fe63afb     ...-...?...~.:.?
    6cf0:	a9fbe76d 3fe5d2f1 67381d7e 3fe56944     m......?~.8gDi.?
    6d00:	6d5cfaad 3fe4fec5 4e3bcd36 3fe491d1     ..\m...?6.;N...?
    6d10:	c0ebedfa 3fe42339 7c84b5dd 3fe3b3d0     ....9#.?...|...?
    6d20:	12d77319 3fe341f2 f212d773 3fe2cf41     .s...A.?s...A..?
    6d30:	631f8a09 3fe25aee 65fd8adb 3fe1e4f7     ...c.Z.?...e...?
    6d40:	faacd9e8 3fe16d5c d844d014 3fe0f4f0     ....\m.?..D....?
    6d50:	47ae147b 3fe07ae1 00000000 3fe00000     {..G.z.?.......?
    6d60:	94467382 3fdf06f6 ba5e353f 3fde0c49     .sF....??5^.I..?
    6d70:	04189375 3fdd0e56 dfa43fe6 3fdc0ebe     u...V..?.?.....?
    6d80:	ded288ce 3fdb0be0 6fd21ff3 3fda075f     .......?...o_..?
    6d90:	92a30553 3fd9013a 474538ef 3fd7f972     S...:..?.8EGr..?
    6da0:	8db8bac7 3fd6f006 f7ced917 3fd5e353     .......?....S..?
    6db0:	61e4f766 3fd4d6a1 ef9db22d 3fd3c6a7     f..a...?-......?
    6dc0:	7d566cf4 3fd2b6ae 2eb1c433 3fd1a36e     .lV}...?3...n..?
    6dd0:	e00d1b71 3fd0902d 467381d8 3fcef694     q...-..?..sF...?
    6de0:	cccccccd 3fcccccc 9a6b50b1 3fca9c77     .......?.Pk.w..?
    6df0:	6809d495 3fc86c22 594af4f1 3fc63886     ...h"l.?..JY.8.?
    6e00:	4a8c154d 3fc404ea 3bcd35a8 3fc1d14e     M..J...?.5.;N..?
    6e10:	a161e4f7 3fbf34d6 126e978d 3fbac083     ..a..4.?..n....?
    6e20:	3c361134 3fb652bd ad42c3ca 3fb1de69     4.6<.R.?..B.i..?
    6e30:	cb295e9e 3faac710 ad42c3ca 3fa1de69     .^)....?..B.i..?
    6e40:	1eb851ec 3f91eb85 00000000 00000000     .Q.....?........
    6e50:	1eb851ec bf91eb85 ad42c3ca bfa1de69     .Q........B.i...
    6e60:	cb295e9e bfaac710 ad42c3ca bfb1de69     .^).......B.i...
    6e70:	3c361134 bfb652bd 126e978d bfbac083     4.6<.R....n.....
    6e80:	a161e4f7 bfbf34d6 3bcd35a8 bfc1d14e     ..a..4...5.;N...
    6e90:	4a8c154d bfc404ea 594af4f1 bfc63886     M..J......JY.8..
    6ea0:	6809d495 bfc86c22 9a6b50b1 bfca9c77     ...h"l...Pk.w...
    6eb0:	cccccccd bfcccccc 467381d8 bfcef694     ..........sF....
    6ec0:	e00d1b71 bfd0902d 2eb1c433 bfd1a36e     q...-...3...n...
    6ed0:	7d566cf4 bfd2b6ae ef9db22d bfd3c6a7     .lV}....-.......
    6ee0:	61e4f766 bfd4d6a1 f7ced917 bfd5e353     f..a........S...
    6ef0:	8db8bac7 bfd6f006 474538ef bfd7f972     .........8EGr...
    6f00:	92a30553 bfd9013a 6fd21ff3 bfda075f     S...:......o_...
    6f10:	ded288ce bfdb0be0 dfa43fe6 bfdc0ebe     .........?......
    6f20:	04189375 bfdd0e56 ba5e353f bfde0c49     u...V...?5^.I...
    6f30:	94467382 bfdf06f6 00000000 bfe00000     .sF.............
    6f40:	47ae147b bfe07ae1 d844d014 bfe0f4f0     {..G.z....D.....
    6f50:	faacd9e8 bfe16d5c 65fd8adb bfe1e4f7     ....\m.....e....
    6f60:	631f8a09 bfe25aee f212d773 bfe2cf41     ...c.Z..s...A...
    6f70:	12d77319 bfe341f2 7c84b5dd bfe3b3d0     .s...A.....|....
    6f80:	c0ebedfa bfe42339 4e3bcd36 bfe491d1     ....9#..6.;N....
    6f90:	6d5cfaad bfe4fec5 67381d7e bfe56944     ..\m....~.8gDi..
    6fa0:	a9fbe76d bfe5d2f1 7e90ff97 bfe63afb     m..........~.:..
    6fb0:	2de00d1b bfe6a090 6f0068dc bfe70481     ...-.....h.o....
    6fc0:	f9096bba bfe767a0 a6b50b0f bfe7c779     .k...g......y...
    6fd0:	9d495183 bfe82680 6e978d50 bfe88312     .QI..&..P..n....
    6fe0:	d1b71759 bfe8de00 c6a7ef9e bfe9374b     Y...........K7..
    6ff0:	9652bd3c bfe98e21 f7ced917 bfe9e353     <.R.!.......S...
    7000:	eb1c432d bfea36e2 020c49ba bfea872b     -C...6...I..+...
    7010:	61e4f766 bfead6a1 e5604189 bfeb22d0     f..a.....A`.."..
    7020:	b1c432ca bfeb6e2e a1cac083 bfebb645     .2...n......E...
    7030:	23a29c78 bfebfcb9 80346dc6 bfec40b7     x..#.....m4..@..
    7040:	6e978d50 bfec8312 37b4a234 bfecc2f8     P..n....4..7....
    7050:	db8bac71 bfed0068 5a1cac08 bfed3b64     q...h......Zd;..
    7060:	6a7ef9db bfed74bc 559b3d08 bfedab9f     ..~j.t...=.U....
    7070:	1b71758e bfede00d bc01a36e bfee1205     .uq.....n.......
    7080:	374bc6a8 bfee4189 4467381d bfee6f69     ..K7.A...8gDio..
    7090:	7525460b bfee9a02 37b4a234 bfeec2f8     .F%u....4..7....
    70a0:	1de69ad4 bfeee8a7 95e9e1b1 bfef0cb2     ................
    70b0:	e8a71de7 bfef2e48 5f06f694 bfef4c98     ....H......_.L..
    70c0:	67381d7e bfef6944 4a2339c1 bfef837b     ~.8gDi...9#J{...
    70d0:	07c84b5e bfef9b3d a0275254 bfefb089     ^K..=...TR'.....
    70e0:	5c28f5c3 bfefc28f a9fbe76d bfefd2f1     ..(\....m.......
    70f0:	d288ce70 bfefe0de d5cfaace bfefec56     p...........V...
    7100:	fcb923a3 bfeff487 b573eab3 bfeffb15     .#........s.....
    7110:	91d14e3c bfeffe5c 00000000 bff00000     <N..\...........
    7120:	91d14e3c bfeffe5c b573eab3 bfeffb15     <N..\.....s.....
    7130:	fcb923a3 bfeff487 d5cfaace bfefec56     .#..........V...
    7140:	d288ce70 bfefe0de a9fbe76d bfefd2f1     p.......m.......
    7150:	5c28f5c3 bfefc28f a0275254 bfefb089     ..(\....TR'.....
    7160:	07c84b5e bfef9b3d 4a2339c1 bfef837b     ^K..=....9#J{...
    7170:	67381d7e bfef6944 5f06f694 bfef4c98     ~.8gDi....._.L..
    7180:	e8a71de7 bfef2e48 95e9e1b1 bfef0cb2     ....H...........
    7190:	1de69ad4 bfeee8a7 37b4a234 bfeec2f8     ........4..7....
    71a0:	7525460b bfee9a02 4467381d bfee6f69     .F%u.....8gDio..
    71b0:	374bc6a8 bfee4189 bc01a36e bfee1205     ..K7.A..n.......
    71c0:	1b71758e bfede00d 559b3d08 bfedab9f     .uq......=.U....
    71d0:	6a7ef9db bfed74bc 5a1cac08 bfed3b64     ..~j.t.....Zd;..
    71e0:	db8bac71 bfed0068 37b4a234 bfecc2f8     q...h...4..7....
    71f0:	6e978d50 bfec8312 80346dc6 bfec40b7     P..n.....m4..@..
    7200:	23a29c78 bfebfcb9 a1cac083 bfebb645     x..#........E...
    7210:	b1c432ca bfeb6e2e e5604189 bfeb22d0     .2...n...A`.."..
    7220:	61e4f766 bfead6a1 020c49ba bfea872b     f..a.....I..+...
    7230:	eb1c432d bfea36e2 f7ced917 bfe9e353     -C...6......S...
    7240:	9652bd3c bfe98e21 c6a7ef9e bfe9374b     <.R.!.......K7..
    7250:	d1b71759 bfe8de00 6e978d50 bfe88312     Y.......P..n....
    7260:	9d495183 bfe82680 a6b50b0f bfe7c779     .QI..&......y...
    7270:	f9096bba bfe767a0 6f0068dc bfe70481     .k...g...h.o....
    7280:	2de00d1b bfe6a090 7e90ff97 bfe63afb     ...-.......~.:..
    7290:	a9fbe76d bfe5d2f1 67381d7e bfe56944     m.......~.8gDi..
    72a0:	6d5cfaad bfe4fec5 4e3bcd36 bfe491d1     ..\m....6.;N....
    72b0:	c0ebedfa bfe42339 7c84b5dd bfe3b3d0     ....9#.....|....
    72c0:	12d77319 bfe341f2 f212d773 bfe2cf41     .s...A..s...A...
    72d0:	631f8a09 bfe25aee 65fd8adb bfe1e4f7     ...c.Z.....e....
    72e0:	faacd9e8 bfe16d5c d844d014 bfe0f4f0     ....\m....D.....
    72f0:	47ae147b bfe07ae1 00000000 bfe00000     {..G.z..........
    7300:	94467382 bfdf06f6 ba5e353f bfde0c49     .sF.....?5^.I...
    7310:	04189375 bfdd0e56 dfa43fe6 bfdc0ebe     u...V....?......
    7320:	ded288ce bfdb0be0 6fd21ff3 bfda075f     ...........o_...
    7330:	92a30553 bfd9013a 474538ef bfd7f972     S...:....8EGr...
    7340:	8db8bac7 bfd6f006 f7ced917 bfd5e353     ............S...
    7350:	61e4f766 bfd4d6a1 ef9db22d bfd3c6a7     f..a....-.......
    7360:	7d566cf4 bfd2b6ae 2eb1c433 bfd1a36e     .lV}....3...n...
    7370:	e00d1b71 bfd0902d 467381d8 bfcef694     q...-.....sF....
    7380:	cccccccd bfcccccc 9a6b50b1 bfca9c77     .........Pk.w...
    7390:	6809d495 bfc86c22 594af4f1 bfc63886     ...h"l....JY.8..
    73a0:	4a8c154d bfc404ea 3bcd35a8 bfc1d14e     M..J.....5.;N...
    73b0:	a161e4f7 bfbf34d6 126e978d bfbac083     ..a..4....n.....
    73c0:	3c361134 bfb652bd ad42c3ca bfb1de69     4.6<.R....B.i...
    73d0:	cb295e9e bfaac710 ad42c3ca bfa1de69     .^).......B.i...
    73e0:	1eb851ec bf91eb85                       .Q......

000073e8 <SIN_large>:
    73e8:	00000000 00000477 000008ef 00000d65     ....w.......e...
    73f8:	000011db 0000164f 00001ac2 00001f32     ....O.......2...
    7408:	000023a0 0000280c 00002c74 000030d8     .#...(..t,...0..
    7418:	00003539 00003996 00003dee 00004241     95...9...=..AB..
    7428:	00004690 00004ad8 00004f1b 00005358     .F...J...O..XS..
    7438:	0000578e 00005bbe 00005fe6 00006406     .W...[..._...d..
    7448:	0000681f 00006c30 00007039 00007438     .h..0l..9p..8t..
    7458:	0000782f 00007c1c 00007fff 000083d9     /x...|..........
    7468:	000087a8 00008b6d 00008f27 000092d5     ....m...'.......
    7478:	00009679 00009a10 00009d9b 0000a11b     y...............
    7488:	0000a48d 0000a7f3 0000ab4c 0000ae97     ........L.......
    7498:	0000b1d5 0000b504 0000b826 0000bb39     ........&...9...
    74a8:	0000be3e 0000c134 0000c41b 0000c6f3     >...4...........
    74b8:	0000c9bb 0000cc73 0000cf1b 0000d1b3     ....s...........
    74c8:	0000d43b 0000d6b3 0000d919 0000db6f     ;...........o...
    74d8:	0000ddb3 0000dfe7 0000e208 0000e419     ................
    74e8:	0000e617 0000e803 0000e9de 0000eba6     ................
    74f8:	0000ed5b 0000eeff 0000f08f 0000f20d     [...............
    7508:	0000f378 0000f4d0 0000f615 0000f746     x...........F...
    7518:	0000f865 0000f970 0000fa67 0000fb4b     e...p...g...K...
    7528:	0000fc1c 0000fcd9 0000fd82 0000fe17     ................
    7538:	0000fe98 0000ff06 0000ff60 0000ffa6     ........`.......
    7548:	0000ffd8 0000fff6 00010000 0000fff6     ................
    7558:	0000ffd8 0000ffa6 0000ff60 0000ff06     ........`.......
    7568:	0000fe98 0000fe17 0000fd82 0000fcd9     ................
    7578:	0000fc1c 0000fb4b 0000fa67 0000f970     ....K...g...p...
    7588:	0000f865 0000f746 0000f615 0000f4d0     e...F...........
    7598:	0000f378 0000f20d 0000f08f 0000eeff     x...............
    75a8:	0000ed5b 0000eba6 0000e9de 0000e803     [...............
    75b8:	0000e617 0000e419 0000e208 0000dfe7     ................
    75c8:	0000ddb3 0000db6f 0000d919 0000d6b3     ....o...........
    75d8:	0000d43b 0000d1b3 0000cf1b 0000cc73     ;...........s...
    75e8:	0000c9bb 0000c6f3 0000c41b 0000c134     ............4...
    75f8:	0000be3e 0000bb39 0000b826 0000b504     >...9...&.......
    7608:	0000b1d5 0000ae97 0000ab4c 0000a7f3     ........L.......
    7618:	0000a48d 0000a11b 00009d9b 00009a10     ................
    7628:	00009679 000092d5 00008f27 00008b6d     y.......'...m...
    7638:	000087a8 000083d9 00007fff 00007c1c     .............|..
    7648:	0000782f 00007438 00007039 00006c30     /x..8t..9p..0l..
    7658:	0000681f 00006406 00005fe6 00005bbe     .h...d..._...[..
    7668:	0000578e 00005358 00004f1b 00004ad8     .W..XS...O...J..
    7678:	00004690 00004241 00003dee 00003996     .F..AB...=...9..
    7688:	00003539 000030d8 00002c74 0000280c     95...0..t,...(..
    7698:	000023a0 00001f32 00001ac2 0000164f     .#..2.......O...
    76a8:	000011db 00000d65 000008ef 00000477     ....e.......w...
    76b8:	00000000 fffffb89 fffff711 fffff29b     ................
    76c8:	ffffee25 ffffe9b1 ffffe53e ffffe0ce     %.......>.......
    76d8:	ffffdc60 ffffd7f4 ffffd38c ffffcf28     `...........(...
    76e8:	ffffcac7 ffffc66a ffffc212 ffffbdbf     ....j...........
    76f8:	ffffb970 ffffb528 ffffb0e5 ffffaca8     p...(...........
    7708:	ffffa872 ffffa442 ffffa01a ffff9bfa     r...B...........
    7718:	ffff97e1 ffff93d0 ffff8fc7 ffff8bc8     ................
    7728:	ffff87d1 ffff83e4 ffff8000 ffff7c27     ............'|..
    7738:	ffff7858 ffff7493 ffff70d9 ffff6d2b     Xx...t...p..+m..
    7748:	ffff6987 ffff65f0 ffff6265 ffff5ee5     .i...e..eb...^..
    7758:	ffff5b73 ffff580d ffff54b4 ffff5169     s[...X...T..iQ..
    7768:	ffff4e2b ffff4afc ffff47da ffff44c7     +N...J...G...D..
    7778:	ffff41c2 ffff3ecc ffff3be5 ffff390d     .A...>...;...9..
    7788:	ffff3645 ffff338d ffff30e5 ffff2e4d     E6...3...0..M...
    7798:	ffff2bc5 ffff294d ffff26e7 ffff2491     .+..M)...&...$..
    77a8:	ffff224d ffff2019 ffff1df8 ffff1be7     M"... ..........
    77b8:	ffff19e9 ffff17fd ffff1622 ffff145a     ........"...Z...
    77c8:	ffff12a5 ffff1101 ffff0f71 ffff0df3     ........q.......
    77d8:	ffff0c88 ffff0b30 ffff09eb ffff08ba     ....0...........
    77e8:	ffff079b ffff0690 ffff0599 ffff04b5     ................
    77f8:	ffff03e4 ffff0327 ffff027e ffff01e9     ....'...~.......
    7808:	ffff0168 ffff00fa ffff00a0 ffff005a     h...........Z...
    7818:	ffff0028 ffff000a ffff0000 ffff000a     (...............
    7828:	ffff0028 ffff005a ffff00a0 ffff00fa     (...Z...........
    7838:	ffff0168 ffff01e9 ffff027e ffff0327     h.......~...'...
    7848:	ffff03e4 ffff04b5 ffff0599 ffff0690     ................
    7858:	ffff079b ffff08ba ffff09eb ffff0b30     ............0...
    7868:	ffff0c88 ffff0df3 ffff0f71 ffff1101     ........q.......
    7878:	ffff12a5 ffff145a ffff1622 ffff17fd     ....Z...".......
    7888:	ffff19e9 ffff1be7 ffff1df8 ffff2019     ............. ..
    7898:	ffff224d ffff2491 ffff26e7 ffff294d     M"...$...&..M)..
    78a8:	ffff2bc5 ffff2e4d ffff30e5 ffff338d     .+..M....0...3..
    78b8:	ffff3645 ffff390d ffff3be5 ffff3ecc     E6...9...;...>..
    78c8:	ffff41c2 ffff44c7 ffff47da ffff4afc     .A...D...G...J..
    78d8:	ffff4e2b ffff5169 ffff54b4 ffff580d     +N..iQ...T...X..
    78e8:	ffff5b73 ffff5ee5 ffff6265 ffff65f0     s[...^..eb...e..
    78f8:	ffff6987 ffff6d2b ffff70d9 ffff7493     .i..+m...p...t..
    7908:	ffff7858 ffff7c27 ffff8000 ffff83e4     Xx..'|..........
    7918:	ffff87d1 ffff8bc8 ffff8fc7 ffff93d0     ................
    7928:	ffff97e1 ffff9bfa ffffa01a ffffa442     ............B...
    7938:	ffffa872 ffffaca8 ffffb0e5 ffffb528     r...........(...
    7948:	ffffb970 ffffbdbf ffffc212 ffffc66a     p...........j...
    7958:	ffffcac7 ffffcf28 ffffd38c ffffd7f4     ....(...........
    7968:	ffffdc60 ffffe0ce ffffe53e ffffe9b1     `.......>.......
    7978:	ffffee25 fffff29b fffff711 fffffb89     %...............

00007988 <COS_large>:
    7988:	00010000 0000fff6 0000ffd8 0000ffa6     ................
    7998:	0000ff60 0000ff06 0000fe98 0000fe17     `...............
    79a8:	0000fd82 0000fcd9 0000fc1c 0000fb4b     ............K...
    79b8:	0000fa67 0000f970 0000f865 0000f746     g...p...e...F...
    79c8:	0000f615 0000f4d0 0000f378 0000f20d     ........x.......
    79d8:	0000f08f 0000eeff 0000ed5b 0000eba6     ........[.......
    79e8:	0000e9de 0000e803 0000e617 0000e419     ................
    79f8:	0000e208 0000dfe7 0000ddb3 0000db6f     ............o...
    7a08:	0000d919 0000d6b3 0000d43b 0000d1b3     ........;.......
    7a18:	0000cf1b 0000cc73 0000c9bb 0000c6f3     ....s...........
    7a28:	0000c41b 0000c134 0000be3e 0000bb39     ....4...>...9...
    7a38:	0000b826 0000b504 0000b1d5 0000ae97     &...............
    7a48:	0000ab4c 0000a7f3 0000a48d 0000a11b     L...............
    7a58:	00009d9b 00009a10 00009679 000092d5     ........y.......
    7a68:	00008f27 00008b6d 000087a8 000083d9     '...m...........
    7a78:	00008000 00007c1c 0000782f 00007438     .....|../x..8t..
    7a88:	00007039 00006c30 0000681f 00006406     9p..0l...h...d..
    7a98:	00005fe6 00005bbe 0000578e 00005358     ._...[...W..XS..
    7aa8:	00004f1b 00004ad8 00004690 00004241     .O...J...F..AB..
    7ab8:	00003dee 00003996 00003539 000030d8     .=...9..95...0..
    7ac8:	00002c74 0000280c 000023a0 00001f32     t,...(...#..2...
    7ad8:	00001ac2 0000164f 000011db 00000d65     ....O.......e...
    7ae8:	000008ef 00000477 00000000 fffffb89     ....w...........
    7af8:	fffff711 fffff29b ffffee25 ffffe9b1     ........%.......
    7b08:	ffffe53e ffffe0ce ffffdc60 ffffd7f4     >.......`.......
    7b18:	ffffd38c ffffcf28 ffffcac7 ffffc66a     ....(.......j...
    7b28:	ffffc212 ffffbdbf ffffb970 ffffb528     ........p...(...
    7b38:	ffffb0e5 ffffaca8 ffffa872 ffffa442     ........r...B...
    7b48:	ffffa01a ffff9bfa ffff97e1 ffff93d0     ................
    7b58:	ffff8fc7 ffff8bc8 ffff87d1 ffff83e4     ................
    7b68:	ffff8001 ffff7c27 ffff7858 ffff7493     ....'|..Xx...t..
    7b78:	ffff70d9 ffff6d2b ffff6987 ffff65f0     .p..+m...i...e..
    7b88:	ffff6265 ffff5ee5 ffff5b73 ffff580d     eb...^..s[...X..
    7b98:	ffff54b4 ffff5169 ffff4e2b ffff4afc     .T..iQ..+N...J..
    7ba8:	ffff47da ffff44c7 ffff41c2 ffff3ecc     .G...D...A...>..
    7bb8:	ffff3be5 ffff390d ffff3645 ffff338d     .;...9..E6...3..
    7bc8:	ffff30e5 ffff2e4d ffff2bc5 ffff294d     .0..M....+..M)..
    7bd8:	ffff26e7 ffff2491 ffff224d ffff2019     .&...$..M"... ..
    7be8:	ffff1df8 ffff1be7 ffff19e9 ffff17fd     ................
    7bf8:	ffff1622 ffff145a ffff12a5 ffff1101     "...Z...........
    7c08:	ffff0f71 ffff0df3 ffff0c88 ffff0b30     q...........0...
    7c18:	ffff09eb ffff08ba ffff079b ffff0690     ................
    7c28:	ffff0599 ffff04b5 ffff03e4 ffff0327     ............'...
    7c38:	ffff027e ffff01e9 ffff0168 ffff00fa     ~.......h.......
    7c48:	ffff00a0 ffff005a ffff0028 ffff000a     ....Z...(.......
    7c58:	ffff0000 ffff000a ffff0028 ffff005a     ........(...Z...
    7c68:	ffff00a0 ffff00fa ffff0168 ffff01e9     ........h.......
    7c78:	ffff027e ffff0327 ffff03e4 ffff04b5     ~...'...........
    7c88:	ffff0599 ffff0690 ffff079b ffff08ba     ................
    7c98:	ffff09eb ffff0b30 ffff0c88 ffff0df3     ....0...........
    7ca8:	ffff0f71 ffff1101 ffff12a5 ffff145a     q...........Z...
    7cb8:	ffff1622 ffff17fd ffff19e9 ffff1be7     "...............
    7cc8:	ffff1df8 ffff2019 ffff224d ffff2491     ..... ..M"...$..
    7cd8:	ffff26e7 ffff294d ffff2bc5 ffff2e4d     .&..M)...+..M...
    7ce8:	ffff30e5 ffff338d ffff3645 ffff390d     .0...3..E6...9..
    7cf8:	ffff3be5 ffff3ecc ffff41c2 ffff44c7     .;...>...A...D..
    7d08:	ffff47da ffff4afc ffff4e2b ffff5169     .G...J..+N..iQ..
    7d18:	ffff54b4 ffff580d ffff5b73 ffff5ee5     .T...X..s[...^..
    7d28:	ffff6265 ffff65f0 ffff6987 ffff6d2b     eb...e...i..+m..
    7d38:	ffff70d9 ffff7493 ffff7858 ffff7c27     .p...t..Xx..'|..
    7d48:	ffff8000 ffff83e4 ffff87d1 ffff8bc8     ................
    7d58:	ffff8fc7 ffff93d0 ffff97e1 ffff9bfa     ................
    7d68:	ffffa01a ffffa442 ffffa872 ffffaca8     ....B...r.......
    7d78:	ffffb0e5 ffffb528 ffffb970 ffffbdbf     ....(...p.......
    7d88:	ffffc212 ffffc66a ffffcac7 ffffcf28     ....j.......(...
    7d98:	ffffd38c ffffd7f4 ffffdc60 ffffe0ce     ........`.......
    7da8:	ffffe53e ffffe9b1 ffffee25 fffff29b     >.......%.......
    7db8:	fffff711 fffffb89 00000000 00000477     ............w...
    7dc8:	000008ef 00000d65 000011db 0000164f     ....e.......O...
    7dd8:	00001ac2 00001f32 000023a0 0000280c     ....2....#...(..
    7de8:	00002c74 000030d8 00003539 00003996     t,...0..95...9..
    7df8:	00003dee 00004241 00004690 00004ad8     .=..AB...F...J..
    7e08:	00004f1b 00005358 0000578e 00005bbe     .O..XS...W...[..
    7e18:	00005fe6 00006406 0000681f 00006c30     ._...d...h..0l..
    7e28:	00007039 00007438 0000782f 00007c1c     9p..8t../x...|..
    7e38:	00008000 000083d9 000087a8 00008b6d     ............m...
    7e48:	00008f27 000092d5 00009679 00009a10     '.......y.......
    7e58:	00009d9b 0000a11b 0000a48d 0000a7f3     ................
    7e68:	0000ab4c 0000ae97 0000b1d5 0000b504     L...............
    7e78:	0000b826 0000bb39 0000be3e 0000c134     &...9...>...4...
    7e88:	0000c41b 0000c6f3 0000c9bb 0000cc73     ............s...
    7e98:	0000cf1b 0000d1b3 0000d43b 0000d6b3     ........;.......
    7ea8:	0000d919 0000db6f 0000ddb3 0000dfe7     ....o...........
    7eb8:	0000e208 0000e419 0000e617 0000e803     ................
    7ec8:	0000e9de 0000eba6 0000ed5b 0000eeff     ........[.......
    7ed8:	0000f08f 0000f20d 0000f378 0000f4d0     ........x.......
    7ee8:	0000f615 0000f746 0000f865 0000f970     ....F...e...p...
    7ef8:	0000fa67 0000fb4b 0000fc1c 0000fcd9     g...K...........
    7f08:	0000fd82 0000fe17 0000fe98 0000ff06     ................
    7f18:	0000ff60 0000ffa6 0000ffd8 0000fff6     `...............

00007f28 <npio2_hw>:
    7f28:	3fc90f00 40490f00 4096cb00 40c90f00     ...?..I@...@...@
    7f38:	40fb5300 4116cb00 412fed00 41490f00     .S.@...A../A..IA
    7f48:	41623100 417b5300 418a3a00 4196cb00     .1bA.S{A.:.A...A
    7f58:	41a35c00 41afed00 41bc7e00 41c90f00     .\.A...A.~.A...A
    7f68:	41d5a000 41e23100 41eec200 41fb5300     ...A.1.A...A.S.A
    7f78:	4203f200 420a3a00 42108300 4216cb00     ...B.:.B...B...B
    7f88:	421d1400 42235c00 4229a500 422fed00     ...B.\#B..)B../B
    7f98:	42363600 423c7e00 4242c700 42490f00     .66B.~<B..BB..IB

00007fa8 <two_over_pi>:
    7fa8:	000000a2 000000f9 00000083 0000006e     ............n...
    7fb8:	0000004e 00000044 00000015 00000029     N...D.......)...
    7fc8:	000000fc 00000027 00000057 000000d1     ....'...W.......
    7fd8:	000000f5 00000034 000000dd 000000c0     ....4...........
    7fe8:	000000db 00000062 00000095 00000099     ....b...........
    7ff8:	0000003c 00000043 00000090 00000041     <...C.......A...
    8008:	000000fe 00000051 00000063 000000ab     ....Q...c.......
    8018:	000000de 000000bb 000000c5 00000061     ............a...
    8028:	000000b7 00000024 0000006e 0000003a     ....$...n...:...
    8038:	00000042 0000004d 000000d2 000000e0     B...M...........
    8048:	00000006 00000049 0000002e 000000ea     ....I...........
    8058:	00000009 000000d1 00000092 0000001c     ................
    8068:	000000fe 0000001d 000000eb 0000001c     ................
    8078:	000000b1 00000029 000000a7 0000003e     ....).......>...
    8088:	000000e8 00000082 00000035 000000f5     ........5.......
    8098:	0000002e 000000bb 00000044 00000084     ........D.......
    80a8:	000000e9 0000009c 00000070 00000026     ........p...&...
    80b8:	000000b4 0000005f 0000007e 00000041     ...._...~...A...
    80c8:	00000039 00000091 000000d6 00000039     9...........9...
    80d8:	00000083 00000053 00000039 000000f4     ....S...9.......
    80e8:	0000009c 00000084 0000005f 0000008b     ........_.......
    80f8:	000000bd 000000f9 00000028 0000003b     ........(...;...
    8108:	0000001f 000000f8 00000097 000000ff     ................
    8118:	000000de 00000005 00000098 0000000f     ................
    8128:	000000ef 0000002f 00000011 0000008b     ..../...........
    8138:	0000005a 0000000a 0000006d 0000001f     Z.......m.......
    8148:	0000006d 00000036 0000007e 000000cf     m...6...~.......
    8158:	00000027 000000cb 00000009 000000b7     '...............
    8168:	0000004f 00000046 0000003f 00000066     O...F...?...f...
    8178:	0000009e 0000005f 000000ea 0000002d     ...._.......-...
    8188:	00000075 00000027 000000ba 000000c7     u...'...........
    8198:	000000eb 000000e5 000000f1 0000007b     ............{...
    81a8:	0000003d 00000007 00000039 000000f7     =.......9.......
    81b8:	0000008a 00000052 00000092 000000ea     ....R...........
    81c8:	0000006b 000000fb 0000005f 000000b1     k......._.......
    81d8:	0000001f 0000008d 0000005d 00000008     ........].......
    81e8:	00000056 00000003 00000030 00000046     V.......0...F...
    81f8:	000000fc 0000007b 0000006b 000000ab     ....{...k.......
    8208:	000000f0 000000cf 000000bc 00000020     ............ ...
    8218:	0000009a 000000f4 00000036 0000001d     ........6.......
    8228:	000000a9 000000e3 00000091 00000061     ............a...
    8238:	0000005e 000000e6 0000001b 00000008     ^...............
    8248:	00000065 00000099 00000085 0000005f     e..........._...
    8258:	00000014 000000a0 00000068 00000040     ........h...@...
    8268:	0000008d 000000ff 000000d8 00000080     ................
    8278:	0000004d 00000073 00000027 00000031     M...s...'...1...
    8288:	00000006 00000006 00000015 00000056     ............V...
    8298:	000000ca 00000073 000000a8 000000c9     ....s...........
    82a8:	00000060 000000e2 0000007b 000000c0     `.......{.......
    82b8:	0000008c 0000006b                       ....k...

000082c0 <init_jk>:
    82c0:	00000004 00000007 00000009              ............

000082cc <PIo2>:
    82cc:	3fc90000 39f00000 37da0000 33a20000     ...?...9...7...3
    82dc:	2e840000 2b500000 27c20000 22d00000     ......P+...'..."
    82ec:	1fc40000 1bc60000 17440000              ..........D.

000082f8 <_global_impure_ptr>:
    82f8:	000083c0 00000043                       ....C...

00008300 <_init>:
    8300:	e1a0c00d 	mov	r12, sp
    8304:	e92ddff8 	push	{r3, r4, r5, r6, r7, r8, r9, r10, r11, r12, lr, pc}
    8308:	e24cb004 	sub	r11, r12, #4
    830c:	e24bd028 	sub	sp, r11, #40	; 0x28
    8310:	e89d6ff0 	ldm	sp, {r4, r5, r6, r7, r8, r9, r10, r11, sp, lr}
    8314:	e12fff1e 	bx	lr

00008318 <__init_array_start>:
    8318:	00005ba8 	.word	0x00005ba8

0000831c <__frame_dummy_init_array_entry>:
    831c:	00000208                                ....

00008320 <__libc_fini>:
    8320:	e1a0c00d 	mov	r12, sp
    8324:	e92ddff8 	push	{r3, r4, r5, r6, r7, r8, r9, r10, r11, r12, lr, pc}
    8328:	e24cb004 	sub	r11, r12, #4
    832c:	e24bd028 	sub	sp, r11, #40	; 0x28
    8330:	e89d6ff0 	ldm	sp, {r4, r5, r6, r7, r8, r9, r10, r11, sp, lr}
    8334:	e12fff1e 	bx	lr

00008338 <__fini_array_start>:
    8338:	000001c4 	.word	0x000001c4

0000833c <__cs3_regions>:
	...
    8348:	000087f0 	.word	0x000087f0
    834c:	00009c90 	.word	0x00009c90
