
E:/ece243/project/ece243project/realone/main.axf:     file format elf32-littlearm


Disassembly of section .text:

00000000 <__cs3_interrupt_vector>:
       0:	18 f0 9f e5 18 f0 9f e5 18 f0 9f e5 18 f0 9f e5     ................
      10:	18 f0 9f e5 18 f0 9f e5 18 f0 9f e5 18 f0 9f e5     ................
      20:	40 00 00 00 d4 46 00 00 d8 46 00 00 dc 46 00 00     @....F...F...F..
      30:	e0 46 00 00 d0 46 00 00 e4 46 00 00 e8 46 00 00     .F...F...F...F..

00000040 <__cs3_reset>:
      40:	ea000026 	b	e0 <__cs3_start_asm_sim>

00000044 <__cs3_start_c>:
      44:	e59f608c 	ldr	r6, [pc, #140]	; d8 <__cs3_start_c+0x94>
      48:	e3560000 	cmp	r6, #0
      4c:	e92d4080 	push	{r7, lr}
      50:	e2466001 	sub	r6, r6, #1
      54:	0a00001e 	beq	d4 <__cs3_start_c+0x90>
      58:	e59f507c 	ldr	r5, [pc, #124]	; dc <__cs3_start_c+0x98>
      5c:	e3a00000 	mov	r0, #0
      60:	e3a01000 	mov	r1, #0
      64:	e515200c 	ldr	r2, [r5, #-12]
      68:	e515e010 	ldr	lr, [r5, #-16]
      6c:	e5154008 	ldr	r4, [r5, #-8]
      70:	e15e0002 	cmp	lr, r2
      74:	00822004 	addeq	r2, r2, r4
      78:	0a000009 	beq	a4 <__cs3_start_c+0x60>
      7c:	e3540000 	cmp	r4, #0
      80:	0a000007 	beq	a4 <__cs3_start_c+0x60>
      84:	e1a07002 	mov	r7, r2
      88:	e1a0c002 	mov	r12, r2
      8c:	e8be000c 	ldm	lr!, {r2, r3}
      90:	e8ac000c 	stmia	r12!, {r2, r3}
      94:	e067300c 	rsb	r3, r7, r12
      98:	e1540003 	cmp	r4, r3
      9c:	e1a0200c 	mov	r2, r12
      a0:	1afffff9 	bne	8c <__cs3_start_c+0x48>
      a4:	e515e004 	ldr	lr, [r5, #-4]
      a8:	e35e0000 	cmp	lr, #0
      ac:	11a03002 	movne	r3, r2
      b0:	0a000003 	beq	c4 <__cs3_start_c+0x80>
      b4:	e8a30003 	stmia	r3!, {r0, r1}
      b8:	e062c003 	rsb	r12, r2, r3
      bc:	e15e000c 	cmp	lr, r12
      c0:	1afffffb 	bne	b4 <__cs3_start_c+0x70>
      c4:	e2466001 	sub	r6, r6, #1
      c8:	e3760001 	cmn	r6, #1
      cc:	e2855014 	add	r5, r5, #20
      d0:	1affffe3 	bne	64 <__cs3_start_c+0x20>
      d4:	eb001164 	bl	466c <__cs3_premain>
      d8:	00000001 	.word	0x00000001
      dc:	000069d8 	.word	0x000069d8

000000e0 <__cs3_start_asm_sim>:
      e0:	e28f103c 	add	r1, pc, #60	; 0x3c
      e4:	e3a00016 	mov	r0, #22
      e8:	ef123456 	svc	0x00123456
      ec:	e3500000 	cmp	r0, #0
      f0:	ba000008 	blt	118 <__cs3_start_asm_sim+0x38>
      f4:	e59f2028 	ldr	r2, [pc, #40]	; 124 <__cs3_heap_start_ptr>
      f8:	e59fd01c 	ldr	sp, [pc, #28]	; 11c <__cs3_start_asm_sim+0x3c>
      fc:	e5920008 	ldr	r0, [r2, #8]
     100:	e3500000 	cmp	r0, #0
     104:	11a0d000 	movne	sp, r0
     108:	e59f1010 	ldr	r1, [pc, #16]	; 120 <__cs3_start_asm_sim+0x40>
     10c:	e5920004 	ldr	r0, [r2, #4]
     110:	e3500000 	cmp	r0, #0
     114:	15810000 	strne	r0, [r1]
     118:	eaffffc9 	b	44 <__cs3_start_c>
     11c:	3ffffff8 	.word	0x3ffffff8
     120:	00006e70 	.word	0x00006e70

00000124 <__cs3_heap_start_ptr>:
     124:	00010af8 	.word	0x00010af8

00000128 <_start>:
     128:	e51fd000 	ldr	sp, [pc, #-0]	; 130 <_start+0x8>
     12c:	eaffffc4 	b	44 <__cs3_start_c>
     130:	3ffffff8 	.word	0x3ffffff8

00000134 <deregister_tm_clones>:
     134:	e92d4008 	push	{r3, lr}
     138:	e59f002c 	ldr	r0, [pc, #44]	; 16c <deregister_tm_clones+0x38>
     13c:	e59f302c 	ldr	r3, [pc, #44]	; 170 <deregister_tm_clones+0x3c>
     140:	e0603003 	rsb	r3, r0, r3
     144:	e3530006 	cmp	r3, #6
     148:	8a000001 	bhi	154 <deregister_tm_clones+0x20>
     14c:	e8bd4008 	pop	{r3, lr}
     150:	e12fff1e 	bx	lr
     154:	e59f3018 	ldr	r3, [pc, #24]	; 174 <deregister_tm_clones+0x40>
     158:	e3530000 	cmp	r3, #0
     15c:	0afffffa 	beq	14c <deregister_tm_clones+0x18>
     160:	e1a0e00f 	mov	lr, pc
     164:	e12fff13 	bx	r3
     168:	eafffff7 	b	14c <deregister_tm_clones+0x18>
     16c:	00006e78 	.word	0x00006e78
     170:	00006e7b 	.word	0x00006e7b
     174:	00000000 	.word	0x00000000

00000178 <register_tm_clones>:
     178:	e92d4008 	push	{r3, lr}
     17c:	e59f0034 	ldr	r0, [pc, #52]	; 1b8 <register_tm_clones+0x40>
     180:	e59f3034 	ldr	r3, [pc, #52]	; 1bc <register_tm_clones+0x44>
     184:	e0603003 	rsb	r3, r0, r3
     188:	e1a03143 	asr	r3, r3, #2
     18c:	e0833fa3 	add	r3, r3, r3, lsr #31
     190:	e1b010c3 	asrs	r1, r3, #1
     194:	1a000001 	bne	1a0 <register_tm_clones+0x28>
     198:	e8bd4008 	pop	{r3, lr}
     19c:	e12fff1e 	bx	lr
     1a0:	e59f2018 	ldr	r2, [pc, #24]	; 1c0 <register_tm_clones+0x48>
     1a4:	e3520000 	cmp	r2, #0
     1a8:	0afffffa 	beq	198 <register_tm_clones+0x20>
     1ac:	e1a0e00f 	mov	lr, pc
     1b0:	e12fff12 	bx	r2
     1b4:	eafffff7 	b	198 <register_tm_clones+0x20>
     1b8:	00006e78 	.word	0x00006e78
     1bc:	00006e78 	.word	0x00006e78
     1c0:	00000000 	.word	0x00000000

000001c4 <__do_global_dtors_aux>:
     1c4:	e92d4010 	push	{r4, lr}
     1c8:	e59f402c 	ldr	r4, [pc, #44]	; 1fc <__do_global_dtors_aux+0x38>
     1cc:	e5d43000 	ldrb	r3, [r4]
     1d0:	e3530000 	cmp	r3, #0
     1d4:	1a000006 	bne	1f4 <__do_global_dtors_aux+0x30>
     1d8:	ebffffd5 	bl	134 <deregister_tm_clones>
     1dc:	e59f301c 	ldr	r3, [pc, #28]	; 200 <__do_global_dtors_aux+0x3c>
     1e0:	e3530000 	cmp	r3, #0
     1e4:	159f0018 	ldrne	r0, [pc, #24]	; 204 <__do_global_dtors_aux+0x40>
     1e8:	1320f000 	nopne	{0}
     1ec:	e3a03001 	mov	r3, #1
     1f0:	e5c43000 	strb	r3, [r4]
     1f4:	e8bd4010 	pop	{r4, lr}
     1f8:	e12fff1e 	bx	lr
     1fc:	00006e78 	.word	0x00006e78
     200:	00000000 	.word	0x00000000
     204:	00004774 	.word	0x00004774

00000208 <frame_dummy>:
     208:	e92d4008 	push	{r3, lr}
     20c:	e59f3034 	ldr	r3, [pc, #52]	; 248 <frame_dummy+0x40>
     210:	e3530000 	cmp	r3, #0
     214:	159f0030 	ldrne	r0, [pc, #48]	; 24c <frame_dummy+0x44>
     218:	159f1030 	ldrne	r1, [pc, #48]	; 250 <frame_dummy+0x48>
     21c:	1320f000 	nopne	{0}
     220:	e59f002c 	ldr	r0, [pc, #44]	; 254 <frame_dummy+0x4c>
     224:	e5903000 	ldr	r3, [r0]
     228:	e3530000 	cmp	r3, #0
     22c:	0a000003 	beq	240 <frame_dummy+0x38>
     230:	e59f3020 	ldr	r3, [pc, #32]	; 258 <frame_dummy+0x50>
     234:	e3530000 	cmp	r3, #0
     238:	11a0e00f 	movne	lr, pc
     23c:	112fff13 	bxne	r3
     240:	e8bd4008 	pop	{r3, lr}
     244:	eaffffcb 	b	178 <register_tm_clones>
     248:	00000000 	.word	0x00000000
     24c:	00004774 	.word	0x00004774
     250:	00006e7c 	.word	0x00006e7c
     254:	000069d8 	.word	0x000069d8
     258:	00000000 	.word	0x00000000

0000025c <main>:
#include "tests/tests.h"

int main(void)
{
     25c:	e92d4800 	push	{r11, lr}
     260:	e28db004 	add	r11, sp, #4
    // led_test();
    // uart_test();
    //audio_test();
    // hex_test();
    audio_transform_test();
     264:	eb0003b1 	bl	1130 <audio_transform_test>
    //display_test();

    for (;;); 
     268:	eafffffe 	b	268 <main+0xc>

0000026c <VIS_ERROR_Handler>:
#include "values.h"
void VIS_ERROR_Handler() {
     26c:	e52db004 	push	{r11}		; (str r11, [sp, #-4]!)
     270:	e28db000 	add	r11, sp, #0
    // if error happens, stop here
    for (;;);
     274:	eafffffe 	b	274 <VIS_ERROR_Handler+0x8>

00000278 <VIS_Uart_TxChar>:
#include "JTAG_UART.h"

static volatile int * red_LED_ptr = (int *)0xFF200000;
const char intToChar[10] = {'0','1','2','3','4','5','6','7','8','9'};  

void VIS_Uart_TxChar(volatile int * JTAG_UART_ptr, char c) {
     278:	e52db004 	push	{r11}		; (str r11, [sp, #-4]!)
     27c:	e28db000 	add	r11, sp, #0
     280:	e24dd00c 	sub	sp, sp, #12
     284:	e50b0008 	str	r0, [r11, #-8]
     288:	e1a03001 	mov	r3, r1
     28c:	e54b3009 	strb	r3, [r11, #-9]
    *(red_LED_ptr) = 0x1; // turn on LEDR[0]
     290:	e30639e0 	movw	r3, #27104	; 0x69e0
     294:	e3403000 	movt	r3, #0
     298:	e5933000 	ldr	r3, [r3]
     29c:	e3a02001 	mov	r2, #1
     2a0:	e5832000 	str	r2, [r3]
    while (!((*(JTAG_UART_ptr + 1)) & 0xFFFF0000)) {
     2a4:	e1a00000 	nop			; (mov r0, r0)
     2a8:	e51b3008 	ldr	r3, [r11, #-8]
     2ac:	e2833004 	add	r3, r3, #4
     2b0:	e5933000 	ldr	r3, [r3]
     2b4:	e1a03823 	lsr	r3, r3, #16
     2b8:	e1a03803 	lsl	r3, r3, #16
     2bc:	e3530000 	cmp	r3, #0
     2c0:	0afffff8 	beq	2a8 <VIS_Uart_TxChar+0x30>
        // if space, echo character, else wait
    } 
    *(JTAG_UART_ptr) = c;
     2c4:	e55b2009 	ldrb	r2, [r11, #-9]
     2c8:	e51b3008 	ldr	r3, [r11, #-8]
     2cc:	e5832000 	str	r2, [r3]
    *(red_LED_ptr) = 0x0; // turn off LEDR[0]
     2d0:	e30639e0 	movw	r3, #27104	; 0x69e0
     2d4:	e3403000 	movt	r3, #0
     2d8:	e5933000 	ldr	r3, [r3]
     2dc:	e3a02000 	mov	r2, #0
     2e0:	e5832000 	str	r2, [r3]
}
     2e4:	e28bd000 	add	sp, r11, #0
     2e8:	e8bd0800 	ldmfd	sp!, {r11}
     2ec:	e12fff1e 	bx	lr

000002f0 <VIS_Uart_Tx>:

void VIS_Uart_Tx(volatile int * JTAG_UART_ptr, char * s, int size) {
     2f0:	e92d4800 	push	{r11, lr}
     2f4:	e28db004 	add	r11, sp, #4
     2f8:	e24dd018 	sub	sp, sp, #24
     2fc:	e50b0010 	str	r0, [r11, #-16]
     300:	e50b1014 	str	r1, [r11, #-20]	; 0xffffffec
     304:	e50b2018 	str	r2, [r11, #-24]	; 0xffffffe8
    
    for (int i = 0; i < size; i++)
     308:	e3a03000 	mov	r3, #0
     30c:	e50b3008 	str	r3, [r11, #-8]
     310:	ea000009 	b	33c <VIS_Uart_Tx+0x4c>
        VIS_Uart_TxChar(JTAG_UART_ptr, s[i]);
     314:	e51b3008 	ldr	r3, [r11, #-8]
     318:	e51b2014 	ldr	r2, [r11, #-20]	; 0xffffffec
     31c:	e0823003 	add	r3, r2, r3
     320:	e5d33000 	ldrb	r3, [r3]
     324:	e51b0010 	ldr	r0, [r11, #-16]
     328:	e1a01003 	mov	r1, r3
     32c:	ebffffd1 	bl	278 <VIS_Uart_TxChar>
    *(red_LED_ptr) = 0x0; // turn off LEDR[0]
}

void VIS_Uart_Tx(volatile int * JTAG_UART_ptr, char * s, int size) {
    
    for (int i = 0; i < size; i++)
     330:	e51b3008 	ldr	r3, [r11, #-8]
     334:	e2833001 	add	r3, r3, #1
     338:	e50b3008 	str	r3, [r11, #-8]
     33c:	e51b2008 	ldr	r2, [r11, #-8]
     340:	e51b3018 	ldr	r3, [r11, #-24]	; 0xffffffe8
     344:	e1520003 	cmp	r2, r3
     348:	bafffff1 	blt	314 <VIS_Uart_Tx+0x24>
        VIS_Uart_TxChar(JTAG_UART_ptr, s[i]);
}
     34c:	e24bd004 	sub	sp, r11, #4
     350:	e8bd8800 	pop	{r11, pc}

00000354 <VIS_UART_TxInt>:

void VIS_UART_TxInt(volatile int * JTAG_UART_ptr, int num) {
     354:	e92d4800 	push	{r11, lr}
     358:	e28db004 	add	r11, sp, #4
     35c:	e24dd010 	sub	sp, sp, #16
     360:	e50b0010 	str	r0, [r11, #-16]
     364:	e50b1014 	str	r1, [r11, #-20]	; 0xffffffec
    if (num < 0) {
     368:	e51b3014 	ldr	r3, [r11, #-20]	; 0xffffffec
     36c:	e3530000 	cmp	r3, #0
     370:	aa000005 	bge	38c <VIS_UART_TxInt+0x38>
        num = -num;
     374:	e51b3014 	ldr	r3, [r11, #-20]	; 0xffffffec
     378:	e2633000 	rsb	r3, r3, #0
     37c:	e50b3014 	str	r3, [r11, #-20]	; 0xffffffec
        VIS_Uart_TxChar(JTAG_UART_ptr, '-');
     380:	e51b0010 	ldr	r0, [r11, #-16]
     384:	e3a0102d 	mov	r1, #45	; 0x2d
     388:	ebffffba 	bl	278 <VIS_Uart_TxChar>
    }
    if (num < 10) {
     38c:	e51b3014 	ldr	r3, [r11, #-20]	; 0xffffffec
     390:	e3530009 	cmp	r3, #9
     394:	ca000008 	bgt	3bc <VIS_UART_TxInt+0x68>
        VIS_Uart_TxChar(JTAG_UART_ptr, intToChar[num]);
     398:	e3043778 	movw	r3, #18296	; 0x4778
     39c:	e3403000 	movt	r3, #0
     3a0:	e51b2014 	ldr	r2, [r11, #-20]	; 0xffffffec
     3a4:	e0833002 	add	r3, r3, r2
     3a8:	e5d33000 	ldrb	r3, [r3]
     3ac:	e51b0010 	ldr	r0, [r11, #-16]
     3b0:	e1a01003 	mov	r1, r3
     3b4:	ebffffaf 	bl	278 <VIS_Uart_TxChar>
     3b8:	ea00002b 	b	46c <VIS_UART_TxInt+0x118>
    } else {
        int tens = 1;
     3bc:	e3a03001 	mov	r3, #1
     3c0:	e50b3008 	str	r3, [r11, #-8]
        while (num / tens > 0) tens *= 10;
     3c4:	ea000005 	b	3e0 <VIS_UART_TxInt+0x8c>
     3c8:	e51b2008 	ldr	r2, [r11, #-8]
     3cc:	e1a03002 	mov	r3, r2
     3d0:	e1a03103 	lsl	r3, r3, #2
     3d4:	e0833002 	add	r3, r3, r2
     3d8:	e1a03083 	lsl	r3, r3, #1
     3dc:	e50b3008 	str	r3, [r11, #-8]
     3e0:	e51b0014 	ldr	r0, [r11, #-20]	; 0xffffffec
     3e4:	e51b1008 	ldr	r1, [r11, #-8]
     3e8:	eb000c64 	bl	3580 <__aeabi_idiv>
     3ec:	e1a03000 	mov	r3, r0
     3f0:	e3530000 	cmp	r3, #0
     3f4:	cafffff3 	bgt	3c8 <VIS_UART_TxInt+0x74>
        while (tens > 1) {
     3f8:	ea000018 	b	460 <VIS_UART_TxInt+0x10c>
            tens /= 10;
     3fc:	e51b2008 	ldr	r2, [r11, #-8]
     400:	e3063667 	movw	r3, #26215	; 0x6667
     404:	e3463666 	movt	r3, #26214	; 0x6666
     408:	e0c31293 	smull	r1, r3, r3, r2
     40c:	e1a01143 	asr	r1, r3, #2
     410:	e1a03fc2 	asr	r3, r2, #31
     414:	e0633001 	rsb	r3, r3, r1
     418:	e50b3008 	str	r3, [r11, #-8]
            VIS_Uart_TxChar(JTAG_UART_ptr, intToChar[num / tens]);
     41c:	e51b0014 	ldr	r0, [r11, #-20]	; 0xffffffec
     420:	e51b1008 	ldr	r1, [r11, #-8]
     424:	eb000c55 	bl	3580 <__aeabi_idiv>
     428:	e1a03000 	mov	r3, r0
     42c:	e1a02003 	mov	r2, r3
     430:	e3043778 	movw	r3, #18296	; 0x4778
     434:	e3403000 	movt	r3, #0
     438:	e7d33002 	ldrb	r3, [r3, r2]
     43c:	e51b0010 	ldr	r0, [r11, #-16]
     440:	e1a01003 	mov	r1, r3
     444:	ebffff8b 	bl	278 <VIS_Uart_TxChar>
            num %= tens;
     448:	e51b3014 	ldr	r3, [r11, #-20]	; 0xffffffec
     44c:	e1a00003 	mov	r0, r3
     450:	e51b1008 	ldr	r1, [r11, #-8]
     454:	eb000c93 	bl	36a8 <__aeabi_idivmod>
     458:	e1a03001 	mov	r3, r1
     45c:	e50b3014 	str	r3, [r11, #-20]	; 0xffffffec
    if (num < 10) {
        VIS_Uart_TxChar(JTAG_UART_ptr, intToChar[num]);
    } else {
        int tens = 1;
        while (num / tens > 0) tens *= 10;
        while (tens > 1) {
     460:	e51b3008 	ldr	r3, [r11, #-8]
     464:	e3530001 	cmp	r3, #1
     468:	caffffe3 	bgt	3fc <VIS_UART_TxInt+0xa8>
            tens /= 10;
            VIS_Uart_TxChar(JTAG_UART_ptr, intToChar[num / tens]);
            num %= tens;
        }
    }
}
     46c:	e24bd004 	sub	sp, r11, #4
     470:	e8bd8800 	pop	{r11, pc}

00000474 <VIS_UART_TxEnter>:

void VIS_UART_TxEnter(volatile int * JTAG_UART_ptr) {
     474:	e92d4800 	push	{r11, lr}
     478:	e28db004 	add	r11, sp, #4
     47c:	e24dd008 	sub	sp, sp, #8
     480:	e50b0008 	str	r0, [r11, #-8]
    VIS_Uart_TxChar(JTAG_UART_ptr, '\r');
     484:	e51b0008 	ldr	r0, [r11, #-8]
     488:	e3a0100d 	mov	r1, #13
     48c:	ebffff79 	bl	278 <VIS_Uart_TxChar>
    VIS_Uart_TxChar(JTAG_UART_ptr, '\n');
     490:	e51b0008 	ldr	r0, [r11, #-8]
     494:	e3a0100a 	mov	r1, #10
     498:	ebffff76 	bl	278 <VIS_Uart_TxChar>
}
     49c:	e24bd004 	sub	sp, r11, #4
     4a0:	e8bd8800 	pop	{r11, pc}

000004a4 <VIS_Uart_RxChar>:

char VIS_Uart_RxChar(volatile int * JTAG_UART_ptr) {
     4a4:	e52db004 	push	{r11}		; (str r11, [sp, #-4]!)
     4a8:	e28db000 	add	r11, sp, #0
     4ac:	e24dd014 	sub	sp, sp, #20
     4b0:	e50b0010 	str	r0, [r11, #-16]
    int data;
    data = *(JTAG_UART_ptr); // read the JTAG_UART data register
     4b4:	e51b3010 	ldr	r3, [r11, #-16]
     4b8:	e5933000 	ldr	r3, [r3]
     4bc:	e50b3008 	str	r3, [r11, #-8]
    if (data & 0x00008000)   // check RVALID to see if there is new data
     4c0:	e51b3008 	ldr	r3, [r11, #-8]
     4c4:	e2033902 	and	r3, r3, #32768	; 0x8000
     4c8:	e3530000 	cmp	r3, #0
     4cc:	0a000002 	beq	4dc <VIS_Uart_RxChar+0x38>
        return ((char)data & 0xFF);
     4d0:	e51b3008 	ldr	r3, [r11, #-8]
     4d4:	e6ef3073 	uxtb	r3, r3
     4d8:	ea000000 	b	4e0 <VIS_Uart_RxChar+0x3c>
    else
        return ('\0');
     4dc:	e3a03000 	mov	r3, #0
}
     4e0:	e1a00003 	mov	r0, r3
     4e4:	e28bd000 	add	sp, r11, #0
     4e8:	e8bd0800 	ldmfd	sp!, {r11}
     4ec:	e12fff1e 	bx	lr

000004f0 <VIS_LED_Get>:
#include "LED.h"
#include "../values.h"

static volatile unsigned * red_LED_ptr = (unsigned *)0xFF200000;

unsigned VIS_LED_Get(unsigned index) {
     4f0:	e92d4800 	push	{r11, lr}
     4f4:	e28db004 	add	r11, sp, #4
     4f8:	e24dd010 	sub	sp, sp, #16
     4fc:	e50b0010 	str	r0, [r11, #-16]
#ifdef DEBUG
    if (index > 9) VIS_ERROR_Handler();    
     500:	e51b3010 	ldr	r3, [r11, #-16]
     504:	e3530009 	cmp	r3, #9
     508:	9a000000 	bls	510 <VIS_LED_Get+0x20>
     50c:	ebffff56 	bl	26c <VIS_ERROR_Handler>
#endif // DEBUG
    unsigned led = *(red_LED_ptr);
     510:	e30639e4 	movw	r3, #27108	; 0x69e4
     514:	e3403000 	movt	r3, #0
     518:	e5933000 	ldr	r3, [r3]
     51c:	e5933000 	ldr	r3, [r3]
     520:	e50b3008 	str	r3, [r11, #-8]
    return led & (0x1u << index);
     524:	e51b3010 	ldr	r3, [r11, #-16]
     528:	e3a02001 	mov	r2, #1
     52c:	e1a02312 	lsl	r2, r2, r3
     530:	e51b3008 	ldr	r3, [r11, #-8]
     534:	e0023003 	and	r3, r2, r3
}
     538:	e1a00003 	mov	r0, r3
     53c:	e24bd004 	sub	sp, r11, #4
     540:	e8bd8800 	pop	{r11, pc}

00000544 <VIS_LED_Set>:

void VIS_LED_Set(unsigned index, unsigned status) {
     544:	e92d4800 	push	{r11, lr}
     548:	e28db004 	add	r11, sp, #4
     54c:	e24dd010 	sub	sp, sp, #16
     550:	e50b0010 	str	r0, [r11, #-16]
     554:	e50b1014 	str	r1, [r11, #-20]	; 0xffffffec
#ifdef DEBUG
    if (index > 9) VIS_ERROR_Handler();    
     558:	e51b3010 	ldr	r3, [r11, #-16]
     55c:	e3530009 	cmp	r3, #9
     560:	9a000000 	bls	568 <VIS_LED_Set+0x24>
     564:	ebffff40 	bl	26c <VIS_ERROR_Handler>
    if (status != VIS_LED_SET && status != VIS_LED_RESET) VIS_ERROR_Handler();
     568:	e51b3014 	ldr	r3, [r11, #-20]	; 0xffffffec
     56c:	e3530001 	cmp	r3, #1
     570:	0a000003 	beq	584 <VIS_LED_Set+0x40>
     574:	e51b3014 	ldr	r3, [r11, #-20]	; 0xffffffec
     578:	e3530000 	cmp	r3, #0
     57c:	0a000000 	beq	584 <VIS_LED_Set+0x40>
     580:	ebffff39 	bl	26c <VIS_ERROR_Handler>
#endif // DEBUG
    unsigned led = *(red_LED_ptr);
     584:	e30639e4 	movw	r3, #27108	; 0x69e4
     588:	e3403000 	movt	r3, #0
     58c:	e5933000 	ldr	r3, [r3]
     590:	e5933000 	ldr	r3, [r3]
     594:	e50b3008 	str	r3, [r11, #-8]
    if (status == VIS_LED_SET) {
     598:	e51b3014 	ldr	r3, [r11, #-20]	; 0xffffffec
     59c:	e3530001 	cmp	r3, #1
     5a0:	1a000006 	bne	5c0 <VIS_LED_Set+0x7c>
        led |= 0x1u << index;
     5a4:	e51b3010 	ldr	r3, [r11, #-16]
     5a8:	e3a02001 	mov	r2, #1
     5ac:	e1a03312 	lsl	r3, r2, r3
     5b0:	e51b2008 	ldr	r2, [r11, #-8]
     5b4:	e1823003 	orr	r3, r2, r3
     5b8:	e50b3008 	str	r3, [r11, #-8]
     5bc:	ea000006 	b	5dc <VIS_LED_Set+0x98>
    } else {
        led &= ~(0x1u << index);
     5c0:	e51b3010 	ldr	r3, [r11, #-16]
     5c4:	e3a02001 	mov	r2, #1
     5c8:	e1a03312 	lsl	r3, r2, r3
     5cc:	e1e03003 	mvn	r3, r3
     5d0:	e51b2008 	ldr	r2, [r11, #-8]
     5d4:	e0023003 	and	r3, r2, r3
     5d8:	e50b3008 	str	r3, [r11, #-8]
    }
    *(red_LED_ptr) = led;
     5dc:	e30639e4 	movw	r3, #27108	; 0x69e4
     5e0:	e3403000 	movt	r3, #0
     5e4:	e5933000 	ldr	r3, [r3]
     5e8:	e51b2008 	ldr	r2, [r11, #-8]
     5ec:	e5832000 	str	r2, [r3]
}
     5f0:	e24bd004 	sub	sp, r11, #4
     5f4:	e8bd8800 	pop	{r11, pc}

000005f8 <VIS_LED_Toggle>:

unsigned VIS_LED_Toggle(unsigned index) {
     5f8:	e92d4800 	push	{r11, lr}
     5fc:	e28db004 	add	r11, sp, #4
     600:	e24dd010 	sub	sp, sp, #16
     604:	e50b0010 	str	r0, [r11, #-16]
#ifdef DEBUG
    if (index > 9) VIS_ERROR_Handler();    
     608:	e51b3010 	ldr	r3, [r11, #-16]
     60c:	e3530009 	cmp	r3, #9
     610:	9a000000 	bls	618 <VIS_LED_Toggle+0x20>
     614:	ebffff14 	bl	26c <VIS_ERROR_Handler>
#endif // DEBUG
    unsigned led = *(red_LED_ptr);
     618:	e30639e4 	movw	r3, #27108	; 0x69e4
     61c:	e3403000 	movt	r3, #0
     620:	e5933000 	ldr	r3, [r3]
     624:	e5933000 	ldr	r3, [r3]
     628:	e50b3008 	str	r3, [r11, #-8]
    led ^= 0x1u << index;
     62c:	e51b3010 	ldr	r3, [r11, #-16]
     630:	e3a02001 	mov	r2, #1
     634:	e1a03312 	lsl	r3, r2, r3
     638:	e51b2008 	ldr	r2, [r11, #-8]
     63c:	e0223003 	eor	r3, r2, r3
     640:	e50b3008 	str	r3, [r11, #-8]
    *(red_LED_ptr) = led;
     644:	e30639e4 	movw	r3, #27108	; 0x69e4
     648:	e3403000 	movt	r3, #0
     64c:	e5933000 	ldr	r3, [r3]
     650:	e51b2008 	ldr	r2, [r11, #-8]
     654:	e5832000 	str	r2, [r3]
    return led & (0x1u << index);
     658:	e51b3010 	ldr	r3, [r11, #-16]
     65c:	e3a02001 	mov	r2, #1
     660:	e1a02312 	lsl	r2, r2, r3
     664:	e51b3008 	ldr	r3, [r11, #-8]
     668:	e0023003 	and	r3, r2, r3
}
     66c:	e1a00003 	mov	r0, r3
     670:	e24bd004 	sub	sp, r11, #4
     674:	e8bd8800 	pop	{r11, pc}

00000678 <VIS_LED_SetAll>:

void VIS_LED_SetAll() {
     678:	e92d4800 	push	{r11, lr}
     67c:	e28db004 	add	r11, sp, #4
     680:	e24dd008 	sub	sp, sp, #8
    for (unsigned i = 0; i <= 9; i++) {
     684:	e3a03000 	mov	r3, #0
     688:	e50b3008 	str	r3, [r11, #-8]
     68c:	ea000005 	b	6a8 <VIS_LED_SetAll+0x30>
        VIS_LED_Set(i, VIS_LED_SET);
     690:	e51b0008 	ldr	r0, [r11, #-8]
     694:	e3a01001 	mov	r1, #1
     698:	ebffffa9 	bl	544 <VIS_LED_Set>
    *(red_LED_ptr) = led;
    return led & (0x1u << index);
}

void VIS_LED_SetAll() {
    for (unsigned i = 0; i <= 9; i++) {
     69c:	e51b3008 	ldr	r3, [r11, #-8]
     6a0:	e2833001 	add	r3, r3, #1
     6a4:	e50b3008 	str	r3, [r11, #-8]
     6a8:	e51b3008 	ldr	r3, [r11, #-8]
     6ac:	e3530009 	cmp	r3, #9
     6b0:	9afffff6 	bls	690 <VIS_LED_SetAll+0x18>
        VIS_LED_Set(i, VIS_LED_SET);
    }
}
     6b4:	e24bd004 	sub	sp, r11, #4
     6b8:	e8bd8800 	pop	{r11, pc}

000006bc <VIS_LED_ResetAll>:
void VIS_LED_ResetAll() {
     6bc:	e92d4800 	push	{r11, lr}
     6c0:	e28db004 	add	r11, sp, #4
     6c4:	e24dd008 	sub	sp, sp, #8
    for (unsigned i = 0; i <= 9; i++) {
     6c8:	e3a03000 	mov	r3, #0
     6cc:	e50b3008 	str	r3, [r11, #-8]
     6d0:	ea000005 	b	6ec <VIS_LED_ResetAll+0x30>
        VIS_LED_Set(i, VIS_LED_RESET);
     6d4:	e51b0008 	ldr	r0, [r11, #-8]
     6d8:	e3a01000 	mov	r1, #0
     6dc:	ebffff98 	bl	544 <VIS_LED_Set>
    for (unsigned i = 0; i <= 9; i++) {
        VIS_LED_Set(i, VIS_LED_SET);
    }
}
void VIS_LED_ResetAll() {
    for (unsigned i = 0; i <= 9; i++) {
     6e0:	e51b3008 	ldr	r3, [r11, #-8]
     6e4:	e2833001 	add	r3, r3, #1
     6e8:	e50b3008 	str	r3, [r11, #-8]
     6ec:	e51b3008 	ldr	r3, [r11, #-8]
     6f0:	e3530009 	cmp	r3, #9
     6f4:	9afffff6 	bls	6d4 <VIS_LED_ResetAll+0x18>
        VIS_LED_Set(i, VIS_LED_RESET);
    }
     6f8:	e24bd004 	sub	sp, r11, #4
     6fc:	e8bd8800 	pop	{r11, pc}

00000700 <VIS_HEX_Set>:
    [0x4] = 0b1100110, 0b1101101, 0b11111101, 0b111,
    [0x8] = 0b1111111, 0b1101111, 0b1110111, 0b1111100, 
    [0xC] = 0b111001, 0b1011110, 0b1111001, 0b1110001
};

void VIS_HEX_Set(unsigned index, unsigned data) {
     700:	e92d4800 	push	{r11, lr}
     704:	e28db004 	add	r11, sp, #4
     708:	e24dd010 	sub	sp, sp, #16
     70c:	e50b0010 	str	r0, [r11, #-16]
     710:	e50b1014 	str	r1, [r11, #-20]	; 0xffffffec
#ifdef DEBUG
    if (index > 6) VIS_ERROR_Handler();
     714:	e51b3010 	ldr	r3, [r11, #-16]
     718:	e3530006 	cmp	r3, #6
     71c:	9a000000 	bls	724 <VIS_HEX_Set+0x24>
     720:	ebfffed1 	bl	26c <VIS_ERROR_Handler>
#endif // DEBUG
    data &= 0x7F;
     724:	e51b3014 	ldr	r3, [r11, #-20]	; 0xffffffec
     728:	e203307f 	and	r3, r3, #127	; 0x7f
     72c:	e50b3014 	str	r3, [r11, #-20]	; 0xffffffec
    if (index < 4) {
     730:	e51b3010 	ldr	r3, [r11, #-16]
     734:	e3530003 	cmp	r3, #3
     738:	8a000017 	bhi	79c <VIS_HEX_Set+0x9c>
        // HEX 0 ~ 3
        unsigned original = *(HEX3_HEX0_ptr);
     73c:	e30639e8 	movw	r3, #27112	; 0x69e8
     740:	e3403000 	movt	r3, #0
     744:	e5933000 	ldr	r3, [r3]
     748:	e5933000 	ldr	r3, [r3]
     74c:	e50b3008 	str	r3, [r11, #-8]
        // clear the byte
        original &= ~(0xFF << (index << 3));
     750:	e51b3010 	ldr	r3, [r11, #-16]
     754:	e1a03183 	lsl	r3, r3, #3
     758:	e3a020ff 	mov	r2, #255	; 0xff
     75c:	e1a03312 	lsl	r3, r2, r3
     760:	e1e03003 	mvn	r3, r3
     764:	e51b2008 	ldr	r2, [r11, #-8]
     768:	e0023003 	and	r3, r2, r3
     76c:	e50b3008 	str	r3, [r11, #-8]
        *(HEX3_HEX0_ptr) = original | (data << (index << 3));
     770:	e30639e8 	movw	r3, #27112	; 0x69e8
     774:	e3403000 	movt	r3, #0
     778:	e5933000 	ldr	r3, [r3]
     77c:	e51b2010 	ldr	r2, [r11, #-16]
     780:	e1a02182 	lsl	r2, r2, #3
     784:	e51b1014 	ldr	r1, [r11, #-20]	; 0xffffffec
     788:	e1a01211 	lsl	r1, r1, r2
     78c:	e51b2008 	ldr	r2, [r11, #-8]
     790:	e1812002 	orr	r2, r1, r2
     794:	e5832000 	str	r2, [r3]
     798:	ea000018 	b	800 <VIS_HEX_Set+0x100>
    } else {
        // HEX 4 ~ 5
        unsigned original = *(HEX5_HEX4_ptr);
     79c:	e30639ec 	movw	r3, #27116	; 0x69ec
     7a0:	e3403000 	movt	r3, #0
     7a4:	e5933000 	ldr	r3, [r3]
     7a8:	e5933000 	ldr	r3, [r3]
     7ac:	e50b300c 	str	r3, [r11, #-12]
        // clear the byte
        original &= ~(0xFF << ((index - 4) << 3));
     7b0:	e51b3010 	ldr	r3, [r11, #-16]
     7b4:	e2433004 	sub	r3, r3, #4
     7b8:	e1a03183 	lsl	r3, r3, #3
     7bc:	e3a020ff 	mov	r2, #255	; 0xff
     7c0:	e1a03312 	lsl	r3, r2, r3
     7c4:	e1e03003 	mvn	r3, r3
     7c8:	e51b200c 	ldr	r2, [r11, #-12]
     7cc:	e0023003 	and	r3, r2, r3
     7d0:	e50b300c 	str	r3, [r11, #-12]
        *(HEX5_HEX4_ptr) = original | (data << ((index - 4) << 3));
     7d4:	e30639ec 	movw	r3, #27116	; 0x69ec
     7d8:	e3403000 	movt	r3, #0
     7dc:	e5933000 	ldr	r3, [r3]
     7e0:	e51b2010 	ldr	r2, [r11, #-16]
     7e4:	e2422004 	sub	r2, r2, #4
     7e8:	e1a02182 	lsl	r2, r2, #3
     7ec:	e51b1014 	ldr	r1, [r11, #-20]	; 0xffffffec
     7f0:	e1a01211 	lsl	r1, r1, r2
     7f4:	e51b200c 	ldr	r2, [r11, #-12]
     7f8:	e1812002 	orr	r2, r1, r2
     7fc:	e5832000 	str	r2, [r3]
    }
}
     800:	e24bd004 	sub	sp, r11, #4
     804:	e8bd8800 	pop	{r11, pc}

00000808 <VIS_HEX_SetDigit>:

void VIS_HEX_SetDigit(unsigned index, unsigned data) {
     808:	e92d4800 	push	{r11, lr}
     80c:	e28db004 	add	r11, sp, #4
     810:	e24dd008 	sub	sp, sp, #8
     814:	e50b0008 	str	r0, [r11, #-8]
     818:	e50b100c 	str	r1, [r11, #-12]
#ifdef DEBUG
    if (index > 6) VIS_ERROR_Handler();
     81c:	e51b3008 	ldr	r3, [r11, #-8]
     820:	e3530006 	cmp	r3, #6
     824:	9a000000 	bls	82c <VIS_HEX_SetDigit+0x24>
     828:	ebfffe8f 	bl	26c <VIS_ERROR_Handler>
    if (data > 0xF) VIS_ERROR_Handler();
     82c:	e51b300c 	ldr	r3, [r11, #-12]
     830:	e353000f 	cmp	r3, #15
     834:	9a000000 	bls	83c <VIS_HEX_SetDigit+0x34>
     838:	ebfffe8b 	bl	26c <VIS_ERROR_Handler>
#endif // DEBUG
    VIS_HEX_Set(index, HEX_HEXs[data]);
     83c:	e30639f0 	movw	r3, #27120	; 0x69f0
     840:	e3403000 	movt	r3, #0
     844:	e51b200c 	ldr	r2, [r11, #-12]
     848:	e7933102 	ldr	r3, [r3, r2, lsl #2]
     84c:	e51b0008 	ldr	r0, [r11, #-8]
     850:	e1a01003 	mov	r1, r3
     854:	ebffffa9 	bl	700 <VIS_HEX_Set>
}
     858:	e24bd004 	sub	sp, r11, #4
     85c:	e8bd8800 	pop	{r11, pc}

00000860 <VIS_HEX_SetUint_HEX>:

void VIS_HEX_SetUint_HEX(unsigned data) {
     860:	e92d4800 	push	{r11, lr}
     864:	e28db004 	add	r11, sp, #4
     868:	e24dd010 	sub	sp, sp, #16
     86c:	e50b0010 	str	r0, [r11, #-16]
    data &= 0xFFFFFF;
     870:	e51b3010 	ldr	r3, [r11, #-16]
     874:	e3c334ff 	bic	r3, r3, #-16777216	; 0xff000000
     878:	e50b3010 	str	r3, [r11, #-16]
    for (unsigned i = 0; i <= 5; i++) {
     87c:	e3a03000 	mov	r3, #0
     880:	e50b3008 	str	r3, [r11, #-8]
     884:	ea00000a 	b	8b4 <VIS_HEX_SetUint_HEX+0x54>
        VIS_HEX_SetDigit(i, data & (0xF));
     888:	e51b3010 	ldr	r3, [r11, #-16]
     88c:	e203300f 	and	r3, r3, #15
     890:	e51b0008 	ldr	r0, [r11, #-8]
     894:	e1a01003 	mov	r1, r3
     898:	ebffffda 	bl	808 <VIS_HEX_SetDigit>
        data >>= 4;
     89c:	e51b3010 	ldr	r3, [r11, #-16]
     8a0:	e1a03223 	lsr	r3, r3, #4
     8a4:	e50b3010 	str	r3, [r11, #-16]
    VIS_HEX_Set(index, HEX_HEXs[data]);
}

void VIS_HEX_SetUint_HEX(unsigned data) {
    data &= 0xFFFFFF;
    for (unsigned i = 0; i <= 5; i++) {
     8a8:	e51b3008 	ldr	r3, [r11, #-8]
     8ac:	e2833001 	add	r3, r3, #1
     8b0:	e50b3008 	str	r3, [r11, #-8]
     8b4:	e51b3008 	ldr	r3, [r11, #-8]
     8b8:	e3530005 	cmp	r3, #5
     8bc:	9afffff1 	bls	888 <VIS_HEX_SetUint_HEX+0x28>
        VIS_HEX_SetDigit(i, data & (0xF));
        data >>= 4;
    }
}
     8c0:	e24bd004 	sub	sp, r11, #4
     8c4:	e8bd8800 	pop	{r11, pc}

000008c8 <VIS_HEX_SetUint_DEC>:

void VIS_HEX_SetUint_DEC(unsigned data) {
     8c8:	e92d4800 	push	{r11, lr}
     8cc:	e28db004 	add	r11, sp, #4
     8d0:	e24dd010 	sub	sp, sp, #16
     8d4:	e50b0010 	str	r0, [r11, #-16]
    data %= 1000000;
     8d8:	e51b2010 	ldr	r2, [r11, #-16]
     8dc:	e30d3e83 	movw	r3, #56963	; 0xde83
     8e0:	e344331b 	movt	r3, #17179	; 0x431b
     8e4:	e0831293 	umull	r1, r3, r3, r2
     8e8:	e1a01923 	lsr	r1, r3, #18
     8ec:	e3043240 	movw	r3, #16960	; 0x4240
     8f0:	e340300f 	movt	r3, #15
     8f4:	e0030193 	mul	r3, r3, r1
     8f8:	e0633002 	rsb	r3, r3, r2
     8fc:	e50b3010 	str	r3, [r11, #-16]
    for (unsigned i = 0; i <= 5; i++) {
     900:	e3a03000 	mov	r3, #0
     904:	e50b3008 	str	r3, [r11, #-8]
     908:	ea000015 	b	964 <VIS_HEX_SetUint_DEC+0x9c>
        VIS_HEX_SetDigit(i, data %10);
     90c:	e51b1010 	ldr	r1, [r11, #-16]
     910:	e30c3ccd 	movw	r3, #52429	; 0xcccd
     914:	e34c3ccc 	movt	r3, #52428	; 0xcccc
     918:	e0832193 	umull	r2, r3, r3, r1
     91c:	e1a021a3 	lsr	r2, r3, #3
     920:	e1a03002 	mov	r3, r2
     924:	e1a03103 	lsl	r3, r3, #2
     928:	e0833002 	add	r3, r3, r2
     92c:	e1a03083 	lsl	r3, r3, #1
     930:	e0632001 	rsb	r2, r3, r1
     934:	e51b0008 	ldr	r0, [r11, #-8]
     938:	e1a01002 	mov	r1, r2
     93c:	ebffffb1 	bl	808 <VIS_HEX_SetDigit>
        data /= 10;
     940:	e51b2010 	ldr	r2, [r11, #-16]
     944:	e30c3ccd 	movw	r3, #52429	; 0xcccd
     948:	e34c3ccc 	movt	r3, #52428	; 0xcccc
     94c:	e0831293 	umull	r1, r3, r3, r2
     950:	e1a031a3 	lsr	r3, r3, #3
     954:	e50b3010 	str	r3, [r11, #-16]
    }
}

void VIS_HEX_SetUint_DEC(unsigned data) {
    data %= 1000000;
    for (unsigned i = 0; i <= 5; i++) {
     958:	e51b3008 	ldr	r3, [r11, #-8]
     95c:	e2833001 	add	r3, r3, #1
     960:	e50b3008 	str	r3, [r11, #-8]
     964:	e51b3008 	ldr	r3, [r11, #-8]
     968:	e3530005 	cmp	r3, #5
     96c:	9affffe6 	bls	90c <VIS_HEX_SetUint_DEC+0x44>
        VIS_HEX_SetDigit(i, data %10);
        data /= 10;
    }
     970:	e24bd004 	sub	sp, r11, #4
     974:	e8bd8800 	pop	{r11, pc}

00000978 <led_test>:

static volatile int *JTAG_UART_ptr = (int *)JTAG_UART_BASE; // JTAG UART address
static volatile int * audio_ptr   = (int *)AUDIO_BASE; // Audio in address

// LED test passed
void led_test() {
     978:	e92d4800 	push	{r11, lr}
     97c:	e28db004 	add	r11, sp, #4
    VIS_LED_Set(1, VIS_LED_SET);
     980:	e3a00001 	mov	r0, #1
     984:	e3a01001 	mov	r1, #1
     988:	ebfffeed 	bl	544 <VIS_LED_Set>
    VIS_LED_Set(3, VIS_LED_SET);
     98c:	e3a00003 	mov	r0, #3
     990:	e3a01001 	mov	r1, #1
     994:	ebfffeea 	bl	544 <VIS_LED_Set>
    VIS_LED_Set(5, VIS_LED_SET);
     998:	e3a00005 	mov	r0, #5
     99c:	e3a01001 	mov	r1, #1
     9a0:	ebfffee7 	bl	544 <VIS_LED_Set>
    VIS_LED_Set(7, VIS_LED_SET);
     9a4:	e3a00007 	mov	r0, #7
     9a8:	e3a01001 	mov	r1, #1
     9ac:	ebfffee4 	bl	544 <VIS_LED_Set>
    VIS_LED_Toggle(9);
     9b0:	e3a00009 	mov	r0, #9
     9b4:	ebffff0f 	bl	5f8 <VIS_LED_Toggle>
    VIS_LED_Toggle(2);
     9b8:	e3a00002 	mov	r0, #2
     9bc:	ebffff0d 	bl	5f8 <VIS_LED_Toggle>
    VIS_LED_Toggle(2);
     9c0:	e3a00002 	mov	r0, #2
     9c4:	ebffff0b 	bl	5f8 <VIS_LED_Toggle>
    VIS_LED_Set(4, VIS_LED_SET);
     9c8:	e3a00004 	mov	r0, #4
     9cc:	e3a01001 	mov	r1, #1
     9d0:	ebfffedb 	bl	544 <VIS_LED_Set>
    VIS_LED_Set(4, VIS_LED_RESET);
     9d4:	e3a00004 	mov	r0, #4
     9d8:	e3a01000 	mov	r1, #0
     9dc:	ebfffed8 	bl	544 <VIS_LED_Set>
}
     9e0:	e8bd8800 	pop	{r11, pc}

000009e4 <audio_test>:

void audio_test() {
     9e4:	e92d4800 	push	{r11, lr}
     9e8:	e28db004 	add	r11, sp, #4
     9ec:	e24ddc19 	sub	sp, sp, #6400	; 0x1900
     9f0:	e24dd008 	sub	sp, sp, #8
 /* used for audio record/playback */
    int fifospace, buffer_index = 0;
     9f4:	e3a03000 	mov	r3, #0
     9f8:	e50b3008 	str	r3, [r11, #-8]
    int left_buffer[BUF_SIZE];
    int right_buffer[BUF_SIZE];

    fifospace = *(audio_ptr + 1); // read the audio port fifospace register
     9fc:	e3063a34 	movw	r3, #27188	; 0x6a34
     a00:	e3403000 	movt	r3, #0
     a04:	e5933000 	ldr	r3, [r3]
     a08:	e5933004 	ldr	r3, [r3, #4]
     a0c:	e50b300c 	str	r3, [r11, #-12]
        // is full
        // while ((fifospace & 0x000000FF) && (buffer_index < BUF_SIZE)) {
        while(1) {
            // left_buffer[buffer_index]  = *(audio_ptr + 2);
            // right_buffer[buffer_index] = *(audio_ptr + 3);
            while (!(fifospace & 0x000000FF));
     a10:	ea000000 	b	a18 <audio_test+0x34>
            if (VIS_Uart_RxChar(JTAG_UART_ptr) != 0) {
                // reset counter
                buffer_index = 0;
            }
            // fifospace = *(audio_ptr + 1); // read the audio port fifospace register
        }
     a14:	e1a00000 	nop			; (mov r0, r0)
        // is full
        // while ((fifospace & 0x000000FF) && (buffer_index < BUF_SIZE)) {
        while(1) {
            // left_buffer[buffer_index]  = *(audio_ptr + 2);
            // right_buffer[buffer_index] = *(audio_ptr + 3);
            while (!(fifospace & 0x000000FF));
     a18:	e1a00000 	nop			; (mov r0, r0)
     a1c:	e51b300c 	ldr	r3, [r11, #-12]
     a20:	e6ef3073 	uxtb	r3, r3
     a24:	e3530000 	cmp	r3, #0
     a28:	0afffffb 	beq	a1c <audio_test+0x38>
            *(audio_ptr + 2)  = *(audio_ptr + 2) >> 6;
     a2c:	e3063a34 	movw	r3, #27188	; 0x6a34
     a30:	e3403000 	movt	r3, #0
     a34:	e5933000 	ldr	r3, [r3]
     a38:	e2832008 	add	r2, r3, #8
     a3c:	e3063a34 	movw	r3, #27188	; 0x6a34
     a40:	e3403000 	movt	r3, #0
     a44:	e5933000 	ldr	r3, [r3]
     a48:	e2833008 	add	r3, r3, #8
     a4c:	e5933000 	ldr	r3, [r3]
     a50:	e1a03343 	asr	r3, r3, #6
     a54:	e5823000 	str	r3, [r2]
            *(audio_ptr + 3)  = *(audio_ptr + 3) >> 6;
     a58:	e3063a34 	movw	r3, #27188	; 0x6a34
     a5c:	e3403000 	movt	r3, #0
     a60:	e5933000 	ldr	r3, [r3]
     a64:	e283200c 	add	r2, r3, #12
     a68:	e3063a34 	movw	r3, #27188	; 0x6a34
     a6c:	e3403000 	movt	r3, #0
     a70:	e5933000 	ldr	r3, [r3]
     a74:	e283300c 	add	r3, r3, #12
     a78:	e5933000 	ldr	r3, [r3]
     a7c:	e1a03343 	asr	r3, r3, #6
     a80:	e5823000 	str	r3, [r2]
            ++buffer_index;
     a84:	e51b3008 	ldr	r3, [r11, #-8]
     a88:	e2833001 	add	r3, r3, #1
     a8c:	e50b3008 	str	r3, [r11, #-8]
            if (buffer_index >= 0xFFFFFF) buffer_index = 0;
     a90:	e51b2008 	ldr	r2, [r11, #-8]
     a94:	e30f3ffe 	movw	r3, #65534	; 0xfffe
     a98:	e34030ff 	movt	r3, #255	; 0xff
     a9c:	e1520003 	cmp	r2, r3
     aa0:	da000001 	ble	aac <audio_test+0xc8>
     aa4:	e3a03000 	mov	r3, #0
     aa8:	e50b3008 	str	r3, [r11, #-8]
            VIS_HEX_SetUint_HEX(buffer_index);
     aac:	e51b3008 	ldr	r3, [r11, #-8]
     ab0:	e1a00003 	mov	r0, r3
     ab4:	ebffff69 	bl	860 <VIS_HEX_SetUint_HEX>
            if (VIS_Uart_RxChar(JTAG_UART_ptr) != 0) {
     ab8:	e3063a30 	movw	r3, #27184	; 0x6a30
     abc:	e3403000 	movt	r3, #0
     ac0:	e5933000 	ldr	r3, [r3]
     ac4:	e1a00003 	mov	r0, r3
     ac8:	ebfffe75 	bl	4a4 <VIS_Uart_RxChar>
     acc:	e1a03000 	mov	r3, r0
     ad0:	e3530000 	cmp	r3, #0
     ad4:	0affffce 	beq	a14 <audio_test+0x30>
                // reset counter
                buffer_index = 0;
     ad8:	e3a03000 	mov	r3, #0
     adc:	e50b3008 	str	r3, [r11, #-8]
            }
            // fifospace = *(audio_ptr + 1); // read the audio port fifospace register
        }
     ae0:	eaffffcb 	b	a14 <audio_test+0x30>

00000ae4 <uart_test>:
        VIS_UART_TxInt(JTAG_UART_ptr, left_buffer[i]);
        VIS_Uart_Tx(JTAG_UART_ptr, "\r\n", strlen("\r\n"));
    }
}

void uart_test() {
     ae4:	e92d4810 	push	{r4, r11, lr}
     ae8:	e28db008 	add	r11, sp, #8
     aec:	e24dd024 	sub	sp, sp, #36	; 0x24
    
    char text_string[] = "\nJTAG UART test\n> \0";
     af0:	e3043784 	movw	r3, #18308	; 0x4784
     af4:	e3403000 	movt	r3, #0
     af8:	e24bc028 	sub	r12, r11, #40	; 0x28
     afc:	e1a0e003 	mov	lr, r3
     b00:	e8be000f 	ldm	lr!, {r0, r1, r2, r3}
     b04:	e8ac000f 	stmia	r12!, {r0, r1, r2, r3}
     b08:	e59e3000 	ldr	r3, [lr]
     b0c:	e58c3000 	str	r3, [r12]
    char c;

    VIS_Uart_Tx(JTAG_UART_ptr, text_string, strlen(text_string));
     b10:	e3063a30 	movw	r3, #27184	; 0x6a30
     b14:	e3403000 	movt	r3, #0
     b18:	e5934000 	ldr	r4, [r3]
     b1c:	e24b3028 	sub	r3, r11, #40	; 0x28
     b20:	e1a00003 	mov	r0, r3
     b24:	eb000e02 	bl	4334 <strlen>
     b28:	e1a03000 	mov	r3, r0
     b2c:	e24b2028 	sub	r2, r11, #40	; 0x28
     b30:	e1a00004 	mov	r0, r4
     b34:	e1a01002 	mov	r1, r2
     b38:	e1a02003 	mov	r2, r3
     b3c:	ebfffdeb 	bl	2f0 <VIS_Uart_Tx>

    for (int i = 0; i < BUF_SIZE; i++) {
     b40:	e3a03000 	mov	r3, #0
     b44:	e50b3010 	str	r3, [r11, #-16]
     b48:	ea00000e 	b	b88 <uart_test+0xa4>
        VIS_UART_TxInt(JTAG_UART_ptr, i);
     b4c:	e3063a30 	movw	r3, #27184	; 0x6a30
     b50:	e3403000 	movt	r3, #0
     b54:	e5933000 	ldr	r3, [r3]
     b58:	e1a00003 	mov	r0, r3
     b5c:	e51b1010 	ldr	r1, [r11, #-16]
     b60:	ebfffdfb 	bl	354 <VIS_UART_TxInt>
        VIS_Uart_TxChar(JTAG_UART_ptr, ' ');
     b64:	e3063a30 	movw	r3, #27184	; 0x6a30
     b68:	e3403000 	movt	r3, #0
     b6c:	e5933000 	ldr	r3, [r3]
     b70:	e1a00003 	mov	r0, r3
     b74:	e3a01020 	mov	r1, #32
     b78:	ebfffdbe 	bl	278 <VIS_Uart_TxChar>
    char text_string[] = "\nJTAG UART test\n> \0";
    char c;

    VIS_Uart_Tx(JTAG_UART_ptr, text_string, strlen(text_string));

    for (int i = 0; i < BUF_SIZE; i++) {
     b7c:	e51b3010 	ldr	r3, [r11, #-16]
     b80:	e2833001 	add	r3, r3, #1
     b84:	e50b3010 	str	r3, [r11, #-16]
     b88:	e51b2010 	ldr	r2, [r11, #-16]
     b8c:	e300331f 	movw	r3, #799	; 0x31f
     b90:	e1520003 	cmp	r2, r3
     b94:	daffffec 	ble	b4c <uart_test+0x68>
     b98:	ea000000 	b	ba0 <uart_test+0xbc>
        if (c != '\0') {
            VIS_Uart_Tx(JTAG_UART_ptr, text_string, strlen(text_string));

            VIS_Uart_TxChar(JTAG_UART_ptr, c);
        }
    }
     b9c:	e1a00000 	nop			; (mov r0, r0)
    }

    /* read and echo characters */
    while (1)
    {
        c = VIS_Uart_RxChar(JTAG_UART_ptr);
     ba0:	e3063a30 	movw	r3, #27184	; 0x6a30
     ba4:	e3403000 	movt	r3, #0
     ba8:	e5933000 	ldr	r3, [r3]
     bac:	e1a00003 	mov	r0, r3
     bb0:	ebfffe3b 	bl	4a4 <VIS_Uart_RxChar>
     bb4:	e1a03000 	mov	r3, r0
     bb8:	e54b3011 	strb	r3, [r11, #-17]	; 0xffffffef
        if (c != '\0') {
     bbc:	e55b3011 	ldrb	r3, [r11, #-17]	; 0xffffffef
     bc0:	e3530000 	cmp	r3, #0
     bc4:	0afffff4 	beq	b9c <uart_test+0xb8>
            VIS_Uart_Tx(JTAG_UART_ptr, text_string, strlen(text_string));
     bc8:	e3063a30 	movw	r3, #27184	; 0x6a30
     bcc:	e3403000 	movt	r3, #0
     bd0:	e5934000 	ldr	r4, [r3]
     bd4:	e24b3028 	sub	r3, r11, #40	; 0x28
     bd8:	e1a00003 	mov	r0, r3
     bdc:	eb000dd4 	bl	4334 <strlen>
     be0:	e1a03000 	mov	r3, r0
     be4:	e24b2028 	sub	r2, r11, #40	; 0x28
     be8:	e1a00004 	mov	r0, r4
     bec:	e1a01002 	mov	r1, r2
     bf0:	e1a02003 	mov	r2, r3
     bf4:	ebfffdbd 	bl	2f0 <VIS_Uart_Tx>

            VIS_Uart_TxChar(JTAG_UART_ptr, c);
     bf8:	e3063a30 	movw	r3, #27184	; 0x6a30
     bfc:	e3403000 	movt	r3, #0
     c00:	e5932000 	ldr	r2, [r3]
     c04:	e55b3011 	ldrb	r3, [r11, #-17]	; 0xffffffef
     c08:	e1a00002 	mov	r0, r2
     c0c:	e1a01003 	mov	r1, r3
     c10:	ebfffd98 	bl	278 <VIS_Uart_TxChar>
        }
    }
     c14:	eaffffe0 	b	b9c <uart_test+0xb8>

00000c18 <hex_test>:
}

void hex_test() {
     c18:	e92d4810 	push	{r4, r11, lr}
     c1c:	e28db008 	add	r11, sp, #8
     c20:	e24dd024 	sub	sp, sp, #36	; 0x24
    char text_string[] = "\nPress any key to continue\n> \0";
     c24:	e3043798 	movw	r3, #18328	; 0x4798
     c28:	e3403000 	movt	r3, #0
     c2c:	e24bc02c 	sub	r12, r11, #44	; 0x2c
     c30:	e1a0e003 	mov	lr, r3
     c34:	e8be000f 	ldm	lr!, {r0, r1, r2, r3}
     c38:	e8ac000f 	stmia	r12!, {r0, r1, r2, r3}
     c3c:	e89e000f 	ldm	lr, {r0, r1, r2, r3}
     c40:	e8ac0007 	stmia	r12!, {r0, r1, r2}
     c44:	e1cc30b0 	strh	r3, [r12]
     c48:	e28cc002 	add	r12, r12, #2
     c4c:	e1a03823 	lsr	r3, r3, #16
     c50:	e5cc3000 	strb	r3, [r12]
    VIS_HEX_Set(0, (0x1U << 6) + 0x1U);
     c54:	e3a00000 	mov	r0, #0
     c58:	e3a01041 	mov	r1, #65	; 0x41
     c5c:	ebfffea7 	bl	700 <VIS_HEX_Set>
    VIS_Uart_Tx(JTAG_UART_ptr, text_string, strlen(text_string));
     c60:	e3063a30 	movw	r3, #27184	; 0x6a30
     c64:	e3403000 	movt	r3, #0
     c68:	e5934000 	ldr	r4, [r3]
     c6c:	e24b302c 	sub	r3, r11, #44	; 0x2c
     c70:	e1a00003 	mov	r0, r3
     c74:	eb000dae 	bl	4334 <strlen>
     c78:	e1a03000 	mov	r3, r0
     c7c:	e24b202c 	sub	r2, r11, #44	; 0x2c
     c80:	e1a00004 	mov	r0, r4
     c84:	e1a01002 	mov	r1, r2
     c88:	e1a02003 	mov	r2, r3
     c8c:	ebfffd97 	bl	2f0 <VIS_Uart_Tx>
    while(VIS_Uart_RxChar(JTAG_UART_ptr) == '\0');
     c90:	e1a00000 	nop			; (mov r0, r0)
     c94:	e3063a30 	movw	r3, #27184	; 0x6a30
     c98:	e3403000 	movt	r3, #0
     c9c:	e5933000 	ldr	r3, [r3]
     ca0:	e1a00003 	mov	r0, r3
     ca4:	ebfffdfe 	bl	4a4 <VIS_Uart_RxChar>
     ca8:	e1a03000 	mov	r3, r0
     cac:	e3530000 	cmp	r3, #0
     cb0:	0afffff7 	beq	c94 <hex_test+0x7c>
    VIS_HEX_SetDigit(1, 0x3);
     cb4:	e3a00001 	mov	r0, #1
     cb8:	e3a01003 	mov	r1, #3
     cbc:	ebfffed1 	bl	808 <VIS_HEX_SetDigit>
    VIS_Uart_Tx(JTAG_UART_ptr, text_string, strlen(text_string));
     cc0:	e3063a30 	movw	r3, #27184	; 0x6a30
     cc4:	e3403000 	movt	r3, #0
     cc8:	e5934000 	ldr	r4, [r3]
     ccc:	e24b302c 	sub	r3, r11, #44	; 0x2c
     cd0:	e1a00003 	mov	r0, r3
     cd4:	eb000d96 	bl	4334 <strlen>
     cd8:	e1a03000 	mov	r3, r0
     cdc:	e24b202c 	sub	r2, r11, #44	; 0x2c
     ce0:	e1a00004 	mov	r0, r4
     ce4:	e1a01002 	mov	r1, r2
     ce8:	e1a02003 	mov	r2, r3
     cec:	ebfffd7f 	bl	2f0 <VIS_Uart_Tx>
    while(VIS_Uart_RxChar(JTAG_UART_ptr) == '\0');
     cf0:	e1a00000 	nop			; (mov r0, r0)
     cf4:	e3063a30 	movw	r3, #27184	; 0x6a30
     cf8:	e3403000 	movt	r3, #0
     cfc:	e5933000 	ldr	r3, [r3]
     d00:	e1a00003 	mov	r0, r3
     d04:	ebfffde6 	bl	4a4 <VIS_Uart_RxChar>
     d08:	e1a03000 	mov	r3, r0
     d0c:	e3530000 	cmp	r3, #0
     d10:	0afffff7 	beq	cf4 <hex_test+0xdc>
    VIS_HEX_SetDigit(2, 0x2);
     d14:	e3a00002 	mov	r0, #2
     d18:	e3a01002 	mov	r1, #2
     d1c:	ebfffeb9 	bl	808 <VIS_HEX_SetDigit>
    VIS_Uart_Tx(JTAG_UART_ptr, text_string, strlen(text_string));
     d20:	e3063a30 	movw	r3, #27184	; 0x6a30
     d24:	e3403000 	movt	r3, #0
     d28:	e5934000 	ldr	r4, [r3]
     d2c:	e24b302c 	sub	r3, r11, #44	; 0x2c
     d30:	e1a00003 	mov	r0, r3
     d34:	eb000d7e 	bl	4334 <strlen>
     d38:	e1a03000 	mov	r3, r0
     d3c:	e24b202c 	sub	r2, r11, #44	; 0x2c
     d40:	e1a00004 	mov	r0, r4
     d44:	e1a01002 	mov	r1, r2
     d48:	e1a02003 	mov	r2, r3
     d4c:	ebfffd67 	bl	2f0 <VIS_Uart_Tx>
    while(VIS_Uart_RxChar(JTAG_UART_ptr) == '\0');
     d50:	e1a00000 	nop			; (mov r0, r0)
     d54:	e3063a30 	movw	r3, #27184	; 0x6a30
     d58:	e3403000 	movt	r3, #0
     d5c:	e5933000 	ldr	r3, [r3]
     d60:	e1a00003 	mov	r0, r3
     d64:	ebfffdce 	bl	4a4 <VIS_Uart_RxChar>
     d68:	e1a03000 	mov	r3, r0
     d6c:	e3530000 	cmp	r3, #0
     d70:	0afffff7 	beq	d54 <hex_test+0x13c>
    VIS_HEX_SetDigit(3, 0x1);
     d74:	e3a00003 	mov	r0, #3
     d78:	e3a01001 	mov	r1, #1
     d7c:	ebfffea1 	bl	808 <VIS_HEX_SetDigit>
    VIS_Uart_Tx(JTAG_UART_ptr, text_string, strlen(text_string));
     d80:	e3063a30 	movw	r3, #27184	; 0x6a30
     d84:	e3403000 	movt	r3, #0
     d88:	e5934000 	ldr	r4, [r3]
     d8c:	e24b302c 	sub	r3, r11, #44	; 0x2c
     d90:	e1a00003 	mov	r0, r3
     d94:	eb000d66 	bl	4334 <strlen>
     d98:	e1a03000 	mov	r3, r0
     d9c:	e24b202c 	sub	r2, r11, #44	; 0x2c
     da0:	e1a00004 	mov	r0, r4
     da4:	e1a01002 	mov	r1, r2
     da8:	e1a02003 	mov	r2, r3
     dac:	ebfffd4f 	bl	2f0 <VIS_Uart_Tx>
    while(VIS_Uart_RxChar(JTAG_UART_ptr) == '\0');
     db0:	e1a00000 	nop			; (mov r0, r0)
     db4:	e3063a30 	movw	r3, #27184	; 0x6a30
     db8:	e3403000 	movt	r3, #0
     dbc:	e5933000 	ldr	r3, [r3]
     dc0:	e1a00003 	mov	r0, r3
     dc4:	ebfffdb6 	bl	4a4 <VIS_Uart_RxChar>
     dc8:	e1a03000 	mov	r3, r0
     dcc:	e3530000 	cmp	r3, #0
     dd0:	0afffff7 	beq	db4 <hex_test+0x19c>
    VIS_HEX_Set(4, (0x1U << 6) + 0x1U);
     dd4:	e3a00004 	mov	r0, #4
     dd8:	e3a01041 	mov	r1, #65	; 0x41
     ddc:	ebfffe47 	bl	700 <VIS_HEX_Set>
    VIS_Uart_Tx(JTAG_UART_ptr, text_string, strlen(text_string));
     de0:	e3063a30 	movw	r3, #27184	; 0x6a30
     de4:	e3403000 	movt	r3, #0
     de8:	e5934000 	ldr	r4, [r3]
     dec:	e24b302c 	sub	r3, r11, #44	; 0x2c
     df0:	e1a00003 	mov	r0, r3
     df4:	eb000d4e 	bl	4334 <strlen>
     df8:	e1a03000 	mov	r3, r0
     dfc:	e24b202c 	sub	r2, r11, #44	; 0x2c
     e00:	e1a00004 	mov	r0, r4
     e04:	e1a01002 	mov	r1, r2
     e08:	e1a02003 	mov	r2, r3
     e0c:	ebfffd37 	bl	2f0 <VIS_Uart_Tx>
    while(VIS_Uart_RxChar(JTAG_UART_ptr) == '\0');
     e10:	e1a00000 	nop			; (mov r0, r0)
     e14:	e3063a30 	movw	r3, #27184	; 0x6a30
     e18:	e3403000 	movt	r3, #0
     e1c:	e5933000 	ldr	r3, [r3]
     e20:	e1a00003 	mov	r0, r3
     e24:	ebfffd9e 	bl	4a4 <VIS_Uart_RxChar>
     e28:	e1a03000 	mov	r3, r0
     e2c:	e3530000 	cmp	r3, #0
     e30:	0afffff7 	beq	e14 <hex_test+0x1fc>
    VIS_HEX_SetDigit(5, 0xF);
     e34:	e3a00005 	mov	r0, #5
     e38:	e3a0100f 	mov	r1, #15
     e3c:	ebfffe71 	bl	808 <VIS_HEX_SetDigit>

    VIS_Uart_Tx(JTAG_UART_ptr, text_string, strlen(text_string));
     e40:	e3063a30 	movw	r3, #27184	; 0x6a30
     e44:	e3403000 	movt	r3, #0
     e48:	e5934000 	ldr	r4, [r3]
     e4c:	e24b302c 	sub	r3, r11, #44	; 0x2c
     e50:	e1a00003 	mov	r0, r3
     e54:	eb000d36 	bl	4334 <strlen>
     e58:	e1a03000 	mov	r3, r0
     e5c:	e24b202c 	sub	r2, r11, #44	; 0x2c
     e60:	e1a00004 	mov	r0, r4
     e64:	e1a01002 	mov	r1, r2
     e68:	e1a02003 	mov	r2, r3
     e6c:	ebfffd1f 	bl	2f0 <VIS_Uart_Tx>
    while(VIS_Uart_RxChar(JTAG_UART_ptr) == '\0');
     e70:	e1a00000 	nop			; (mov r0, r0)
     e74:	e3063a30 	movw	r3, #27184	; 0x6a30
     e78:	e3403000 	movt	r3, #0
     e7c:	e5933000 	ldr	r3, [r3]
     e80:	e1a00003 	mov	r0, r3
     e84:	ebfffd86 	bl	4a4 <VIS_Uart_RxChar>
     e88:	e1a03000 	mov	r3, r0
     e8c:	e3530000 	cmp	r3, #0
     e90:	0afffff7 	beq	e74 <hex_test+0x25c>

    VIS_HEX_SetUint_DEC(123456);
     e94:	e30e0240 	movw	r0, #57920	; 0xe240
     e98:	e3400001 	movt	r0, #1
     e9c:	ebfffe89 	bl	8c8 <VIS_HEX_SetUint_DEC>
    VIS_Uart_Tx(JTAG_UART_ptr, text_string, strlen(text_string));
     ea0:	e3063a30 	movw	r3, #27184	; 0x6a30
     ea4:	e3403000 	movt	r3, #0
     ea8:	e5934000 	ldr	r4, [r3]
     eac:	e24b302c 	sub	r3, r11, #44	; 0x2c
     eb0:	e1a00003 	mov	r0, r3
     eb4:	eb000d1e 	bl	4334 <strlen>
     eb8:	e1a03000 	mov	r3, r0
     ebc:	e24b202c 	sub	r2, r11, #44	; 0x2c
     ec0:	e1a00004 	mov	r0, r4
     ec4:	e1a01002 	mov	r1, r2
     ec8:	e1a02003 	mov	r2, r3
     ecc:	ebfffd07 	bl	2f0 <VIS_Uart_Tx>
    while(VIS_Uart_RxChar(JTAG_UART_ptr) == '\0');
     ed0:	e1a00000 	nop			; (mov r0, r0)
     ed4:	e3063a30 	movw	r3, #27184	; 0x6a30
     ed8:	e3403000 	movt	r3, #0
     edc:	e5933000 	ldr	r3, [r3]
     ee0:	e1a00003 	mov	r0, r3
     ee4:	ebfffd6e 	bl	4a4 <VIS_Uart_RxChar>
     ee8:	e1a03000 	mov	r3, r0
     eec:	e3530000 	cmp	r3, #0
     ef0:	0afffff7 	beq	ed4 <hex_test+0x2bc>

    VIS_HEX_SetUint_HEX(0x123ACF);
     ef4:	e3030acf 	movw	r0, #15055	; 0x3acf
     ef8:	e3400012 	movt	r0, #18
     efc:	ebfffe57 	bl	860 <VIS_HEX_SetUint_HEX>
    
}
     f00:	e24bd008 	sub	sp, r11, #8
     f04:	e8bd8810 	pop	{r4, r11, pc}

00000f08 <display_test>:

void display_test() {
     f08:	e92d4810 	push	{r4, r11, lr}
     f0c:	e28db008 	add	r11, sp, #8
     f10:	e24ddefa 	sub	sp, sp, #4000	; 0xfa0
     f14:	e24dd00c 	sub	sp, sp, #12
    VIS_VGA_SetBuffer(SDRAM_BASE, FPGA_ONCHIP_BASE);
     f18:	e3a00103 	mov	r0, #-1073741824	; 0xc0000000
     f1c:	e3a01332 	mov	r1, #-939524096	; 0xc8000000
     f20:	eb0003a5 	bl	1dbc <VIS_VGA_SetBuffer>
    unsigned k = 100;
     f24:	e3a03064 	mov	r3, #100	; 0x64
     f28:	e50b3014 	str	r3, [r11, #-20]	; 0xffffffec
    unsigned fakeSpect[MAX_LINES] = {0}; 
     f2c:	e24b3efa 	sub	r3, r11, #4000	; 0xfa0
     f30:	e243300c 	sub	r3, r3, #12
     f34:	e2433008 	sub	r3, r3, #8
     f38:	e3a02efa 	mov	r2, #4000	; 0xfa0
     f3c:	e1a00003 	mov	r0, r3
     f40:	e3a01000 	mov	r1, #0
     f44:	eb000c8f 	bl	4188 <memset>
    while(1) {
        for (unsigned i = 0; i < k; i++) {
     f48:	e3a03000 	mov	r3, #0
     f4c:	e50b3010 	str	r3, [r11, #-16]
     f50:	ea00006b 	b	1104 <display_test+0x1fc>
            if (i != 0 && rand() % 10 < 2)
     f54:	e51b3010 	ldr	r3, [r11, #-16]
     f58:	e3530000 	cmp	r3, #0
     f5c:	0a00002d 	beq	1018 <display_test+0x110>
     f60:	eb000cdc 	bl	42d8 <rand>
     f64:	e1a01000 	mov	r1, r0
     f68:	e3063667 	movw	r3, #26215	; 0x6667
     f6c:	e3463666 	movt	r3, #26214	; 0x6666
     f70:	e0c30193 	smull	r0, r3, r3, r1
     f74:	e1a02143 	asr	r2, r3, #2
     f78:	e1a03fc1 	asr	r3, r1, #31
     f7c:	e0632002 	rsb	r2, r3, r2
     f80:	e1a03002 	mov	r3, r2
     f84:	e1a03103 	lsl	r3, r3, #2
     f88:	e0833002 	add	r3, r3, r2
     f8c:	e1a03083 	lsl	r3, r3, #1
     f90:	e0632001 	rsb	r2, r3, r1
     f94:	e3520001 	cmp	r2, #1
     f98:	ca00001e 	bgt	1018 <display_test+0x110>
                fakeSpect[i] = fakeSpect[i - 1] + (rand() % 800 - 400);
     f9c:	e51b3010 	ldr	r3, [r11, #-16]
     fa0:	e2432001 	sub	r2, r3, #1
     fa4:	e30f3058 	movw	r3, #61528	; 0xf058
     fa8:	e34f3fff 	movt	r3, #65535	; 0xffff
     fac:	e1a02102 	lsl	r2, r2, #2
     fb0:	e24b100c 	sub	r1, r11, #12
     fb4:	e0812002 	add	r2, r1, r2
     fb8:	e0823003 	add	r3, r2, r3
     fbc:	e5934000 	ldr	r4, [r3]
     fc0:	eb000cc4 	bl	42d8 <rand>
     fc4:	e1a02000 	mov	r2, r0
     fc8:	e308351f 	movw	r3, #34079	; 0x851f
     fcc:	e34531eb 	movt	r3, #20971	; 0x51eb
     fd0:	e0c30293 	smull	r0, r3, r3, r2
     fd4:	e1a01443 	asr	r1, r3, #8
     fd8:	e1a03fc2 	asr	r3, r2, #31
     fdc:	e0633001 	rsb	r3, r3, r1
     fe0:	e3a01e32 	mov	r1, #800	; 0x320
     fe4:	e0030391 	mul	r3, r1, r3
     fe8:	e0633002 	rsb	r3, r3, r2
     fec:	e0843003 	add	r3, r4, r3
     ff0:	e2432e19 	sub	r2, r3, #400	; 0x190
     ff4:	e51b1010 	ldr	r1, [r11, #-16]
     ff8:	e30f3058 	movw	r3, #61528	; 0xf058
     ffc:	e34f3fff 	movt	r3, #65535	; 0xffff
    1000:	e1a01101 	lsl	r1, r1, #2
    1004:	e24b000c 	sub	r0, r11, #12
    1008:	e0801001 	add	r1, r0, r1
    100c:	e0813003 	add	r3, r1, r3
    1010:	e5832000 	str	r2, [r3]
    1014:	ea000037 	b	10f8 <display_test+0x1f0>
            else if (rand() % 10 < 3)
    1018:	eb000cae 	bl	42d8 <rand>
    101c:	e1a01000 	mov	r1, r0
    1020:	e3063667 	movw	r3, #26215	; 0x6667
    1024:	e3463666 	movt	r3, #26214	; 0x6666
    1028:	e0c32193 	smull	r2, r3, r3, r1
    102c:	e1a02143 	asr	r2, r3, #2
    1030:	e1a03fc1 	asr	r3, r1, #31
    1034:	e0632002 	rsb	r2, r3, r2
    1038:	e1a03002 	mov	r3, r2
    103c:	e1a03103 	lsl	r3, r3, #2
    1040:	e0833002 	add	r3, r3, r2
    1044:	e1a03083 	lsl	r3, r3, #1
    1048:	e0632001 	rsb	r2, r3, r1
    104c:	e3520002 	cmp	r2, #2
    1050:	ca000014 	bgt	10a8 <display_test+0x1a0>
                fakeSpect[i] = rand() % 20000;
    1054:	eb000c9f 	bl	42d8 <rand>
    1058:	e1a02000 	mov	r2, r0
    105c:	e3083bad 	movw	r3, #35757	; 0x8bad
    1060:	e34638db 	movt	r3, #26843	; 0x68db
    1064:	e0c30293 	smull	r0, r3, r3, r2
    1068:	e1a016c3 	asr	r1, r3, #13
    106c:	e1a03fc2 	asr	r3, r2, #31
    1070:	e0633001 	rsb	r3, r3, r1
    1074:	e3041e20 	movw	r1, #20000	; 0x4e20
    1078:	e0030391 	mul	r3, r1, r3
    107c:	e0633002 	rsb	r3, r3, r2
    1080:	e1a02003 	mov	r2, r3
    1084:	e51b1010 	ldr	r1, [r11, #-16]
    1088:	e30f3058 	movw	r3, #61528	; 0xf058
    108c:	e34f3fff 	movt	r3, #65535	; 0xffff
    1090:	e1a01101 	lsl	r1, r1, #2
    1094:	e24b000c 	sub	r0, r11, #12
    1098:	e0801001 	add	r1, r0, r1
    109c:	e0813003 	add	r3, r1, r3
    10a0:	e5832000 	str	r2, [r3]
    10a4:	ea000013 	b	10f8 <display_test+0x1f0>
            else 
                fakeSpect[i] = rand() % 12000;
    10a8:	eb000c8a 	bl	42d8 <rand>
    10ac:	e1a02000 	mov	r2, r0
    10b0:	e30139f1 	movw	r3, #6641	; 0x19f1
    10b4:	e3403576 	movt	r3, #1398	; 0x576
    10b8:	e0c31293 	smull	r1, r3, r3, r2
    10bc:	e1a01443 	asr	r1, r3, #8
    10c0:	e1a03fc2 	asr	r3, r2, #31
    10c4:	e0633001 	rsb	r3, r3, r1
    10c8:	e3021ee0 	movw	r1, #12000	; 0x2ee0
    10cc:	e0030391 	mul	r3, r1, r3
    10d0:	e0633002 	rsb	r3, r3, r2
    10d4:	e1a02003 	mov	r2, r3
    10d8:	e51b1010 	ldr	r1, [r11, #-16]
    10dc:	e30f3058 	movw	r3, #61528	; 0xf058
    10e0:	e34f3fff 	movt	r3, #65535	; 0xffff
    10e4:	e1a01101 	lsl	r1, r1, #2
    10e8:	e24b000c 	sub	r0, r11, #12
    10ec:	e0801001 	add	r1, r0, r1
    10f0:	e0813003 	add	r3, r1, r3
    10f4:	e5832000 	str	r2, [r3]
void display_test() {
    VIS_VGA_SetBuffer(SDRAM_BASE, FPGA_ONCHIP_BASE);
    unsigned k = 100;
    unsigned fakeSpect[MAX_LINES] = {0}; 
    while(1) {
        for (unsigned i = 0; i < k; i++) {
    10f8:	e51b3010 	ldr	r3, [r11, #-16]
    10fc:	e2833001 	add	r3, r3, #1
    1100:	e50b3010 	str	r3, [r11, #-16]
    1104:	e51b2010 	ldr	r2, [r11, #-16]
    1108:	e51b3014 	ldr	r3, [r11, #-20]	; 0xffffffec
    110c:	e1520003 	cmp	r2, r3
    1110:	3affff8f 	bcc	f54 <display_test+0x4c>
            else if (rand() % 10 < 3)
                fakeSpect[i] = rand() % 20000;
            else 
                fakeSpect[i] = rand() % 12000;
        }
        VIS_VGA_UpdateFrame(k, fakeSpect);
    1114:	e24b3efa 	sub	r3, r11, #4000	; 0xfa0
    1118:	e243300c 	sub	r3, r3, #12
    111c:	e2433008 	sub	r3, r3, #8
    1120:	e51b0014 	ldr	r0, [r11, #-20]	; 0xffffffec
    1124:	e1a01003 	mov	r1, r3
    1128:	eb0001b8 	bl	1810 <VIS_VGA_UpdateFrame>
        // VIS_VGA_ColorTest();
    }
    112c:	eaffff85 	b	f48 <display_test+0x40>

00001130 <audio_transform_test>:
}

void audio_transform_test() {
    1130:	e92d4bf0 	push	{r4, r5, r6, r7, r8, r9, r11, lr}
    1134:	e28db01c 	add	r11, sp, #28
    1138:	e24ddd66 	sub	sp, sp, #6528	; 0x1980
    113c:	e24dd018 	sub	sp, sp, #24
    volatile int * red_LED_ptr = (int *)LEDR_BASE;
    1140:	e3a03000 	mov	r3, #0
    1144:	e34f3f20 	movt	r3, #65312	; 0xff20
    1148:	e50b3030 	str	r3, [r11, #-48]	; 0xffffffd0
    volatile int * audio_ptr   = (int *)AUDIO_BASE;
    114c:	e3a03dc1 	mov	r3, #12352	; 0x3040
    1150:	e34f3f20 	movt	r3, #65312	; 0xff20
    1154:	e50b3034 	str	r3, [r11, #-52]	; 0xffffffcc

    /* used for audio record/playback */
    int fifospace;
    int buffer_index_start = 0;
    1158:	e3a03000 	mov	r3, #0
    115c:	e50b3020 	str	r3, [r11, #-32]	; 0xffffffe0
    int fourierIndex = 0;
    1160:	e3a03000 	mov	r3, #0
    1164:	e50b3024 	str	r3, [r11, #-36]	; 0xffffffdc
    unsigned fourierLength = 100;
    1168:	e3a03064 	mov	r3, #100	; 0x64
    116c:	e50b3038 	str	r3, [r11, #-56]	; 0xffffffc8
    int fourierSize = BUF_SIZE/fourierLength;
    1170:	e3a00e32 	mov	r0, #800	; 0x320
    1174:	e51b1038 	ldr	r1, [r11, #-56]	; 0xffffffc8
    1178:	eb0008bb 	bl	346c <__aeabi_uidiv>
    117c:	e1a03000 	mov	r3, r0
    1180:	e50b303c 	str	r3, [r11, #-60]	; 0xffffffc4
    int record = 0, play = 0, vga = 0, buffer_index = 0;
    1184:	e3a03000 	mov	r3, #0
    1188:	e50b3040 	str	r3, [r11, #-64]	; 0xffffffc0
    118c:	e3a03000 	mov	r3, #0
    1190:	e50b3044 	str	r3, [r11, #-68]	; 0xffffffbc
    1194:	e3a03000 	mov	r3, #0
    1198:	e50b3048 	str	r3, [r11, #-72]	; 0xffffffb8
    119c:	e3a03000 	mov	r3, #0
    11a0:	e50b3028 	str	r3, [r11, #-40]	; 0xffffffd8
    int left_buffer[BUF_SIZE];
    int right_buffer[BUF_SIZE];
    unsigned fftamp[fourierLength];
    11a4:	e51b0038 	ldr	r0, [r11, #-56]	; 0xffffffc8
    11a8:	e1a03000 	mov	r3, r0
    11ac:	e2433001 	sub	r3, r3, #1
    11b0:	e50b304c 	str	r3, [r11, #-76]	; 0xffffffb4
    11b4:	e1a02000 	mov	r2, r0
    11b8:	e3a03000 	mov	r3, #0
    11bc:	e1a01da2 	lsr	r1, r2, #27
    11c0:	e1a05283 	lsl	r5, r3, #5
    11c4:	e1815005 	orr	r5, r1, r5
    11c8:	e1a04282 	lsl	r4, r2, #5
    11cc:	e1a02000 	mov	r2, r0
    11d0:	e3a03000 	mov	r3, #0
    11d4:	e1a01da2 	lsr	r1, r2, #27
    11d8:	e1a07283 	lsl	r7, r3, #5
    11dc:	e1817007 	orr	r7, r1, r7
    11e0:	e1a06282 	lsl	r6, r2, #5
    11e4:	e1a03100 	lsl	r3, r0, #2
    11e8:	e2833003 	add	r3, r3, #3
    11ec:	e2833007 	add	r3, r3, #7
    11f0:	e1a031a3 	lsr	r3, r3, #3
    11f4:	e1a03183 	lsl	r3, r3, #3
    11f8:	e04dd003 	sub	sp, sp, r3
    11fc:	e1a0300d 	mov	r3, sp
    1200:	e2833003 	add	r3, r3, #3
    1204:	e1a03123 	lsr	r3, r3, #2
    1208:	e1a03103 	lsl	r3, r3, #2
    120c:	e50b3050 	str	r3, [r11, #-80]	; 0xffffffb0
    Complex cArray[fourierLength];
    1210:	e51b0038 	ldr	r0, [r11, #-56]	; 0xffffffc8
    1214:	e1a03000 	mov	r3, r0
    1218:	e2433001 	sub	r3, r3, #1
    121c:	e50b3054 	str	r3, [r11, #-84]	; 0xffffffac
    1220:	e1a02000 	mov	r2, r0
    1224:	e3a03000 	mov	r3, #0
    1228:	e1a01d22 	lsr	r1, r2, #26
    122c:	e1a09303 	lsl	r9, r3, #6
    1230:	e1819009 	orr	r9, r1, r9
    1234:	e1a08302 	lsl	r8, r2, #6
    1238:	e1a02000 	mov	r2, r0
    123c:	e3a03000 	mov	r3, #0
    1240:	e1a01d22 	lsr	r1, r2, #26
    1244:	e1a0c303 	lsl	r12, r3, #6
    1248:	e24bea02 	sub	lr, r11, #8192	; 0x2000
    124c:	e58ec680 	str	r12, [lr, #1664]	; 0x680
    1250:	e24bca02 	sub	r12, r11, #8192	; 0x2000
    1254:	e59cc680 	ldr	r12, [r12, #1664]	; 0x680
    1258:	e181c00c 	orr	r12, r1, r12
    125c:	e24bea02 	sub	lr, r11, #8192	; 0x2000
    1260:	e58ec680 	str	r12, [lr, #1664]	; 0x680
    1264:	e1a0e302 	lsl	lr, r2, #6
    1268:	e24b1a02 	sub	r1, r11, #8192	; 0x2000
    126c:	e1a03180 	lsl	r3, r0, #3
    1270:	e2833003 	add	r3, r3, #3
    1274:	e2833007 	add	r3, r3, #7
    1278:	e1a031a3 	lsr	r3, r3, #3
    127c:	e1a03183 	lsl	r3, r3, #3
    1280:	e04dd003 	sub	sp, sp, r3
    1284:	e1a0300d 	mov	r3, sp
    1288:	e2833003 	add	r3, r3, #3
    128c:	e1a03123 	lsr	r3, r3, #2
    1290:	e1a03103 	lsl	r3, r3, #2
    1294:	e50b3058 	str	r3, [r11, #-88]	; 0xffffffa8
    unsigned count = 0;
    1298:	e3a03000 	mov	r3, #0
    129c:	e50b302c 	str	r3, [r11, #-44]	; 0xffffffd4
    unsigned result[fourierLength];
    12a0:	e51b0038 	ldr	r0, [r11, #-56]	; 0xffffffc8
    12a4:	e1a03000 	mov	r3, r0
    12a8:	e2433001 	sub	r3, r3, #1
    12ac:	e50b305c 	str	r3, [r11, #-92]	; 0xffffffa4
    12b0:	e1a02000 	mov	r2, r0
    12b4:	e3a03000 	mov	r3, #0
    12b8:	e1a01da2 	lsr	r1, r2, #27
    12bc:	e1a0c283 	lsl	r12, r3, #5
    12c0:	e24bea02 	sub	lr, r11, #8192	; 0x2000
    12c4:	e58ec678 	str	r12, [lr, #1656]	; 0x678
    12c8:	e24bca02 	sub	r12, r11, #8192	; 0x2000
    12cc:	e59cc678 	ldr	r12, [r12, #1656]	; 0x678
    12d0:	e181c00c 	orr	r12, r1, r12
    12d4:	e24bea02 	sub	lr, r11, #8192	; 0x2000
    12d8:	e58ec678 	str	r12, [lr, #1656]	; 0x678
    12dc:	e1a0e282 	lsl	lr, r2, #5
    12e0:	e24b1a02 	sub	r1, r11, #8192	; 0x2000
    12e4:	e1a02000 	mov	r2, r0
    12e8:	e3a03000 	mov	r3, #0
    12ec:	e1a01da2 	lsr	r1, r2, #27
    12f0:	e1a0c283 	lsl	r12, r3, #5
    12f4:	e24bea02 	sub	lr, r11, #8192	; 0x2000
    12f8:	e58ec670 	str	r12, [lr, #1648]	; 0x670
    12fc:	e24bca02 	sub	r12, r11, #8192	; 0x2000
    1300:	e59cc670 	ldr	r12, [r12, #1648]	; 0x670
    1304:	e181c00c 	orr	r12, r1, r12
    1308:	e24bea02 	sub	lr, r11, #8192	; 0x2000
    130c:	e58ec670 	str	r12, [lr, #1648]	; 0x670
    1310:	e1a0e282 	lsl	lr, r2, #5
    1314:	e24b1a02 	sub	r1, r11, #8192	; 0x2000
    1318:	e1a03100 	lsl	r3, r0, #2
    131c:	e2833003 	add	r3, r3, #3
    1320:	e2833007 	add	r3, r3, #7
    1324:	e1a031a3 	lsr	r3, r3, #3
    1328:	e1a03183 	lsl	r3, r3, #3
    132c:	e04dd003 	sub	sp, sp, r3
    1330:	e1a0300d 	mov	r3, sp
    1334:	e2833003 	add	r3, r3, #3
    1338:	e1a03123 	lsr	r3, r3, #2
    133c:	e1a03103 	lsl	r3, r3, #2
    1340:	e50b3060 	str	r3, [r11, #-96]	; 0xffffffa0

    Complex omega [fourierLength],omegaInverse[fourierLength];
    1344:	e51b1038 	ldr	r1, [r11, #-56]	; 0xffffffc8
    1348:	e1a03001 	mov	r3, r1
    134c:	e2433001 	sub	r3, r3, #1
    1350:	e50b3064 	str	r3, [r11, #-100]	; 0xffffff9c
    1354:	e1a02001 	mov	r2, r1
    1358:	e3a03000 	mov	r3, #0
    135c:	e1a00d22 	lsr	r0, r2, #26
    1360:	e1a0c303 	lsl	r12, r3, #6
    1364:	e24bea02 	sub	lr, r11, #8192	; 0x2000
    1368:	e58ec668 	str	r12, [lr, #1640]	; 0x668
    136c:	e24bca02 	sub	r12, r11, #8192	; 0x2000
    1370:	e59cc668 	ldr	r12, [r12, #1640]	; 0x668
    1374:	e180c00c 	orr	r12, r0, r12
    1378:	e24bea02 	sub	lr, r11, #8192	; 0x2000
    137c:	e58ec668 	str	r12, [lr, #1640]	; 0x668
    1380:	e1a0e302 	lsl	lr, r2, #6
    1384:	e24b0a02 	sub	r0, r11, #8192	; 0x2000
    1388:	e1a02001 	mov	r2, r1
    138c:	e3a03000 	mov	r3, #0
    1390:	e1a00d22 	lsr	r0, r2, #26
    1394:	e1a0c303 	lsl	r12, r3, #6
    1398:	e24bea02 	sub	lr, r11, #8192	; 0x2000
    139c:	e58ec660 	str	r12, [lr, #1632]	; 0x660
    13a0:	e24bca02 	sub	r12, r11, #8192	; 0x2000
    13a4:	e59cc660 	ldr	r12, [r12, #1632]	; 0x660
    13a8:	e180c00c 	orr	r12, r0, r12
    13ac:	e24bea02 	sub	lr, r11, #8192	; 0x2000
    13b0:	e58ec660 	str	r12, [lr, #1632]	; 0x660
    13b4:	e1a0e302 	lsl	lr, r2, #6
    13b8:	e24b0a02 	sub	r0, r11, #8192	; 0x2000
    13bc:	e1a03181 	lsl	r3, r1, #3
    13c0:	e2833003 	add	r3, r3, #3
    13c4:	e2833007 	add	r3, r3, #7
    13c8:	e1a031a3 	lsr	r3, r3, #3
    13cc:	e1a03183 	lsl	r3, r3, #3
    13d0:	e04dd003 	sub	sp, sp, r3
    13d4:	e1a0300d 	mov	r3, sp
    13d8:	e2833003 	add	r3, r3, #3
    13dc:	e1a03123 	lsr	r3, r3, #2
    13e0:	e1a03103 	lsl	r3, r3, #2
    13e4:	e50b3068 	str	r3, [r11, #-104]	; 0xffffff98
    13e8:	e51b1038 	ldr	r1, [r11, #-56]	; 0xffffffc8
    13ec:	e1a03001 	mov	r3, r1
    13f0:	e2433001 	sub	r3, r3, #1
    13f4:	e50b306c 	str	r3, [r11, #-108]	; 0xffffff94
    13f8:	e1a02001 	mov	r2, r1
    13fc:	e3a03000 	mov	r3, #0
    1400:	e1a00d22 	lsr	r0, r2, #26
    1404:	e1a0c303 	lsl	r12, r3, #6
    1408:	e24bea02 	sub	lr, r11, #8192	; 0x2000
    140c:	e58ec658 	str	r12, [lr, #1624]	; 0x658
    1410:	e24bca02 	sub	r12, r11, #8192	; 0x2000
    1414:	e59cc658 	ldr	r12, [r12, #1624]	; 0x658
    1418:	e180c00c 	orr	r12, r0, r12
    141c:	e24bea02 	sub	lr, r11, #8192	; 0x2000
    1420:	e58ec658 	str	r12, [lr, #1624]	; 0x658
    1424:	e1a0e302 	lsl	lr, r2, #6
    1428:	e24b0a02 	sub	r0, r11, #8192	; 0x2000
    142c:	e1a02001 	mov	r2, r1
    1430:	e3a03000 	mov	r3, #0
    1434:	e1a00d22 	lsr	r0, r2, #26
    1438:	e1a0c303 	lsl	r12, r3, #6
    143c:	e24bea02 	sub	lr, r11, #8192	; 0x2000
    1440:	e58ec650 	str	r12, [lr, #1616]	; 0x650
    1444:	e24bca02 	sub	r12, r11, #8192	; 0x2000
    1448:	e59cc650 	ldr	r12, [r12, #1616]	; 0x650
    144c:	e180c00c 	orr	r12, r0, r12
    1450:	e24bea02 	sub	lr, r11, #8192	; 0x2000
    1454:	e58ec650 	str	r12, [lr, #1616]	; 0x650
    1458:	e1a0e302 	lsl	lr, r2, #6
    145c:	e24b0a02 	sub	r0, r11, #8192	; 0x2000
    1460:	e1a03181 	lsl	r3, r1, #3
    1464:	e2833003 	add	r3, r3, #3
    1468:	e2833007 	add	r3, r3, #7
    146c:	e1a031a3 	lsr	r3, r3, #3
    1470:	e1a03183 	lsl	r3, r3, #3
    1474:	e04dd003 	sub	sp, sp, r3
    1478:	e1a0300d 	mov	r3, sp
    147c:	e2833003 	add	r3, r3, #3
    1480:	e1a03123 	lsr	r3, r3, #2
    1484:	e1a03103 	lsl	r3, r3, #2
    1488:	e50b3070 	str	r3, [r11, #-112]	; 0xffffff90
    initOmega (omega,omegaInverse, fourierLength );
    148c:	e51b1068 	ldr	r1, [r11, #-104]	; 0xffffff98
    1490:	e51b2070 	ldr	r2, [r11, #-112]	; 0xffffff90
    1494:	e51b3038 	ldr	r3, [r11, #-56]	; 0xffffffc8
    1498:	e1a00001 	mov	r0, r1
    149c:	e1a01002 	mov	r1, r2
    14a0:	e1a02003 	mov	r2, r3
    14a4:	eb00056c 	bl	2a5c <initOmega>
    
    fifospace = *(audio_ptr + 1); // read the audio port fifospace register
    14a8:	e51b3034 	ldr	r3, [r11, #-52]	; 0xffffffcc
    14ac:	e5933004 	ldr	r3, [r3, #4]
    14b0:	e50b3074 	str	r3, [r11, #-116]	; 0xffffff8c
        // is full
        // while ((fifospace & 0x000000FF) && (buffer_index < BUF_SIZE)) {
        while(1) {
            // left_buffer[buffer_index]  = *(audio_ptr + 2);
            // right_buffer[buffer_index] = *(audio_ptr + 3);
            while (!(fifospace & 0x000000FF));
    14b4:	ea000000 	b	14bc <audio_transform_test+0x38c>
                // reset counter
                buffer_index = 0;
            }

            // fifospace = *(audio_ptr + 1); // read the audio port fifospace register
        }
    14b8:	e1a00000 	nop			; (mov r0, r0)
        // is full
        // while ((fifospace & 0x000000FF) && (buffer_index < BUF_SIZE)) {
        while(1) {
            // left_buffer[buffer_index]  = *(audio_ptr + 2);
            // right_buffer[buffer_index] = *(audio_ptr + 3);
            while (!(fifospace & 0x000000FF));
    14bc:	e1a00000 	nop			; (mov r0, r0)
    14c0:	e51b3074 	ldr	r3, [r11, #-116]	; 0xffffff8c
    14c4:	e6ef3073 	uxtb	r3, r3
    14c8:	e3530000 	cmp	r3, #0
    14cc:	0afffffb 	beq	14c0 <audio_transform_test+0x390>
            *(audio_ptr + 2)  = *(audio_ptr + 2) >> 6;
    14d0:	e51b3034 	ldr	r3, [r11, #-52]	; 0xffffffcc
    14d4:	e2833008 	add	r3, r3, #8
    14d8:	e51b2034 	ldr	r2, [r11, #-52]	; 0xffffffcc
    14dc:	e2822008 	add	r2, r2, #8
    14e0:	e5922000 	ldr	r2, [r2]
    14e4:	e1a02342 	asr	r2, r2, #6
    14e8:	e5832000 	str	r2, [r3]
            *(audio_ptr + 3)  = *(audio_ptr + 3) >> 6;
    14ec:	e51b3034 	ldr	r3, [r11, #-52]	; 0xffffffcc
    14f0:	e283300c 	add	r3, r3, #12
    14f4:	e51b2034 	ldr	r2, [r11, #-52]	; 0xffffffcc
    14f8:	e282200c 	add	r2, r2, #12
    14fc:	e5922000 	ldr	r2, [r2]
    1500:	e1a02342 	asr	r2, r2, #6
    1504:	e5832000 	str	r2, [r3]

             if(buffer_index - buffer_index_start == fourierLength){
    1508:	e51b2028 	ldr	r2, [r11, #-40]	; 0xffffffd8
    150c:	e51b3020 	ldr	r3, [r11, #-32]	; 0xffffffe0
    1510:	e0633002 	rsb	r3, r3, r2
    1514:	e1a02003 	mov	r2, r3
    1518:	e51b3038 	ldr	r3, [r11, #-56]	; 0xffffffc8
    151c:	e1520003 	cmp	r2, r3
    1520:	1a00001c 	bne	1598 <audio_transform_test+0x468>
                    buffer_index_start = buffer_index;
    1524:	e51b3028 	ldr	r3, [r11, #-40]	; 0xffffffd8
    1528:	e50b3020 	str	r3, [r11, #-32]	; 0xffffffe0
                if(count == 0) {
    152c:	e51b302c 	ldr	r3, [r11, #-44]	; 0xffffffd4
    1530:	e3530000 	cmp	r3, #0
    1534:	1a000014 	bne	158c <audio_transform_test+0x45c>
                    count = 0;
    1538:	e3a03000 	mov	r3, #0
    153c:	e50b302c 	str	r3, [r11, #-44]	; 0xffffffd4
                    
                    //idft(cArray,fourierLength,omegaInverse);
                        //FastFourierTransform(cArray,fourierLength);
                    //fftamp[fourierIndex][fourierLength] = magnitude(cArray[i])%15000;
                    idftMag(result,cArray,fourierLength,omegaInverse);
    1540:	e51b0060 	ldr	r0, [r11, #-96]	; 0xffffffa0
    1544:	e51b1058 	ldr	r1, [r11, #-88]	; 0xffffffa8
    1548:	e51b2038 	ldr	r2, [r11, #-56]	; 0xffffffc8
    154c:	e51b3070 	ldr	r3, [r11, #-112]	; 0xffffff90
    1550:	eb0006a8 	bl	2ff8 <idftMag>
                    VIS_VGA_UpdateFrame(fourierLength,result );
    1554:	e51b3060 	ldr	r3, [r11, #-96]	; 0xffffffa0
    1558:	e51b0038 	ldr	r0, [r11, #-56]	; 0xffffffc8
    155c:	e1a01003 	mov	r1, r3
    1560:	eb0000aa 	bl	1810 <VIS_VGA_UpdateFrame>
                    fourierIndex ++;
    1564:	e51b3024 	ldr	r3, [r11, #-36]	; 0xffffffdc
    1568:	e2833001 	add	r3, r3, #1
    156c:	e50b3024 	str	r3, [r11, #-36]	; 0xffffffdc
                    if(fourierIndex == fourierSize){
    1570:	e51b2024 	ldr	r2, [r11, #-36]	; 0xffffffdc
    1574:	e51b303c 	ldr	r3, [r11, #-60]	; 0xffffffc4
    1578:	e1520003 	cmp	r2, r3
    157c:	1a000005 	bne	1598 <audio_transform_test+0x468>
                        fourierIndex =0;
    1580:	e3a03000 	mov	r3, #0
    1584:	e50b3024 	str	r3, [r11, #-36]	; 0xffffffdc
    1588:	ea000002 	b	1598 <audio_transform_test+0x468>
                    }
                }else{
                    count ++;
    158c:	e51b302c 	ldr	r3, [r11, #-44]	; 0xffffffd4
    1590:	e2833001 	add	r3, r3, #1
    1594:	e50b302c 	str	r3, [r11, #-44]	; 0xffffffd4
                }
              }
            
            Complex c;
            c.i = 0;
    1598:	e30e36a0 	movw	r3, #59040	; 0xe6a0
    159c:	e34f3fff 	movt	r3, #65535	; 0xffff
    15a0:	e3a02004 	mov	r2, #4
    15a4:	e24b101c 	sub	r1, r11, #28
    15a8:	e0813003 	add	r3, r1, r3
    15ac:	e0833002 	add	r3, r3, r2
    15b0:	e3a02000 	mov	r2, #0
    15b4:	e5832000 	str	r2, [r3]
            c.r = *(audio_ptr + 2);
    15b8:	e51b3034 	ldr	r3, [r11, #-52]	; 0xffffffcc
    15bc:	e5932008 	ldr	r2, [r3, #8]
    15c0:	e30e36a0 	movw	r3, #59040	; 0xe6a0
    15c4:	e34f3fff 	movt	r3, #65535	; 0xffff
    15c8:	e24bc01c 	sub	r12, r11, #28
    15cc:	e78c2003 	str	r2, [r12, r3]
            cArray[buffer_index-buffer_index_start] = c;
    15d0:	e51b2028 	ldr	r2, [r11, #-40]	; 0xffffffd8
    15d4:	e51b3020 	ldr	r3, [r11, #-32]	; 0xffffffe0
    15d8:	e0633002 	rsb	r3, r3, r2
    15dc:	e51b1058 	ldr	r1, [r11, #-88]	; 0xffffffa8
    15e0:	e30e26a0 	movw	r2, #59040	; 0xe6a0
    15e4:	e34f2fff 	movt	r2, #65535	; 0xffff
    15e8:	e1a03183 	lsl	r3, r3, #3
    15ec:	e0813003 	add	r3, r1, r3
    15f0:	e24be01c 	sub	lr, r11, #28
    15f4:	e08e2002 	add	r2, lr, r2
    15f8:	e8920003 	ldm	r2, {r0, r1}
    15fc:	e8830003 	stm	r3, {r0, r1}

            ++buffer_index;
    1600:	e51b3028 	ldr	r3, [r11, #-40]	; 0xffffffd8
    1604:	e2833001 	add	r3, r3, #1
    1608:	e50b3028 	str	r3, [r11, #-40]	; 0xffffffd8
            if (buffer_index >= 0xFFFFFF) buffer_index = 0;
    160c:	e51b2028 	ldr	r2, [r11, #-40]	; 0xffffffd8
    1610:	e30f3ffe 	movw	r3, #65534	; 0xfffe
    1614:	e34030ff 	movt	r3, #255	; 0xff
    1618:	e1520003 	cmp	r2, r3
    161c:	da000001 	ble	1628 <audio_transform_test+0x4f8>
    1620:	e3a03000 	mov	r3, #0
    1624:	e50b3028 	str	r3, [r11, #-40]	; 0xffffffd8
            VIS_HEX_SetUint_HEX(buffer_index);
    1628:	e51b3028 	ldr	r3, [r11, #-40]	; 0xffffffd8
    162c:	e1a00003 	mov	r0, r3
    1630:	ebfffc8a 	bl	860 <VIS_HEX_SetUint_HEX>
            if (VIS_Uart_RxChar(JTAG_UART_ptr) != 0) {
    1634:	e3063a30 	movw	r3, #27184	; 0x6a30
    1638:	e3403000 	movt	r3, #0
    163c:	e5933000 	ldr	r3, [r3]
    1640:	e1a00003 	mov	r0, r3
    1644:	ebfffb96 	bl	4a4 <VIS_Uart_RxChar>
    1648:	e1a03000 	mov	r3, r0
    164c:	e3530000 	cmp	r3, #0
    1650:	0affff98 	beq	14b8 <audio_transform_test+0x388>
                // reset counter
                buffer_index = 0;
    1654:	e3a03000 	mov	r3, #0
    1658:	e50b3028 	str	r3, [r11, #-40]	; 0xffffffd8
            }

            // fifospace = *(audio_ptr + 1); // read the audio port fifospace register
        }
    165c:	eaffff95 	b	14b8 <audio_transform_test+0x388>

00001660 <check_KEYs>:
    }
}
void check_KEYs(int * KEY0, int * KEY1, int * KEY2, int * counter) {
    1660:	e52db004 	push	{r11}		; (str r11, [sp, #-4]!)
    1664:	e28db000 	add	r11, sp, #0
    1668:	e24dd024 	sub	sp, sp, #36	; 0x24
    166c:	e50b0018 	str	r0, [r11, #-24]	; 0xffffffe8
    1670:	e50b101c 	str	r1, [r11, #-28]	; 0xffffffe4
    1674:	e50b2020 	str	r2, [r11, #-32]	; 0xffffffe0
    1678:	e50b3024 	str	r3, [r11, #-36]	; 0xffffffdc
    volatile int * KEY_ptr   = (int *)KEY_BASE;
    167c:	e3a03050 	mov	r3, #80	; 0x50
    1680:	e34f3f20 	movt	r3, #65312	; 0xff20
    1684:	e50b3008 	str	r3, [r11, #-8]
    volatile int * audio_ptr = (int *)AUDIO_BASE;
    1688:	e3a03dc1 	mov	r3, #12352	; 0x3040
    168c:	e34f3f20 	movt	r3, #65312	; 0xff20
    1690:	e50b300c 	str	r3, [r11, #-12]
    int            KEY_value;

    KEY_value = *(KEY_ptr); // read the pushbutton KEY values
    1694:	e51b3008 	ldr	r3, [r11, #-8]
    1698:	e5933000 	ldr	r3, [r3]
    169c:	e50b3010 	str	r3, [r11, #-16]
    while (*KEY_ptr)
    16a0:	e1a00000 	nop			; (mov r0, r0)
    16a4:	e51b3008 	ldr	r3, [r11, #-8]
    16a8:	e5933000 	ldr	r3, [r3]
    16ac:	e3530000 	cmp	r3, #0
    16b0:	1afffffb 	bne	16a4 <check_KEYs+0x44>
        ; // wait for pushbutton KEY release

    if (KEY_value == 0x1) // check KEY0
    16b4:	e51b3010 	ldr	r3, [r11, #-16]
    16b8:	e3530001 	cmp	r3, #1
    16bc:	1a00000c 	bne	16f4 <check_KEYs+0x94>
    {
        // reset counter to start recording
        *counter = 0;
    16c0:	e51b3024 	ldr	r3, [r11, #-36]	; 0xffffffdc
    16c4:	e3a02000 	mov	r2, #0
    16c8:	e5832000 	str	r2, [r3]
        // clear audio-in FIFO
        *(audio_ptr) = 0x4;
    16cc:	e51b300c 	ldr	r3, [r11, #-12]
    16d0:	e3a02004 	mov	r2, #4
    16d4:	e5832000 	str	r2, [r3]
        *(audio_ptr) = 0x0;
    16d8:	e51b300c 	ldr	r3, [r11, #-12]
    16dc:	e3a02000 	mov	r2, #0
    16e0:	e5832000 	str	r2, [r3]

        *KEY0 = 1;
    16e4:	e51b3018 	ldr	r3, [r11, #-24]	; 0xffffffe8
    16e8:	e3a02001 	mov	r2, #1
    16ec:	e5832000 	str	r2, [r3]
    16f0:	ea00001e 	b	1770 <check_KEYs+0x110>
    } else if (KEY_value == 0x2) // check KEY1
    16f4:	e51b3010 	ldr	r3, [r11, #-16]
    16f8:	e3530002 	cmp	r3, #2
    16fc:	1a00000c 	bne	1734 <check_KEYs+0xd4>
    {
        // reset counter to start playback
        *counter = 0;
    1700:	e51b3024 	ldr	r3, [r11, #-36]	; 0xffffffdc
    1704:	e3a02000 	mov	r2, #0
    1708:	e5832000 	str	r2, [r3]
        // clear audio-out FIFO
        *(audio_ptr) = 0x8;
    170c:	e51b300c 	ldr	r3, [r11, #-12]
    1710:	e3a02008 	mov	r2, #8
    1714:	e5832000 	str	r2, [r3]
        *(audio_ptr) = 0x0;
    1718:	e51b300c 	ldr	r3, [r11, #-12]
    171c:	e3a02000 	mov	r2, #0
    1720:	e5832000 	str	r2, [r3]

        *KEY1 = 1;
    1724:	e51b301c 	ldr	r3, [r11, #-28]	; 0xffffffe4
    1728:	e3a02001 	mov	r2, #1
    172c:	e5832000 	str	r2, [r3]
    1730:	ea00000e 	b	1770 <check_KEYs+0x110>
    }
    else if (KEY_value == 0x4) // check KEY2
    1734:	e51b3010 	ldr	r3, [r11, #-16]
    1738:	e3530004 	cmp	r3, #4
    173c:	1a00000b 	bne	1770 <check_KEYs+0x110>
    {
        // reset counter to start playback
        *counter = 0;
    1740:	e51b3024 	ldr	r3, [r11, #-36]	; 0xffffffdc
    1744:	e3a02000 	mov	r2, #0
    1748:	e5832000 	str	r2, [r3]
        // clear audio-out FIFO
        *(audio_ptr) = 0x8;
    174c:	e51b300c 	ldr	r3, [r11, #-12]
    1750:	e3a02008 	mov	r2, #8
    1754:	e5832000 	str	r2, [r3]
        *(audio_ptr) = 0x0;
    1758:	e51b300c 	ldr	r3, [r11, #-12]
    175c:	e3a02000 	mov	r2, #0
    1760:	e5832000 	str	r2, [r3]

        *KEY2 = 1;
    1764:	e51b3020 	ldr	r3, [r11, #-32]	; 0xffffffe0
    1768:	e3a02001 	mov	r2, #1
    176c:	e5832000 	str	r2, [r3]
    }
}
    1770:	e28bd000 	add	sp, r11, #0
    1774:	e8bd0800 	ldmfd	sp!, {r11}
    1778:	e12fff1e 	bx	lr

0000177c <VIS_VGA_Setup>:

static RingProperty ring;
static Line canvasHistory[2][MAX_LINES]; 
static int historyIndicator;

void VIS_VGA_Setup() {
    177c:	e52db004 	push	{r11}		; (str r11, [sp, #-4]!)
    1780:	e28db000 	add	r11, sp, #0
    ring.colorSeed = 0;
    1784:	e3063e98 	movw	r3, #28312	; 0x6e98
    1788:	e3403000 	movt	r3, #0
    178c:	e3a02000 	mov	r2, #0
    1790:	e5832000 	str	r2, [r3]
    ring.offsetDeg = 0;
    1794:	e3063e98 	movw	r3, #28312	; 0x6e98
    1798:	e3403000 	movt	r3, #0
    179c:	e3a02000 	mov	r2, #0
    17a0:	e5832004 	str	r2, [r3, #4]
    ring.radius = SCREEN_H / 6;
    17a4:	e3063e98 	movw	r3, #28312	; 0x6e98
    17a8:	e3403000 	movt	r3, #0
    17ac:	e3a02028 	mov	r2, #40	; 0x28
    17b0:	e5832008 	str	r2, [r3, #8]
    ring.inOffset = 50;
    17b4:	e3063e98 	movw	r3, #28312	; 0x6e98
    17b8:	e3403000 	movt	r3, #0
    17bc:	e3a02032 	mov	r2, #50	; 0x32
    17c0:	e583200c 	str	r2, [r3, #12]
    ring.loudnessThreshold = 1000;
    17c4:	e3063e98 	movw	r3, #28312	; 0x6e98
    17c8:	e3403000 	movt	r3, #0
    17cc:	e3a02ffa 	mov	r2, #1000	; 0x3e8
    17d0:	e5832018 	str	r2, [r3, #24]
    ring.cX = SCREEN_W / 2;
    17d4:	e3063e98 	movw	r3, #28312	; 0x6e98
    17d8:	e3403000 	movt	r3, #0
    17dc:	e3a020a0 	mov	r2, #160	; 0xa0
    17e0:	e5832010 	str	r2, [r3, #16]
    ring.cY = SCREEN_H / 2;
    17e4:	e3063e98 	movw	r3, #28312	; 0x6e98
    17e8:	e3403000 	movt	r3, #0
    17ec:	e3a02078 	mov	r2, #120	; 0x78
    17f0:	e5832014 	str	r2, [r3, #20]
    historyIndicator = 0;
    17f4:	e3003af4 	movw	r3, #2804	; 0xaf4
    17f8:	e3403001 	movt	r3, #1
    17fc:	e3a02000 	mov	r2, #0
    1800:	e5832000 	str	r2, [r3]
}
    1804:	e28bd000 	add	sp, r11, #0
    1808:	e8bd0800 	ldmfd	sp!, {r11}
    180c:	e12fff1e 	bx	lr

00001810 <VIS_VGA_UpdateFrame>:

void VIS_VGA_UpdateFrame(unsigned size, unsigned spect[]) {
    1810:	e92d4810 	push	{r4, r11, lr}
    1814:	e28db008 	add	r11, sp, #8
    1818:	e24dd044 	sub	sp, sp, #68	; 0x44
    181c:	e50b0040 	str	r0, [r11, #-64]	; 0xffffffc0
    1820:	e50b1044 	str	r1, [r11, #-68]	; 0xffffffbc
    while((*(pixel_ctrl_ptr + 3)) & 0x1); // wait for the previous swap
    1824:	e1a00000 	nop			; (mov r0, r0)
    1828:	e3063a38 	movw	r3, #27192	; 0x6a38
    182c:	e3403000 	movt	r3, #0
    1830:	e5933000 	ldr	r3, [r3]
    1834:	e283300c 	add	r3, r3, #12
    1838:	e5933000 	ldr	r3, [r3]
    183c:	e2033001 	and	r3, r3, #1
    1840:	e3530000 	cmp	r3, #0
    1844:	1afffff7 	bne	1828 <VIS_VGA_UpdateFrame+0x18>
    pixel_buffer_start = *(pixel_ctrl_ptr + 1); // we draw on the back buffer
    1848:	e3063a38 	movw	r3, #27192	; 0x6a38
    184c:	e3403000 	movt	r3, #0
    1850:	e5933000 	ldr	r3, [r3]
    1854:	e5932004 	ldr	r2, [r3, #4]
    1858:	e3063e94 	movw	r3, #28308	; 0x6e94
    185c:	e3403000 	movt	r3, #0
    1860:	e5832000 	str	r2, [r3]
    historyIndicator = 1 - historyIndicator;
    1864:	e3003af4 	movw	r3, #2804	; 0xaf4
    1868:	e3403001 	movt	r3, #1
    186c:	e5933000 	ldr	r3, [r3]
    1870:	e2632001 	rsb	r2, r3, #1
    1874:	e3003af4 	movw	r3, #2804	; 0xaf4
    1878:	e3403001 	movt	r3, #1
    187c:	e5832000 	str	r2, [r3]

    // find the largest number and default max is set in ring property
    unsigned maxLoudness = ring.loudnessThreshold;
    1880:	e3063e98 	movw	r3, #28312	; 0x6e98
    1884:	e3403000 	movt	r3, #0
    1888:	e5933018 	ldr	r3, [r3, #24]
    188c:	e50b3010 	str	r3, [r11, #-16]
    for (int i = 0; i < size; i++) {
    1890:	e3a03000 	mov	r3, #0
    1894:	e50b3014 	str	r3, [r11, #-20]	; 0xffffffec
    1898:	ea00000b 	b	18cc <VIS_VGA_UpdateFrame+0xbc>
        maxLoudness = maxLoudness >= spect[i] ? maxLoudness : spect[i];
    189c:	e51b3014 	ldr	r3, [r11, #-20]	; 0xffffffec
    18a0:	e1a03103 	lsl	r3, r3, #2
    18a4:	e51b2044 	ldr	r2, [r11, #-68]	; 0xffffffbc
    18a8:	e0823003 	add	r3, r2, r3
    18ac:	e5933000 	ldr	r3, [r3]
    18b0:	e51b2010 	ldr	r2, [r11, #-16]
    18b4:	e1520003 	cmp	r2, r3
    18b8:	21a03002 	movcs	r3, r2
    18bc:	e50b3010 	str	r3, [r11, #-16]
    pixel_buffer_start = *(pixel_ctrl_ptr + 1); // we draw on the back buffer
    historyIndicator = 1 - historyIndicator;

    // find the largest number and default max is set in ring property
    unsigned maxLoudness = ring.loudnessThreshold;
    for (int i = 0; i < size; i++) {
    18c0:	e51b3014 	ldr	r3, [r11, #-20]	; 0xffffffec
    18c4:	e2833001 	add	r3, r3, #1
    18c8:	e50b3014 	str	r3, [r11, #-20]	; 0xffffffec
    18cc:	e51b2014 	ldr	r2, [r11, #-20]	; 0xffffffec
    18d0:	e51b3040 	ldr	r3, [r11, #-64]	; 0xffffffc0
    18d4:	e1520003 	cmp	r2, r3
    18d8:	3affffef 	bcc	189c <VIS_VGA_UpdateFrame+0x8c>
        maxLoudness = maxLoudness >= spect[i] ? maxLoudness : spect[i];
    }

    // // draw on VGA
    // unsigned startDeg = ring.offsetDeg;
    for (int i = 0; i < size; i++) {
    18dc:	e3a03000 	mov	r3, #0
    18e0:	e50b3018 	str	r3, [r11, #-24]	; 0xffffffe8
    18e4:	ea0000fb 	b	1cd8 <VIS_VGA_UpdateFrame+0x4c8>
        unsigned color = color_from_gradient(ring.colorSeed + i * 120 / size, 1);
    18e8:	e3063e98 	movw	r3, #28312	; 0x6e98
    18ec:	e3403000 	movt	r3, #0
    18f0:	e5933000 	ldr	r3, [r3]
    18f4:	e1a04003 	mov	r4, r3
    18f8:	e51b2018 	ldr	r2, [r11, #-24]	; 0xffffffe8
    18fc:	e1a03002 	mov	r3, r2
    1900:	e1a03203 	lsl	r3, r3, #4
    1904:	e0623003 	rsb	r3, r2, r3
    1908:	e1a03183 	lsl	r3, r3, #3
    190c:	e1a00003 	mov	r0, r3
    1910:	e51b1040 	ldr	r1, [r11, #-64]	; 0xffffffc0
    1914:	eb0006d4 	bl	346c <__aeabi_uidiv>
    1918:	e1a03000 	mov	r3, r0
    191c:	e0843003 	add	r3, r4, r3
    1920:	e1a00003 	mov	r0, r3
    1924:	e3a01001 	mov	r1, #1
    1928:	eb00015e 	bl	1ea8 <color_from_gradient>
    192c:	e1a03000 	mov	r3, r0
    1930:	e50b301c 	str	r3, [r11, #-28]	; 0xffffffe4
        unsigned degree = i * 360 / size + (ring.offsetDeg >> 4);
    1934:	e51b3018 	ldr	r3, [r11, #-24]	; 0xffffffe8
    1938:	e3a02f5a 	mov	r2, #360	; 0x168
    193c:	e0030392 	mul	r3, r2, r3
    1940:	e1a00003 	mov	r0, r3
    1944:	e51b1040 	ldr	r1, [r11, #-64]	; 0xffffffc0
    1948:	eb0006c7 	bl	346c <__aeabi_uidiv>
    194c:	e1a03000 	mov	r3, r0
    1950:	e1a02003 	mov	r2, r3
    1954:	e3063e98 	movw	r3, #28312	; 0x6e98
    1958:	e3403000 	movt	r3, #0
    195c:	e5933004 	ldr	r3, [r3, #4]
    1960:	e1a03243 	asr	r3, r3, #4
    1964:	e0823003 	add	r3, r2, r3
    1968:	e50b3020 	str	r3, [r11, #-32]	; 0xffffffe0
        int maxLength = (SCREEN_W / 2 - ring.radius);
    196c:	e3063e98 	movw	r3, #28312	; 0x6e98
    1970:	e3403000 	movt	r3, #0
    1974:	e5933008 	ldr	r3, [r3, #8]
    1978:	e26330a0 	rsb	r3, r3, #160	; 0xa0
    197c:	e50b3024 	str	r3, [r11, #-36]	; 0xffffffdc

        // // calculate start point
        int innerR = ring.radius - ((ring.inOffset * maxLength * spect[i] / maxLoudness) >> 10);
    1980:	e3063e98 	movw	r3, #28312	; 0x6e98
    1984:	e3403000 	movt	r3, #0
    1988:	e5933008 	ldr	r3, [r3, #8]
    198c:	e1a04003 	mov	r4, r3
    1990:	e3063e98 	movw	r3, #28312	; 0x6e98
    1994:	e3403000 	movt	r3, #0
    1998:	e593300c 	ldr	r3, [r3, #12]
    199c:	e51b2024 	ldr	r2, [r11, #-36]	; 0xffffffdc
    19a0:	e0030392 	mul	r3, r2, r3
    19a4:	e51b2018 	ldr	r2, [r11, #-24]	; 0xffffffe8
    19a8:	e1a02102 	lsl	r2, r2, #2
    19ac:	e51b1044 	ldr	r1, [r11, #-68]	; 0xffffffbc
    19b0:	e0812002 	add	r2, r1, r2
    19b4:	e5922000 	ldr	r2, [r2]
    19b8:	e0030392 	mul	r3, r2, r3
    19bc:	e1a00003 	mov	r0, r3
    19c0:	e51b1010 	ldr	r1, [r11, #-16]
    19c4:	eb0006a8 	bl	346c <__aeabi_uidiv>
    19c8:	e1a03000 	mov	r3, r0
    19cc:	e1a03523 	lsr	r3, r3, #10
    19d0:	e0633004 	rsb	r3, r3, r4
    19d4:	e50b3028 	str	r3, [r11, #-40]	; 0xffffffd8
        unsigned iX = ring.cX + ((innerR * VIS_FastSin_d16(degree)) >> 16);
    19d8:	e3063e98 	movw	r3, #28312	; 0x6e98
    19dc:	e3403000 	movt	r3, #0
    19e0:	e5934010 	ldr	r4, [r3, #16]
    19e4:	e51b3020 	ldr	r3, [r11, #-32]	; 0xffffffe0
    19e8:	e1a00003 	mov	r0, r3
    19ec:	eb0002f7 	bl	25d0 <VIS_FastSin_d16>
    19f0:	e1a03000 	mov	r3, r0
    19f4:	e51b2028 	ldr	r2, [r11, #-40]	; 0xffffffd8
    19f8:	e0030392 	mul	r3, r2, r3
    19fc:	e1a03843 	asr	r3, r3, #16
    1a00:	e0843003 	add	r3, r4, r3
    1a04:	e50b302c 	str	r3, [r11, #-44]	; 0xffffffd4
        unsigned iY = ring.cY - ((innerR * VIS_FastCos_d16(degree)) >> 16);
    1a08:	e3063e98 	movw	r3, #28312	; 0x6e98
    1a0c:	e3403000 	movt	r3, #0
    1a10:	e5934014 	ldr	r4, [r3, #20]
    1a14:	e51b3020 	ldr	r3, [r11, #-32]	; 0xffffffe0
    1a18:	e1a00003 	mov	r0, r3
    1a1c:	eb00031e 	bl	269c <VIS_FastCos_d16>
    1a20:	e1a03000 	mov	r3, r0
    1a24:	e51b2028 	ldr	r2, [r11, #-40]	; 0xffffffd8
    1a28:	e0030392 	mul	r3, r2, r3
    1a2c:	e1a03843 	asr	r3, r3, #16
    1a30:	e0633004 	rsb	r3, r3, r4
    1a34:	e50b3030 	str	r3, [r11, #-48]	; 0xffffffd0

        // // calculate color end point
        int outerR = ring.radius + (((1024 - ring.inOffset) * maxLength * spect[i] / maxLoudness) >> 10); 
    1a38:	e3063e98 	movw	r3, #28312	; 0x6e98
    1a3c:	e3403000 	movt	r3, #0
    1a40:	e5933008 	ldr	r3, [r3, #8]
    1a44:	e1a04003 	mov	r4, r3
    1a48:	e3063e98 	movw	r3, #28312	; 0x6e98
    1a4c:	e3403000 	movt	r3, #0
    1a50:	e593300c 	ldr	r3, [r3, #12]
    1a54:	e2633b01 	rsb	r3, r3, #1024	; 0x400
    1a58:	e51b2024 	ldr	r2, [r11, #-36]	; 0xffffffdc
    1a5c:	e0030392 	mul	r3, r2, r3
    1a60:	e51b2018 	ldr	r2, [r11, #-24]	; 0xffffffe8
    1a64:	e1a02102 	lsl	r2, r2, #2
    1a68:	e51b1044 	ldr	r1, [r11, #-68]	; 0xffffffbc
    1a6c:	e0812002 	add	r2, r1, r2
    1a70:	e5922000 	ldr	r2, [r2]
    1a74:	e0030392 	mul	r3, r2, r3
    1a78:	e1a00003 	mov	r0, r3
    1a7c:	e51b1010 	ldr	r1, [r11, #-16]
    1a80:	eb000679 	bl	346c <__aeabi_uidiv>
    1a84:	e1a03000 	mov	r3, r0
    1a88:	e1a03523 	lsr	r3, r3, #10
    1a8c:	e0843003 	add	r3, r4, r3
    1a90:	e50b3034 	str	r3, [r11, #-52]	; 0xffffffcc
        unsigned oX = ring.cX + ((outerR * VIS_FastSin_d16(degree)) >> 16);
    1a94:	e3063e98 	movw	r3, #28312	; 0x6e98
    1a98:	e3403000 	movt	r3, #0
    1a9c:	e5934010 	ldr	r4, [r3, #16]
    1aa0:	e51b3020 	ldr	r3, [r11, #-32]	; 0xffffffe0
    1aa4:	e1a00003 	mov	r0, r3
    1aa8:	eb0002c8 	bl	25d0 <VIS_FastSin_d16>
    1aac:	e1a03000 	mov	r3, r0
    1ab0:	e51b2034 	ldr	r2, [r11, #-52]	; 0xffffffcc
    1ab4:	e0030392 	mul	r3, r2, r3
    1ab8:	e1a03843 	asr	r3, r3, #16
    1abc:	e0843003 	add	r3, r4, r3
    1ac0:	e50b3038 	str	r3, [r11, #-56]	; 0xffffffc8
        unsigned oY = ring.cY - ((outerR * VIS_FastCos_d16(degree)) >> 16);
    1ac4:	e3063e98 	movw	r3, #28312	; 0x6e98
    1ac8:	e3403000 	movt	r3, #0
    1acc:	e5934014 	ldr	r4, [r3, #20]
    1ad0:	e51b3020 	ldr	r3, [r11, #-32]	; 0xffffffe0
    1ad4:	e1a00003 	mov	r0, r3
    1ad8:	eb0002ef 	bl	269c <VIS_FastCos_d16>
    1adc:	e1a03000 	mov	r3, r0
    1ae0:	e51b2034 	ldr	r2, [r11, #-52]	; 0xffffffcc
    1ae4:	e0030392 	mul	r3, r2, r3
    1ae8:	e1a03843 	asr	r3, r3, #16
    1aec:	e0633004 	rsb	r3, r3, r4
    1af0:	e50b303c 	str	r3, [r11, #-60]	; 0xffffffc4

        // update history
        draw_lineStruct(canvasHistory[historyIndicator][i]);
    1af4:	e3003af4 	movw	r3, #2804	; 0xaf4
    1af8:	e3403001 	movt	r3, #1
    1afc:	e5930000 	ldr	r0, [r3]
    1b00:	e3062eb4 	movw	r2, #28340	; 0x6eb4
    1b04:	e3402000 	movt	r2, #0
    1b08:	e51b1018 	ldr	r1, [r11, #-24]	; 0xffffffe8
    1b0c:	e1a03001 	mov	r3, r1
    1b10:	e1a03103 	lsl	r3, r3, #2
    1b14:	e0833001 	add	r3, r3, r1
    1b18:	e1a03103 	lsl	r3, r3, #2
    1b1c:	e3041e20 	movw	r1, #20000	; 0x4e20
    1b20:	e0010091 	mul	r1, r1, r0
    1b24:	e0833001 	add	r3, r3, r1
    1b28:	e0823003 	add	r3, r2, r3
    1b2c:	e5932010 	ldr	r2, [r3, #16]
    1b30:	e58d2000 	str	r2, [sp]
    1b34:	e893000f 	ldm	r3, {r0, r1, r2, r3}
    1b38:	eb00014a 	bl	2068 <draw_lineStruct>
        canvasHistory[historyIndicator][i] = (Line){iX, iY, oX, oY, 0};
    1b3c:	e3003af4 	movw	r3, #2804	; 0xaf4
    1b40:	e3403001 	movt	r3, #1
    1b44:	e5932000 	ldr	r2, [r3]
    1b48:	e3061eb4 	movw	r1, #28340	; 0x6eb4
    1b4c:	e3401000 	movt	r1, #0
    1b50:	e51b0018 	ldr	r0, [r11, #-24]	; 0xffffffe8
    1b54:	e1a03000 	mov	r3, r0
    1b58:	e1a03103 	lsl	r3, r3, #2
    1b5c:	e0833000 	add	r3, r3, r0
    1b60:	e1a03103 	lsl	r3, r3, #2
    1b64:	e3040e20 	movw	r0, #20000	; 0x4e20
    1b68:	e0000290 	mul	r0, r0, r2
    1b6c:	e0833000 	add	r3, r3, r0
    1b70:	e0813003 	add	r3, r1, r3
    1b74:	e51b102c 	ldr	r1, [r11, #-44]	; 0xffffffd4
    1b78:	e5831000 	str	r1, [r3]
    1b7c:	e3061eb4 	movw	r1, #28340	; 0x6eb4
    1b80:	e3401000 	movt	r1, #0
    1b84:	e51b0018 	ldr	r0, [r11, #-24]	; 0xffffffe8
    1b88:	e3a0c004 	mov	r12, #4
    1b8c:	e1a03000 	mov	r3, r0
    1b90:	e1a03103 	lsl	r3, r3, #2
    1b94:	e0833000 	add	r3, r3, r0
    1b98:	e1a03103 	lsl	r3, r3, #2
    1b9c:	e3040e20 	movw	r0, #20000	; 0x4e20
    1ba0:	e0000290 	mul	r0, r0, r2
    1ba4:	e0833000 	add	r3, r3, r0
    1ba8:	e0813003 	add	r3, r1, r3
    1bac:	e083300c 	add	r3, r3, r12
    1bb0:	e51b1030 	ldr	r1, [r11, #-48]	; 0xffffffd0
    1bb4:	e5831000 	str	r1, [r3]
    1bb8:	e3061eb4 	movw	r1, #28340	; 0x6eb4
    1bbc:	e3401000 	movt	r1, #0
    1bc0:	e51b0018 	ldr	r0, [r11, #-24]	; 0xffffffe8
    1bc4:	e3a0c008 	mov	r12, #8
    1bc8:	e1a03000 	mov	r3, r0
    1bcc:	e1a03103 	lsl	r3, r3, #2
    1bd0:	e0833000 	add	r3, r3, r0
    1bd4:	e1a03103 	lsl	r3, r3, #2
    1bd8:	e3040e20 	movw	r0, #20000	; 0x4e20
    1bdc:	e0000290 	mul	r0, r0, r2
    1be0:	e0833000 	add	r3, r3, r0
    1be4:	e0813003 	add	r3, r1, r3
    1be8:	e083300c 	add	r3, r3, r12
    1bec:	e51b1038 	ldr	r1, [r11, #-56]	; 0xffffffc8
    1bf0:	e5831000 	str	r1, [r3]
    1bf4:	e3061eb4 	movw	r1, #28340	; 0x6eb4
    1bf8:	e3401000 	movt	r1, #0
    1bfc:	e51b0018 	ldr	r0, [r11, #-24]	; 0xffffffe8
    1c00:	e3a0c00c 	mov	r12, #12
    1c04:	e1a03000 	mov	r3, r0
    1c08:	e1a03103 	lsl	r3, r3, #2
    1c0c:	e0833000 	add	r3, r3, r0
    1c10:	e1a03103 	lsl	r3, r3, #2
    1c14:	e3040e20 	movw	r0, #20000	; 0x4e20
    1c18:	e0000290 	mul	r0, r0, r2
    1c1c:	e0833000 	add	r3, r3, r0
    1c20:	e0813003 	add	r3, r1, r3
    1c24:	e083300c 	add	r3, r3, r12
    1c28:	e51b103c 	ldr	r1, [r11, #-60]	; 0xffffffc4
    1c2c:	e5831000 	str	r1, [r3]
    1c30:	e3061eb4 	movw	r1, #28340	; 0x6eb4
    1c34:	e3401000 	movt	r1, #0
    1c38:	e51b0018 	ldr	r0, [r11, #-24]	; 0xffffffe8
    1c3c:	e3a0c010 	mov	r12, #16
    1c40:	e1a03000 	mov	r3, r0
    1c44:	e1a03103 	lsl	r3, r3, #2
    1c48:	e0833000 	add	r3, r3, r0
    1c4c:	e1a03103 	lsl	r3, r3, #2
    1c50:	e3040e20 	movw	r0, #20000	; 0x4e20
    1c54:	e0020290 	mul	r2, r0, r2
    1c58:	e0833002 	add	r3, r3, r2
    1c5c:	e0813003 	add	r3, r1, r3
    1c60:	e083300c 	add	r3, r3, r12
    1c64:	e3a02000 	mov	r2, #0
    1c68:	e5832000 	str	r2, [r3]

        draw_line(iX, iY, oX, oY, color);
    1c6c:	e51b002c 	ldr	r0, [r11, #-44]	; 0xffffffd4
    1c70:	e51b1030 	ldr	r1, [r11, #-48]	; 0xffffffd0
    1c74:	e51b2038 	ldr	r2, [r11, #-56]	; 0xffffffc8
    1c78:	e51b303c 	ldr	r3, [r11, #-60]	; 0xffffffc4
    1c7c:	e51bc01c 	ldr	r12, [r11, #-28]	; 0xffffffe4
    1c80:	e58dc000 	str	r12, [sp]
    1c84:	eb00010b 	bl	20b8 <draw_line>

        // update ring properties
        // ring.colorSeed = (ring.colorSeed + 1) & 1F;
        ring.offsetDeg = (ring.offsetDeg + 1) % (360 << 4);
    1c88:	e3063e98 	movw	r3, #28312	; 0x6e98
    1c8c:	e3403000 	movt	r3, #0
    1c90:	e5933004 	ldr	r3, [r3, #4]
    1c94:	e2833001 	add	r3, r3, #1
    1c98:	e30620b7 	movw	r2, #24759	; 0x60b7
    1c9c:	e34b260b 	movt	r2, #46603	; 0xb60b
    1ca0:	e0c21392 	smull	r1, r2, r2, r3
    1ca4:	e0822003 	add	r2, r2, r3
    1ca8:	e1a01642 	asr	r1, r2, #12
    1cac:	e1a02fc3 	asr	r2, r3, #31
    1cb0:	e0622001 	rsb	r2, r2, r1
    1cb4:	e3a01d5a 	mov	r1, #5760	; 0x1680
    1cb8:	e0020291 	mul	r2, r1, r2
    1cbc:	e0622003 	rsb	r2, r2, r3
    1cc0:	e3063e98 	movw	r3, #28312	; 0x6e98
    1cc4:	e3403000 	movt	r3, #0
    1cc8:	e5832004 	str	r2, [r3, #4]
        maxLoudness = maxLoudness >= spect[i] ? maxLoudness : spect[i];
    }

    // // draw on VGA
    // unsigned startDeg = ring.offsetDeg;
    for (int i = 0; i < size; i++) {
    1ccc:	e51b3018 	ldr	r3, [r11, #-24]	; 0xffffffe8
    1cd0:	e2833001 	add	r3, r3, #1
    1cd4:	e50b3018 	str	r3, [r11, #-24]	; 0xffffffe8
    1cd8:	e51b2018 	ldr	r2, [r11, #-24]	; 0xffffffe8
    1cdc:	e51b3040 	ldr	r3, [r11, #-64]	; 0xffffffc0
    1ce0:	e1520003 	cmp	r2, r3
    1ce4:	3afffeff 	bcc	18e8 <VIS_VGA_UpdateFrame+0xd8>
        ring.offsetDeg = (ring.offsetDeg + 1) % (360 << 4);
    }


    // swap front and back buffers on VGA vertical sync
    *pixel_ctrl_ptr = 0x1;
    1ce8:	e3063a38 	movw	r3, #27192	; 0x6a38
    1cec:	e3403000 	movt	r3, #0
    1cf0:	e5933000 	ldr	r3, [r3]
    1cf4:	e3a02001 	mov	r2, #1
    1cf8:	e5832000 	str	r2, [r3]
}
    1cfc:	e24bd008 	sub	sp, r11, #8
    1d00:	e8bd8810 	pop	{r4, r11, pc}

00001d04 <VIS_VGA_ColorTest>:

void VIS_VGA_ColorTest() {
    1d04:	e92d4800 	push	{r11, lr}
    1d08:	e28db004 	add	r11, sp, #4
    1d0c:	e24dd010 	sub	sp, sp, #16
    
    while((*(pixel_ctrl_ptr + 3)) & 0x1); // wait for the previous swap
    1d10:	e1a00000 	nop			; (mov r0, r0)
    1d14:	e3063a38 	movw	r3, #27192	; 0x6a38
    1d18:	e3403000 	movt	r3, #0
    1d1c:	e5933000 	ldr	r3, [r3]
    1d20:	e283300c 	add	r3, r3, #12
    1d24:	e5933000 	ldr	r3, [r3]
    1d28:	e2033001 	and	r3, r3, #1
    1d2c:	e3530000 	cmp	r3, #0
    1d30:	1afffff7 	bne	1d14 <VIS_VGA_ColorTest+0x10>
    pixel_buffer_start = *(pixel_ctrl_ptr + 1); // we draw on the back buffer
    1d34:	e3063a38 	movw	r3, #27192	; 0x6a38
    1d38:	e3403000 	movt	r3, #0
    1d3c:	e5933000 	ldr	r3, [r3]
    1d40:	e5932004 	ldr	r2, [r3, #4]
    1d44:	e3063e94 	movw	r3, #28308	; 0x6e94
    1d48:	e3403000 	movt	r3, #0
    1d4c:	e5832000 	str	r2, [r3]
    
    clear_screen();
    1d50:	eb000181 	bl	235c <clear_screen>
    for (int i = 0; i < SCREEN_H; i++) {
    1d54:	e3a03000 	mov	r3, #0
    1d58:	e50b3008 	str	r3, [r11, #-8]
    1d5c:	ea00000c 	b	1d94 <VIS_VGA_ColorTest+0x90>
        draw_line(0, i, SCREEN_W - 1, i, color_from_gradient(i , 1));
    1d60:	e51b0008 	ldr	r0, [r11, #-8]
    1d64:	e3a01001 	mov	r1, #1
    1d68:	eb00004e 	bl	1ea8 <color_from_gradient>
    1d6c:	e1a03000 	mov	r3, r0
    1d70:	e58d3000 	str	r3, [sp]
    1d74:	e3a00000 	mov	r0, #0
    1d78:	e51b1008 	ldr	r1, [r11, #-8]
    1d7c:	e300213f 	movw	r2, #319	; 0x13f
    1d80:	e51b3008 	ldr	r3, [r11, #-8]
    1d84:	eb0000cb 	bl	20b8 <draw_line>
    
    while((*(pixel_ctrl_ptr + 3)) & 0x1); // wait for the previous swap
    pixel_buffer_start = *(pixel_ctrl_ptr + 1); // we draw on the back buffer
    
    clear_screen();
    for (int i = 0; i < SCREEN_H; i++) {
    1d88:	e51b3008 	ldr	r3, [r11, #-8]
    1d8c:	e2833001 	add	r3, r3, #1
    1d90:	e50b3008 	str	r3, [r11, #-8]
    1d94:	e51b3008 	ldr	r3, [r11, #-8]
    1d98:	e35300ef 	cmp	r3, #239	; 0xef
    1d9c:	daffffef 	ble	1d60 <VIS_VGA_ColorTest+0x5c>
        draw_line(0, i, SCREEN_W - 1, i, color_from_gradient(i , 1));
    }

    // swap front and back buffers on VGA vertical sync
    *pixel_ctrl_ptr = 0x1;
    1da0:	e3063a38 	movw	r3, #27192	; 0x6a38
    1da4:	e3403000 	movt	r3, #0
    1da8:	e5933000 	ldr	r3, [r3]
    1dac:	e3a02001 	mov	r2, #1
    1db0:	e5832000 	str	r2, [r3]
}
    1db4:	e24bd004 	sub	sp, r11, #4
    1db8:	e8bd8800 	pop	{r11, pc}

00001dbc <VIS_VGA_SetBuffer>:

void VIS_VGA_SetBuffer(unsigned frontAddress, unsigned backAddress) {
    1dbc:	e92d4800 	push	{r11, lr}
    1dc0:	e28db004 	add	r11, sp, #4
    1dc4:	e24dd008 	sub	sp, sp, #8
    1dc8:	e50b0008 	str	r0, [r11, #-8]
    1dcc:	e50b100c 	str	r1, [r11, #-12]
    *(pixel_ctrl_ptr + 1) = frontAddress;
    1dd0:	e3063a38 	movw	r3, #27192	; 0x6a38
    1dd4:	e3403000 	movt	r3, #0
    1dd8:	e5933000 	ldr	r3, [r3]
    1ddc:	e2833004 	add	r3, r3, #4
    1de0:	e51b2008 	ldr	r2, [r11, #-8]
    1de4:	e5832000 	str	r2, [r3]
    pixel_buffer_start = *(pixel_ctrl_ptr + 1); // we draw on the back buffer
    1de8:	e3063a38 	movw	r3, #27192	; 0x6a38
    1dec:	e3403000 	movt	r3, #0
    1df0:	e5933000 	ldr	r3, [r3]
    1df4:	e5932004 	ldr	r2, [r3, #4]
    1df8:	e3063e94 	movw	r3, #28308	; 0x6e94
    1dfc:	e3403000 	movt	r3, #0
    1e00:	e5832000 	str	r2, [r3]
    clear_screen();
    1e04:	eb000154 	bl	235c <clear_screen>
    wait_for_vsync();
    1e08:	eb000071 	bl	1fd4 <wait_for_vsync>
    
    /* set front pixel buffer to start of FPGA On-chip memory */
    *(pixel_ctrl_ptr + 1) = backAddress;
    1e0c:	e3063a38 	movw	r3, #27192	; 0x6a38
    1e10:	e3403000 	movt	r3, #0
    1e14:	e5933000 	ldr	r3, [r3]
    1e18:	e2833004 	add	r3, r3, #4
    1e1c:	e51b200c 	ldr	r2, [r11, #-12]
    1e20:	e5832000 	str	r2, [r3]
    pixel_buffer_start = *(pixel_ctrl_ptr + 1); // we draw on the front buffer
    1e24:	e3063a38 	movw	r3, #27192	; 0x6a38
    1e28:	e3403000 	movt	r3, #0
    1e2c:	e5933000 	ldr	r3, [r3]
    1e30:	e5932004 	ldr	r2, [r3, #4]
    1e34:	e3063e94 	movw	r3, #28308	; 0x6e94
    1e38:	e3403000 	movt	r3, #0
    1e3c:	e5832000 	str	r2, [r3]
    clear_screen();
    1e40:	eb000145 	bl	235c <clear_screen>
    wait_for_vsync();
    1e44:	eb000062 	bl	1fd4 <wait_for_vsync>

    VIS_VGA_Setup();
    1e48:	ebfffe4b 	bl	177c <VIS_VGA_Setup>
}
    1e4c:	e24bd004 	sub	sp, r11, #4
    1e50:	e8bd8800 	pop	{r11, pc}

00001e54 <color_from_RGB888>:

int color_from_RGB888(int r, int g, int b) {
    1e54:	e52db004 	push	{r11}		; (str r11, [sp, #-4]!)
    1e58:	e28db000 	add	r11, sp, #0
    1e5c:	e24dd014 	sub	sp, sp, #20
    1e60:	e50b0008 	str	r0, [r11, #-8]
    1e64:	e50b100c 	str	r1, [r11, #-12]
    1e68:	e50b2010 	str	r2, [r11, #-16]
    return (r >> 3 << 11 ) | (g >> 2 << 5 ) | (b >> 3 & 0x1F);
    1e6c:	e51b3008 	ldr	r3, [r11, #-8]
    1e70:	e1a031c3 	asr	r3, r3, #3
    1e74:	e1a02583 	lsl	r2, r3, #11
    1e78:	e51b300c 	ldr	r3, [r11, #-12]
    1e7c:	e1a03143 	asr	r3, r3, #2
    1e80:	e1a03283 	lsl	r3, r3, #5
    1e84:	e1822003 	orr	r2, r2, r3
    1e88:	e51b3010 	ldr	r3, [r11, #-16]
    1e8c:	e1a031c3 	asr	r3, r3, #3
    1e90:	e203301f 	and	r3, r3, #31
    1e94:	e1823003 	orr	r3, r2, r3
}
    1e98:	e1a00003 	mov	r0, r3
    1e9c:	e28bd000 	add	sp, r11, #0
    1ea0:	e8bd0800 	ldmfd	sp!, {r11}
    1ea4:	e12fff1e 	bx	lr

00001ea8 <color_from_gradient>:

int color_from_gradient(int seed, int freq) {
    1ea8:	e92d4800 	push	{r11, lr}
    1eac:	e28db004 	add	r11, sp, #4
    1eb0:	e24dd018 	sub	sp, sp, #24
    1eb4:	e50b0018 	str	r0, [r11, #-24]	; 0xffffffe8
    1eb8:	e50b101c 	str	r1, [r11, #-28]	; 0xffffffe4
    int r = ((127 * VIS_FastSin_r16((freq << 16) * seed / 30 + (0 << 16))) >> 16) + 128;
    1ebc:	e51b301c 	ldr	r3, [r11, #-28]	; 0xffffffe4
    1ec0:	e1a03803 	lsl	r3, r3, #16
    1ec4:	e51b2018 	ldr	r2, [r11, #-24]	; 0xffffffe8
    1ec8:	e0030392 	mul	r3, r2, r3
    1ecc:	e3082889 	movw	r2, #34953	; 0x8889
    1ed0:	e3482888 	movt	r2, #34952	; 0x8888
    1ed4:	e0c21392 	smull	r1, r2, r2, r3
    1ed8:	e0822003 	add	r2, r2, r3
    1edc:	e1a02242 	asr	r2, r2, #4
    1ee0:	e1a03fc3 	asr	r3, r3, #31
    1ee4:	e0633002 	rsb	r3, r3, r2
    1ee8:	e1a00003 	mov	r0, r3
    1eec:	eb0001cf 	bl	2630 <VIS_FastSin_r16>
    1ef0:	e1a02000 	mov	r2, r0
    1ef4:	e1a03002 	mov	r3, r2
    1ef8:	e1a03383 	lsl	r3, r3, #7
    1efc:	e0623003 	rsb	r3, r2, r3
    1f00:	e1a03843 	asr	r3, r3, #16
    1f04:	e2833080 	add	r3, r3, #128	; 0x80
    1f08:	e50b3008 	str	r3, [r11, #-8]
    int g = ((127 * VIS_FastSin_r16((freq << 16) * seed / 30 + (1 << 16))) >> 16) + 128;
    1f0c:	e51b301c 	ldr	r3, [r11, #-28]	; 0xffffffe4
    1f10:	e1a03803 	lsl	r3, r3, #16
    1f14:	e51b2018 	ldr	r2, [r11, #-24]	; 0xffffffe8
    1f18:	e0030392 	mul	r3, r2, r3
    1f1c:	e3082889 	movw	r2, #34953	; 0x8889
    1f20:	e3482888 	movt	r2, #34952	; 0x8888
    1f24:	e0c21392 	smull	r1, r2, r2, r3
    1f28:	e0822003 	add	r2, r2, r3
    1f2c:	e1a02242 	asr	r2, r2, #4
    1f30:	e1a03fc3 	asr	r3, r3, #31
    1f34:	e0633002 	rsb	r3, r3, r2
    1f38:	e2833801 	add	r3, r3, #65536	; 0x10000
    1f3c:	e1a00003 	mov	r0, r3
    1f40:	eb0001ba 	bl	2630 <VIS_FastSin_r16>
    1f44:	e1a02000 	mov	r2, r0
    1f48:	e1a03002 	mov	r3, r2
    1f4c:	e1a03383 	lsl	r3, r3, #7
    1f50:	e0623003 	rsb	r3, r2, r3
    1f54:	e1a03843 	asr	r3, r3, #16
    1f58:	e2833080 	add	r3, r3, #128	; 0x80
    1f5c:	e50b300c 	str	r3, [r11, #-12]
    int b = ((127 * VIS_FastSin_r16((freq << 16) * seed / 30 + (2 << 16))) >> 16) + 128;
    1f60:	e51b301c 	ldr	r3, [r11, #-28]	; 0xffffffe4
    1f64:	e1a03803 	lsl	r3, r3, #16
    1f68:	e51b2018 	ldr	r2, [r11, #-24]	; 0xffffffe8
    1f6c:	e0030392 	mul	r3, r2, r3
    1f70:	e3082889 	movw	r2, #34953	; 0x8889
    1f74:	e3482888 	movt	r2, #34952	; 0x8888
    1f78:	e0c21392 	smull	r1, r2, r2, r3
    1f7c:	e0822003 	add	r2, r2, r3
    1f80:	e1a02242 	asr	r2, r2, #4
    1f84:	e1a03fc3 	asr	r3, r3, #31
    1f88:	e0633002 	rsb	r3, r3, r2
    1f8c:	e2833802 	add	r3, r3, #131072	; 0x20000
    1f90:	e1a00003 	mov	r0, r3
    1f94:	eb0001a5 	bl	2630 <VIS_FastSin_r16>
    1f98:	e1a02000 	mov	r2, r0
    1f9c:	e1a03002 	mov	r3, r2
    1fa0:	e1a03383 	lsl	r3, r3, #7
    1fa4:	e0623003 	rsb	r3, r2, r3
    1fa8:	e1a03843 	asr	r3, r3, #16
    1fac:	e2833080 	add	r3, r3, #128	; 0x80
    1fb0:	e50b3010 	str	r3, [r11, #-16]
    return color_from_RGB888(r, g, b);
    1fb4:	e51b0008 	ldr	r0, [r11, #-8]
    1fb8:	e51b100c 	ldr	r1, [r11, #-12]
    1fbc:	e51b2010 	ldr	r2, [r11, #-16]
    1fc0:	ebffffa3 	bl	1e54 <color_from_RGB888>
    1fc4:	e1a03000 	mov	r3, r0
}
    1fc8:	e1a00003 	mov	r0, r3
    1fcc:	e24bd004 	sub	sp, r11, #4
    1fd0:	e8bd8800 	pop	{r11, pc}

00001fd4 <wait_for_vsync>:

void wait_for_vsync() {
    1fd4:	e52db004 	push	{r11}		; (str r11, [sp, #-4]!)
    1fd8:	e28db000 	add	r11, sp, #0
    *pixel_ctrl_ptr = 0x1;
    1fdc:	e3063a38 	movw	r3, #27192	; 0x6a38
    1fe0:	e3403000 	movt	r3, #0
    1fe4:	e5933000 	ldr	r3, [r3]
    1fe8:	e3a02001 	mov	r2, #1
    1fec:	e5832000 	str	r2, [r3]
    while((*(pixel_ctrl_ptr + 3)) & 0x1); // wait for the previous swap
    1ff0:	e1a00000 	nop			; (mov r0, r0)
    1ff4:	e3063a38 	movw	r3, #27192	; 0x6a38
    1ff8:	e3403000 	movt	r3, #0
    1ffc:	e5933000 	ldr	r3, [r3]
    2000:	e283300c 	add	r3, r3, #12
    2004:	e5933000 	ldr	r3, [r3]
    2008:	e2033001 	and	r3, r3, #1
    200c:	e3530000 	cmp	r3, #0
    2010:	1afffff7 	bne	1ff4 <wait_for_vsync+0x20>
}
    2014:	e28bd000 	add	sp, r11, #0
    2018:	e8bd0800 	ldmfd	sp!, {r11}
    201c:	e12fff1e 	bx	lr

00002020 <swap>:

void swap(int *a, int *b)
{
    2020:	e52db004 	push	{r11}		; (str r11, [sp, #-4]!)
    2024:	e28db000 	add	r11, sp, #0
    2028:	e24dd014 	sub	sp, sp, #20
    202c:	e50b0010 	str	r0, [r11, #-16]
    2030:	e50b1014 	str	r1, [r11, #-20]	; 0xffffffec
    int t = *a;
    2034:	e51b3010 	ldr	r3, [r11, #-16]
    2038:	e5933000 	ldr	r3, [r3]
    203c:	e50b3008 	str	r3, [r11, #-8]
    *a = *b;
    2040:	e51b3014 	ldr	r3, [r11, #-20]	; 0xffffffec
    2044:	e5932000 	ldr	r2, [r3]
    2048:	e51b3010 	ldr	r3, [r11, #-16]
    204c:	e5832000 	str	r2, [r3]
    *b = t;
    2050:	e51b3014 	ldr	r3, [r11, #-20]	; 0xffffffec
    2054:	e51b2008 	ldr	r2, [r11, #-8]
    2058:	e5832000 	str	r2, [r3]
}
    205c:	e28bd000 	add	sp, r11, #0
    2060:	e8bd0800 	ldmfd	sp!, {r11}
    2064:	e12fff1e 	bx	lr

00002068 <draw_lineStruct>:

void draw_lineStruct(Line line) {
    2068:	e24dd010 	sub	sp, sp, #16
    206c:	e92d4800 	push	{r11, lr}
    2070:	e28db004 	add	r11, sp, #4
    2074:	e24dd008 	sub	sp, sp, #8
    2078:	e28bc004 	add	r12, r11, #4
    207c:	e88c000f 	stm	r12, {r0, r1, r2, r3}
    draw_line(line.iX, line.iY, line.oX, line.oY, line.color);
    2080:	e59b3004 	ldr	r3, [r11, #4]
    2084:	e1a00003 	mov	r0, r3
    2088:	e59b3008 	ldr	r3, [r11, #8]
    208c:	e1a01003 	mov	r1, r3
    2090:	e59b300c 	ldr	r3, [r11, #12]
    2094:	e1a02003 	mov	r2, r3
    2098:	e59b3010 	ldr	r3, [r11, #16]
    209c:	e59bc014 	ldr	r12, [r11, #20]
    20a0:	e58dc000 	str	r12, [sp]
    20a4:	eb000003 	bl	20b8 <draw_line>
}
    20a8:	e24bd004 	sub	sp, r11, #4
    20ac:	e8bd4800 	pop	{r11, lr}
    20b0:	e28dd010 	add	sp, sp, #16
    20b4:	e12fff1e 	bx	lr

000020b8 <draw_line>:

void draw_line(int p1_x, int p1_y, int p2_x, int p2_y, int color)
{
    20b8:	e92d4800 	push	{r11, lr}
    20bc:	e28db004 	add	r11, sp, #4
    20c0:	e24dd030 	sub	sp, sp, #48	; 0x30
    20c4:	e50b0028 	str	r0, [r11, #-40]	; 0xffffffd8
    20c8:	e50b102c 	str	r1, [r11, #-44]	; 0xffffffd4
    20cc:	e50b2030 	str	r2, [r11, #-48]	; 0xffffffd0
    20d0:	e50b3034 	str	r3, [r11, #-52]	; 0xffffffcc
    // check if it is a point or a line
    if (p2_y == p1_y && p1_x == p1_y) {
    20d4:	e51b2034 	ldr	r2, [r11, #-52]	; 0xffffffcc
    20d8:	e51b302c 	ldr	r3, [r11, #-44]	; 0xffffffd4
    20dc:	e1520003 	cmp	r2, r3
    20e0:	1a00000b 	bne	2114 <draw_line+0x5c>
    20e4:	e51b2028 	ldr	r2, [r11, #-40]	; 0xffffffd8
    20e8:	e51b302c 	ldr	r3, [r11, #-44]	; 0xffffffd4
    20ec:	e1520003 	cmp	r2, r3
    20f0:	1a000007 	bne	2114 <draw_line+0x5c>
        plot_pixel(p1_x, p2_y, color);
    20f4:	e51b1028 	ldr	r1, [r11, #-40]	; 0xffffffd8
    20f8:	e51b2034 	ldr	r2, [r11, #-52]	; 0xffffffcc
    20fc:	e59b3004 	ldr	r3, [r11, #4]
    2100:	e6ff3073 	uxth	r3, r3
    2104:	e1a00001 	mov	r0, r1
    2108:	e1a01002 	mov	r1, r2
    210c:	e1a02003 	mov	r2, r3
    2110:	eb0000a7 	bl	23b4 <plot_pixel>
    }

    bool is_steep = abs(p1_y - p2_y) > abs(p1_x - p2_x);
    2114:	e51b202c 	ldr	r2, [r11, #-44]	; 0xffffffd4
    2118:	e51b3034 	ldr	r3, [r11, #-52]	; 0xffffffcc
    211c:	e0633002 	rsb	r3, r3, r2
    2120:	e0232fc3 	eor	r2, r3, r3, asr #31
    2124:	e0422fc3 	sub	r2, r2, r3, asr #31
    2128:	e51b1028 	ldr	r1, [r11, #-40]	; 0xffffffd8
    212c:	e51b3030 	ldr	r3, [r11, #-48]	; 0xffffffd0
    2130:	e0633001 	rsb	r3, r3, r1
    2134:	e3530000 	cmp	r3, #0
    2138:	b2633000 	rsblt	r3, r3, #0
    213c:	e1520003 	cmp	r2, r3
    2140:	d3a03000 	movle	r3, #0
    2144:	c3a03001 	movgt	r3, #1
    2148:	e54b3011 	strb	r3, [r11, #-17]	; 0xffffffef
    if (is_steep)
    214c:	e55b3011 	ldrb	r3, [r11, #-17]	; 0xffffffef
    2150:	e3530000 	cmp	r3, #0
    2154:	0a000009 	beq	2180 <draw_line+0xc8>
    {
        swap(&p1_x, &p1_y);
    2158:	e24b2028 	sub	r2, r11, #40	; 0x28
    215c:	e24b302c 	sub	r3, r11, #44	; 0x2c
    2160:	e1a00002 	mov	r0, r2
    2164:	e1a01003 	mov	r1, r3
    2168:	ebffffac 	bl	2020 <swap>
        swap(&p2_x, &p2_y);
    216c:	e24b2030 	sub	r2, r11, #48	; 0x30
    2170:	e24b3034 	sub	r3, r11, #52	; 0x34
    2174:	e1a00002 	mov	r0, r2
    2178:	e1a01003 	mov	r1, r3
    217c:	ebffffa7 	bl	2020 <swap>
    }
    if (p1_x > p2_x)
    2180:	e51b2028 	ldr	r2, [r11, #-40]	; 0xffffffd8
    2184:	e51b3030 	ldr	r3, [r11, #-48]	; 0xffffffd0
    2188:	e1520003 	cmp	r2, r3
    218c:	da000009 	ble	21b8 <draw_line+0x100>
    {
        swap(&p1_x, &p2_x);
    2190:	e24b2028 	sub	r2, r11, #40	; 0x28
    2194:	e24b3030 	sub	r3, r11, #48	; 0x30
    2198:	e1a00002 	mov	r0, r2
    219c:	e1a01003 	mov	r1, r3
    21a0:	ebffff9e 	bl	2020 <swap>
        swap(&p1_y, &p2_y);
    21a4:	e24b202c 	sub	r2, r11, #44	; 0x2c
    21a8:	e24b3034 	sub	r3, r11, #52	; 0x34
    21ac:	e1a00002 	mov	r0, r2
    21b0:	e1a01003 	mov	r1, r3
    21b4:	ebffff99 	bl	2020 <swap>
    }

    int deltaX = p2_x - p1_x,
    21b8:	e51b2030 	ldr	r2, [r11, #-48]	; 0xffffffd0
    21bc:	e51b3028 	ldr	r3, [r11, #-40]	; 0xffffffd8
    21c0:	e0633002 	rsb	r3, r3, r2
    21c4:	e50b3018 	str	r3, [r11, #-24]	; 0xffffffe8
        deltaY = abs(p2_y - p1_y),
    21c8:	e51b2034 	ldr	r2, [r11, #-52]	; 0xffffffcc
    21cc:	e51b302c 	ldr	r3, [r11, #-44]	; 0xffffffd4
    21d0:	e0633002 	rsb	r3, r3, r2
    21d4:	e3530000 	cmp	r3, #0
    21d8:	b2633000 	rsblt	r3, r3, #0
    21dc:	e50b301c 	str	r3, [r11, #-28]	; 0xffffffe4
        error = -(deltaX / 2),
    21e0:	e51b3018 	ldr	r3, [r11, #-24]	; 0xffffffe8
    21e4:	e1a02fa3 	lsr	r2, r3, #31
    21e8:	e0823003 	add	r3, r2, r3
    21ec:	e1a030c3 	asr	r3, r3, #1
    21f0:	e2633000 	rsb	r3, r3, #0
    21f4:	e50b3008 	str	r3, [r11, #-8]
        yStep = deltaY ? deltaY / (p2_y - p1_y) : 0;
    21f8:	e51b301c 	ldr	r3, [r11, #-28]	; 0xffffffe4
    21fc:	e3530000 	cmp	r3, #0
    2200:	0a000007 	beq	2224 <draw_line+0x16c>
    2204:	e51b2034 	ldr	r2, [r11, #-52]	; 0xffffffcc
    2208:	e51b302c 	ldr	r3, [r11, #-44]	; 0xffffffd4
    220c:	e0633002 	rsb	r3, r3, r2
    2210:	e51b001c 	ldr	r0, [r11, #-28]	; 0xffffffe4
    2214:	e1a01003 	mov	r1, r3
    2218:	eb0004d8 	bl	3580 <__aeabi_idiv>
    221c:	e1a03000 	mov	r3, r0
    2220:	ea000000 	b	2228 <draw_line+0x170>
    2224:	e3a03000 	mov	r3, #0
    2228:	e50b3020 	str	r3, [r11, #-32]	; 0xffffffe0
    
    for (int x = p1_x, y = p1_y; x <= p2_x; x++) {
    222c:	e51b3028 	ldr	r3, [r11, #-40]	; 0xffffffd8
    2230:	e50b300c 	str	r3, [r11, #-12]
    2234:	e51b302c 	ldr	r3, [r11, #-44]	; 0xffffffd4
    2238:	e50b3010 	str	r3, [r11, #-16]
    223c:	ea000021 	b	22c8 <draw_line+0x210>
        if (is_steep) {
    2240:	e55b3011 	ldrb	r3, [r11, #-17]	; 0xffffffef
    2244:	e3530000 	cmp	r3, #0
    2248:	0a000006 	beq	2268 <draw_line+0x1b0>
            plot_pixel(y, x, color);
    224c:	e59b3004 	ldr	r3, [r11, #4]
    2250:	e6ff3073 	uxth	r3, r3
    2254:	e51b0010 	ldr	r0, [r11, #-16]
    2258:	e51b100c 	ldr	r1, [r11, #-12]
    225c:	e1a02003 	mov	r2, r3
    2260:	eb000053 	bl	23b4 <plot_pixel>
    2264:	ea000005 	b	2280 <draw_line+0x1c8>
        } else {
            plot_pixel(x, y, color);
    2268:	e59b3004 	ldr	r3, [r11, #4]
    226c:	e6ff3073 	uxth	r3, r3
    2270:	e51b000c 	ldr	r0, [r11, #-12]
    2274:	e51b1010 	ldr	r1, [r11, #-16]
    2278:	e1a02003 	mov	r2, r3
    227c:	eb00004c 	bl	23b4 <plot_pixel>
        }

        error += deltaY;
    2280:	e51b2008 	ldr	r2, [r11, #-8]
    2284:	e51b301c 	ldr	r3, [r11, #-28]	; 0xffffffe4
    2288:	e0823003 	add	r3, r2, r3
    228c:	e50b3008 	str	r3, [r11, #-8]
        if (error >= 0) {
    2290:	e51b3008 	ldr	r3, [r11, #-8]
    2294:	e3530000 	cmp	r3, #0
    2298:	ba000007 	blt	22bc <draw_line+0x204>
            y += yStep;
    229c:	e51b2010 	ldr	r2, [r11, #-16]
    22a0:	e51b3020 	ldr	r3, [r11, #-32]	; 0xffffffe0
    22a4:	e0823003 	add	r3, r2, r3
    22a8:	e50b3010 	str	r3, [r11, #-16]
            error -= deltaX;
    22ac:	e51b2008 	ldr	r2, [r11, #-8]
    22b0:	e51b3018 	ldr	r3, [r11, #-24]	; 0xffffffe8
    22b4:	e0633002 	rsb	r3, r3, r2
    22b8:	e50b3008 	str	r3, [r11, #-8]
    int deltaX = p2_x - p1_x,
        deltaY = abs(p2_y - p1_y),
        error = -(deltaX / 2),
        yStep = deltaY ? deltaY / (p2_y - p1_y) : 0;
    
    for (int x = p1_x, y = p1_y; x <= p2_x; x++) {
    22bc:	e51b300c 	ldr	r3, [r11, #-12]
    22c0:	e2833001 	add	r3, r3, #1
    22c4:	e50b300c 	str	r3, [r11, #-12]
    22c8:	e51b3030 	ldr	r3, [r11, #-48]	; 0xffffffd0
    22cc:	e51b200c 	ldr	r2, [r11, #-12]
    22d0:	e1520003 	cmp	r2, r3
    22d4:	daffffd9 	ble	2240 <draw_line+0x188>
        if (error >= 0) {
            y += yStep;
            error -= deltaX;
        }
    }
}
    22d8:	e24bd004 	sub	sp, r11, #4
    22dc:	e8bd8800 	pop	{r11, pc}

000022e0 <draw_box>:
void draw_box(int px, int py, int w, int h, int color) {
    22e0:	e92d4800 	push	{r11, lr}
    22e4:	e28db004 	add	r11, sp, #4
    22e8:	e24dd020 	sub	sp, sp, #32
    22ec:	e50b0010 	str	r0, [r11, #-16]
    22f0:	e50b1014 	str	r1, [r11, #-20]	; 0xffffffec
    22f4:	e50b2018 	str	r2, [r11, #-24]	; 0xffffffe8
    22f8:	e50b301c 	str	r3, [r11, #-28]	; 0xffffffe4
    for (int x = px; x < px + w; x++) {
    22fc:	e51b3010 	ldr	r3, [r11, #-16]
    2300:	e50b3008 	str	r3, [r11, #-8]
    2304:	ea00000c 	b	233c <draw_box+0x5c>
        draw_line(x, py, x, py + h - 1, color);
    2308:	e51b2014 	ldr	r2, [r11, #-20]	; 0xffffffec
    230c:	e51b301c 	ldr	r3, [r11, #-28]	; 0xffffffe4
    2310:	e0823003 	add	r3, r2, r3
    2314:	e2433001 	sub	r3, r3, #1
    2318:	e59b2004 	ldr	r2, [r11, #4]
    231c:	e58d2000 	str	r2, [sp]
    2320:	e51b0008 	ldr	r0, [r11, #-8]
    2324:	e51b1014 	ldr	r1, [r11, #-20]	; 0xffffffec
    2328:	e51b2008 	ldr	r2, [r11, #-8]
    232c:	ebffff61 	bl	20b8 <draw_line>
            error -= deltaX;
        }
    }
}
void draw_box(int px, int py, int w, int h, int color) {
    for (int x = px; x < px + w; x++) {
    2330:	e51b3008 	ldr	r3, [r11, #-8]
    2334:	e2833001 	add	r3, r3, #1
    2338:	e50b3008 	str	r3, [r11, #-8]
    233c:	e51b2010 	ldr	r2, [r11, #-16]
    2340:	e51b3018 	ldr	r3, [r11, #-24]	; 0xffffffe8
    2344:	e0822003 	add	r2, r2, r3
    2348:	e51b3008 	ldr	r3, [r11, #-8]
    234c:	e1520003 	cmp	r2, r3
    2350:	caffffec 	bgt	2308 <draw_box+0x28>
        draw_line(x, py, x, py + h - 1, color);
    }
}
    2354:	e24bd004 	sub	sp, r11, #4
    2358:	e8bd8800 	pop	{r11, pc}

0000235c <clear_screen>:

void clear_screen() {
    235c:	e92d4800 	push	{r11, lr}
    2360:	e28db004 	add	r11, sp, #4
    2364:	e24dd010 	sub	sp, sp, #16
    for (int x = 0; x <= 319; x++) {
    2368:	e3a03000 	mov	r3, #0
    236c:	e50b3008 	str	r3, [r11, #-8]
    2370:	ea000009 	b	239c <clear_screen+0x40>
        draw_line(x, 0, x, 239, 0);
    2374:	e3a03000 	mov	r3, #0
    2378:	e58d3000 	str	r3, [sp]
    237c:	e51b0008 	ldr	r0, [r11, #-8]
    2380:	e3a01000 	mov	r1, #0
    2384:	e51b2008 	ldr	r2, [r11, #-8]
    2388:	e3a030ef 	mov	r3, #239	; 0xef
    238c:	ebffff49 	bl	20b8 <draw_line>
        draw_line(x, py, x, py + h - 1, color);
    }
}

void clear_screen() {
    for (int x = 0; x <= 319; x++) {
    2390:	e51b3008 	ldr	r3, [r11, #-8]
    2394:	e2833001 	add	r3, r3, #1
    2398:	e50b3008 	str	r3, [r11, #-8]
    239c:	e51b2008 	ldr	r2, [r11, #-8]
    23a0:	e300313f 	movw	r3, #319	; 0x13f
    23a4:	e1520003 	cmp	r2, r3
    23a8:	dafffff1 	ble	2374 <clear_screen+0x18>
        draw_line(x, 0, x, 239, 0);
    }
}
    23ac:	e24bd004 	sub	sp, r11, #4
    23b0:	e8bd8800 	pop	{r11, pc}

000023b4 <plot_pixel>:

void plot_pixel(int x, int y, unsigned short int line_color)
{
    23b4:	e52db004 	push	{r11}		; (str r11, [sp, #-4]!)
    23b8:	e28db000 	add	r11, sp, #0
    23bc:	e24dd014 	sub	sp, sp, #20
    23c0:	e50b0008 	str	r0, [r11, #-8]
    23c4:	e50b100c 	str	r1, [r11, #-12]
    23c8:	e1a03002 	mov	r3, r2
    23cc:	e14b30be 	strh	r3, [r11, #-14]
    if (x < 0 || x >= SCREEN_W || y < 0 || y >= SCREEN_H) return; 
    23d0:	e51b3008 	ldr	r3, [r11, #-8]
    23d4:	e3530000 	cmp	r3, #0
    23d8:	ba000016 	blt	2438 <plot_pixel+0x84>
    23dc:	e51b2008 	ldr	r2, [r11, #-8]
    23e0:	e300313f 	movw	r3, #319	; 0x13f
    23e4:	e1520003 	cmp	r2, r3
    23e8:	ca000012 	bgt	2438 <plot_pixel+0x84>
    23ec:	e51b300c 	ldr	r3, [r11, #-12]
    23f0:	e3530000 	cmp	r3, #0
    23f4:	ba00000f 	blt	2438 <plot_pixel+0x84>
    23f8:	e51b300c 	ldr	r3, [r11, #-12]
    23fc:	e35300ef 	cmp	r3, #239	; 0xef
    2400:	ca00000c 	bgt	2438 <plot_pixel+0x84>
    if (line_color > 0xFFFF) line_color = 0xFFFF;
    *(unsigned short int *)(pixel_buffer_start + (y << 10) + (x << 1)) = line_color;
    2404:	e51b300c 	ldr	r3, [r11, #-12]
    2408:	e1a03503 	lsl	r3, r3, #10
    240c:	e1a02003 	mov	r2, r3
    2410:	e3063e94 	movw	r3, #28308	; 0x6e94
    2414:	e3403000 	movt	r3, #0
    2418:	e5933000 	ldr	r3, [r3]
    241c:	e0822003 	add	r2, r2, r3
    2420:	e51b3008 	ldr	r3, [r11, #-8]
    2424:	e1a03083 	lsl	r3, r3, #1
    2428:	e0823003 	add	r3, r2, r3
    242c:	e15b20be 	ldrh	r2, [r11, #-14]
    2430:	e1c320b0 	strh	r2, [r3]
    2434:	ea000000 	b	243c <plot_pixel+0x88>
    }
}

void plot_pixel(int x, int y, unsigned short int line_color)
{
    if (x < 0 || x >= SCREEN_W || y < 0 || y >= SCREEN_H) return; 
    2438:	e1a00000 	nop			; (mov r0, r0)
    if (line_color > 0xFFFF) line_color = 0xFFFF;
    *(unsigned short int *)(pixel_buffer_start + (y << 10) + (x << 1)) = line_color;
}
    243c:	e28bd000 	add	sp, r11, #0
    2440:	e8bd0800 	ldmfd	sp!, {r11}
    2444:	e12fff1e 	bx	lr

00002448 <VIS_FastSin_r>:
	[330] = 56755, 57319, 57864, 58393, 58903, 59395, 59870, 60326, 60763, 61183, 
	[340] = 61583, 61965, 62328, 62672, 62997, 63302, 63589, 63856, 64103, 64331, 
	[350] = 64540, 64729, 64898, 65047, 65176, 65286, 65376, 65446, 65496, 65526
};

double VIS_FastSin_r(double rad) {
    2448:	e92d4800 	push	{r11, lr}
    244c:	e28db004 	add	r11, sp, #4
    2450:	e24dd008 	sub	sp, sp, #8
    2454:	e14b00fc 	strd	r0, [r11, #-12]
    return VIS_FastSin_d(rad * VIS_R2D);
    2458:	e14b00dc 	ldrd	r0, [r11, #-12]
    245c:	e30c21f8 	movw	r2, #49656	; 0xc1f8
    2460:	e3412a63 	movt	r2, #6755	; 0x1a63
    2464:	e30a35dc 	movw	r3, #42460	; 0xa5dc
    2468:	e344304c 	movt	r3, #16460	; 0x404c
    246c:	eb00059d 	bl	3ae8 <__aeabi_dmul>
    2470:	e1a02000 	mov	r2, r0
    2474:	e1a03001 	mov	r3, r1
    2478:	e1a00002 	mov	r0, r2
    247c:	e1a01003 	mov	r1, r3
    2480:	eb000005 	bl	249c <VIS_FastSin_d>
    2484:	e1a02000 	mov	r2, r0
    2488:	e1a03001 	mov	r3, r1
}
    248c:	e1a00002 	mov	r0, r2
    2490:	e1a01003 	mov	r1, r3
    2494:	e24bd004 	sub	sp, r11, #4
    2498:	e8bd8800 	pop	{r11, pc}

0000249c <VIS_FastSin_d>:

double VIS_FastSin_d(double deg) {
    249c:	e92d4800 	push	{r11, lr}
    24a0:	e28db004 	add	r11, sp, #4
    24a4:	e24dd010 	sub	sp, sp, #16
    24a8:	e14b01f4 	strd	r0, [r11, #-20]	; 0xffffffec
    int degree = ((int) deg) % 360;
    24ac:	e14b01d4 	ldrd	r0, [r11, #-20]	; 0xffffffec
    24b0:	eb000704 	bl	40c8 <__aeabi_d2iz>
    24b4:	e1a03000 	mov	r3, r0
    24b8:	e30620b7 	movw	r2, #24759	; 0x60b7
    24bc:	e34b260b 	movt	r2, #46603	; 0xb60b
    24c0:	e0c21392 	smull	r1, r2, r2, r3
    24c4:	e0822003 	add	r2, r2, r3
    24c8:	e1a01442 	asr	r1, r2, #8
    24cc:	e1a02fc3 	asr	r2, r3, #31
    24d0:	e0622001 	rsb	r2, r2, r1
    24d4:	e3a01f5a 	mov	r1, #360	; 0x168
    24d8:	e0020291 	mul	r2, r1, r2
    24dc:	e0623003 	rsb	r3, r2, r3
    24e0:	e50b3008 	str	r3, [r11, #-8]
    return SINs[degree];
    24e4:	e30532f8 	movw	r3, #21240	; 0x52f8
    24e8:	e3403000 	movt	r3, #0
    24ec:	e51b2008 	ldr	r2, [r11, #-8]
    24f0:	e1a02182 	lsl	r2, r2, #3
    24f4:	e0833002 	add	r3, r3, r2
    24f8:	e1c320d0 	ldrd	r2, [r3]
    // return sin(deg * VIS_D2R);
}
    24fc:	e1a00002 	mov	r0, r2
    2500:	e1a01003 	mov	r1, r3
    2504:	e24bd004 	sub	sp, r11, #4
    2508:	e8bd8800 	pop	{r11, pc}

0000250c <VIS_FastCos_r>:

double VIS_FastCos_r(double rad) {
    250c:	e92d4800 	push	{r11, lr}
    2510:	e28db004 	add	r11, sp, #4
    2514:	e24dd008 	sub	sp, sp, #8
    2518:	e14b00fc 	strd	r0, [r11, #-12]
    return VIS_FastCos_d(rad * VIS_R2D);
    251c:	e14b00dc 	ldrd	r0, [r11, #-12]
    2520:	e30c21f8 	movw	r2, #49656	; 0xc1f8
    2524:	e3412a63 	movt	r2, #6755	; 0x1a63
    2528:	e30a35dc 	movw	r3, #42460	; 0xa5dc
    252c:	e344304c 	movt	r3, #16460	; 0x404c
    2530:	eb00056c 	bl	3ae8 <__aeabi_dmul>
    2534:	e1a02000 	mov	r2, r0
    2538:	e1a03001 	mov	r3, r1
    253c:	e1a00002 	mov	r0, r2
    2540:	e1a01003 	mov	r1, r3
    2544:	eb000005 	bl	2560 <VIS_FastCos_d>
    2548:	e1a02000 	mov	r2, r0
    254c:	e1a03001 	mov	r3, r1
}
    2550:	e1a00002 	mov	r0, r2
    2554:	e1a01003 	mov	r1, r3
    2558:	e24bd004 	sub	sp, r11, #4
    255c:	e8bd8800 	pop	{r11, pc}

00002560 <VIS_FastCos_d>:

double VIS_FastCos_d(double deg) {
    2560:	e92d4800 	push	{r11, lr}
    2564:	e28db004 	add	r11, sp, #4
    2568:	e24dd010 	sub	sp, sp, #16
    256c:	e14b01f4 	strd	r0, [r11, #-20]	; 0xffffffec
    int degree = ((int) deg) % 360;
    2570:	e14b01d4 	ldrd	r0, [r11, #-20]	; 0xffffffec
    2574:	eb0006d3 	bl	40c8 <__aeabi_d2iz>
    2578:	e1a03000 	mov	r3, r0
    257c:	e30620b7 	movw	r2, #24759	; 0x60b7
    2580:	e34b260b 	movt	r2, #46603	; 0xb60b
    2584:	e0c21392 	smull	r1, r2, r2, r3
    2588:	e0822003 	add	r2, r2, r3
    258c:	e1a01442 	asr	r1, r2, #8
    2590:	e1a02fc3 	asr	r2, r3, #31
    2594:	e0622001 	rsb	r2, r2, r1
    2598:	e3a01f5a 	mov	r1, #360	; 0x168
    259c:	e0020291 	mul	r2, r1, r2
    25a0:	e0623003 	rsb	r3, r2, r3
    25a4:	e50b3008 	str	r3, [r11, #-8]
    return COSs[degree];
    25a8:	e30437b8 	movw	r3, #18360	; 0x47b8
    25ac:	e3403000 	movt	r3, #0
    25b0:	e51b2008 	ldr	r2, [r11, #-8]
    25b4:	e1a02182 	lsl	r2, r2, #3
    25b8:	e0833002 	add	r3, r3, r2
    25bc:	e1c320d0 	ldrd	r2, [r3]
    // return cos(deg * VIS_D2R);
}
    25c0:	e1a00002 	mov	r0, r2
    25c4:	e1a01003 	mov	r1, r3
    25c8:	e24bd004 	sub	sp, r11, #4
    25cc:	e8bd8800 	pop	{r11, pc}

000025d0 <VIS_FastSin_d16>:

int VIS_FastSin_d16(int deg) {
    25d0:	e52db004 	push	{r11}		; (str r11, [sp, #-4]!)
    25d4:	e28db000 	add	r11, sp, #0
    25d8:	e24dd014 	sub	sp, sp, #20
    25dc:	e50b0010 	str	r0, [r11, #-16]
    int degree = deg % 360;
    25e0:	e51b3010 	ldr	r3, [r11, #-16]
    25e4:	e30620b7 	movw	r2, #24759	; 0x60b7
    25e8:	e34b260b 	movt	r2, #46603	; 0xb60b
    25ec:	e0c21392 	smull	r1, r2, r2, r3
    25f0:	e0822003 	add	r2, r2, r3
    25f4:	e1a01442 	asr	r1, r2, #8
    25f8:	e1a02fc3 	asr	r2, r3, #31
    25fc:	e0622001 	rsb	r2, r2, r1
    2600:	e3a01f5a 	mov	r1, #360	; 0x168
    2604:	e0020291 	mul	r2, r1, r2
    2608:	e0623003 	rsb	r3, r2, r3
    260c:	e50b3008 	str	r3, [r11, #-8]
    return SIN_large[degree];
    2610:	e3053e38 	movw	r3, #24120	; 0x5e38
    2614:	e3403000 	movt	r3, #0
    2618:	e51b2008 	ldr	r2, [r11, #-8]
    261c:	e7933102 	ldr	r3, [r3, r2, lsl #2]
}
    2620:	e1a00003 	mov	r0, r3
    2624:	e28bd000 	add	sp, r11, #0
    2628:	e8bd0800 	ldmfd	sp!, {r11}
    262c:	e12fff1e 	bx	lr

00002630 <VIS_FastSin_r16>:

int VIS_FastSin_r16(int rad) {
    2630:	e52db004 	push	{r11}		; (str r11, [sp, #-4]!)
    2634:	e28db000 	add	r11, sp, #0
    2638:	e24dd014 	sub	sp, sp, #20
    263c:	e50b0010 	str	r0, [r11, #-16]
	int degree = ((rad * VIS_R2D_16) >> 24) % 360;
    2640:	e51b3010 	ldr	r3, [r11, #-16]
    2644:	e303294c 	movw	r2, #14668	; 0x394c
    2648:	e0030392 	mul	r3, r2, r3
    264c:	e1a03c43 	asr	r3, r3, #24
    2650:	e30620b7 	movw	r2, #24759	; 0x60b7
    2654:	e34b260b 	movt	r2, #46603	; 0xb60b
    2658:	e0c21392 	smull	r1, r2, r2, r3
    265c:	e0822003 	add	r2, r2, r3
    2660:	e1a01442 	asr	r1, r2, #8
    2664:	e1a02fc3 	asr	r2, r3, #31
    2668:	e0622001 	rsb	r2, r2, r1
    266c:	e3a01f5a 	mov	r1, #360	; 0x168
    2670:	e0020291 	mul	r2, r1, r2
    2674:	e0623003 	rsb	r3, r2, r3
    2678:	e50b3008 	str	r3, [r11, #-8]
	return SIN_large[degree];
    267c:	e3053e38 	movw	r3, #24120	; 0x5e38
    2680:	e3403000 	movt	r3, #0
    2684:	e51b2008 	ldr	r2, [r11, #-8]
    2688:	e7933102 	ldr	r3, [r3, r2, lsl #2]
}
    268c:	e1a00003 	mov	r0, r3
    2690:	e28bd000 	add	sp, r11, #0
    2694:	e8bd0800 	ldmfd	sp!, {r11}
    2698:	e12fff1e 	bx	lr

0000269c <VIS_FastCos_d16>:

int VIS_FastCos_d16(int deg) {
    269c:	e52db004 	push	{r11}		; (str r11, [sp, #-4]!)
    26a0:	e28db000 	add	r11, sp, #0
    26a4:	e24dd014 	sub	sp, sp, #20
    26a8:	e50b0010 	str	r0, [r11, #-16]
    int degree = deg % 360;
    26ac:	e51b3010 	ldr	r3, [r11, #-16]
    26b0:	e30620b7 	movw	r2, #24759	; 0x60b7
    26b4:	e34b260b 	movt	r2, #46603	; 0xb60b
    26b8:	e0c21392 	smull	r1, r2, r2, r3
    26bc:	e0822003 	add	r2, r2, r3
    26c0:	e1a01442 	asr	r1, r2, #8
    26c4:	e1a02fc3 	asr	r2, r3, #31
    26c8:	e0622001 	rsb	r2, r2, r1
    26cc:	e3a01f5a 	mov	r1, #360	; 0x168
    26d0:	e0020291 	mul	r2, r1, r2
    26d4:	e0623003 	rsb	r3, r2, r3
    26d8:	e50b3008 	str	r3, [r11, #-8]
    return COS_large[degree];
    26dc:	e30633d8 	movw	r3, #25560	; 0x63d8
    26e0:	e3403000 	movt	r3, #0
    26e4:	e51b2008 	ldr	r2, [r11, #-8]
    26e8:	e7933102 	ldr	r3, [r3, r2, lsl #2]
}
    26ec:	e1a00003 	mov	r0, r3
    26f0:	e28bd000 	add	sp, r11, #0
    26f4:	e8bd0800 	ldmfd	sp!, {r11}
    26f8:	e12fff1e 	bx	lr

000026fc <VIS_FastCos_r16>:

int VIS_FastCos_r16(int rad) {
    26fc:	e52db004 	push	{r11}		; (str r11, [sp, #-4]!)
    2700:	e28db000 	add	r11, sp, #0
    2704:	e24dd014 	sub	sp, sp, #20
    2708:	e50b0010 	str	r0, [r11, #-16]
	int degree = ((rad * VIS_R2D_16) >> 16) % 360;
    270c:	e51b3010 	ldr	r3, [r11, #-16]
    2710:	e303294c 	movw	r2, #14668	; 0x394c
    2714:	e0030392 	mul	r3, r2, r3
    2718:	e1a03843 	asr	r3, r3, #16
    271c:	e30620b7 	movw	r2, #24759	; 0x60b7
    2720:	e34b260b 	movt	r2, #46603	; 0xb60b
    2724:	e0c21392 	smull	r1, r2, r2, r3
    2728:	e0822003 	add	r2, r2, r3
    272c:	e1a01442 	asr	r1, r2, #8
    2730:	e1a02fc3 	asr	r2, r3, #31
    2734:	e0622001 	rsb	r2, r2, r1
    2738:	e3a01f5a 	mov	r1, #360	; 0x168
    273c:	e0020291 	mul	r2, r1, r2
    2740:	e0623003 	rsb	r3, r2, r3
    2744:	e50b3008 	str	r3, [r11, #-8]
	return COS_large[degree];
    2748:	e30633d8 	movw	r3, #25560	; 0x63d8
    274c:	e3403000 	movt	r3, #0
    2750:	e51b2008 	ldr	r2, [r11, #-8]
    2754:	e7933102 	ldr	r3, [r3, r2, lsl #2]
    2758:	e1a00003 	mov	r0, r3
    275c:	e28bd000 	add	sp, r11, #0
    2760:	e8bd0800 	ldmfd	sp!, {r11}
    2764:	e12fff1e 	bx	lr

00002768 <setReal>:
#include "FFT.h"
#include <math.h>

//note: in this file, all the double value are shifted to the left by 16 bits

 void setReal ( Complex *c,  int x )  {  c->r = x ;  }
    2768:	e52db004 	push	{r11}		; (str r11, [sp, #-4]!)
    276c:	e28db000 	add	r11, sp, #0
    2770:	e24dd00c 	sub	sp, sp, #12
    2774:	e50b0008 	str	r0, [r11, #-8]
    2778:	e50b100c 	str	r1, [r11, #-12]
    277c:	e51b3008 	ldr	r3, [r11, #-8]
    2780:	e51b200c 	ldr	r2, [r11, #-12]
    2784:	e5832000 	str	r2, [r3]
    2788:	e28bd000 	add	sp, r11, #0
    278c:	e8bd0800 	ldmfd	sp!, {r11}
    2790:	e12fff1e 	bx	lr

00002794 <getReal>:
 int getReal ( Complex c )  {  return c.r ;  }
    2794:	e52db004 	push	{r11}		; (str r11, [sp, #-4]!)
    2798:	e28db000 	add	r11, sp, #0
    279c:	e24dd00c 	sub	sp, sp, #12
    27a0:	e24b300c 	sub	r3, r11, #12
    27a4:	e8830003 	stm	r3, {r0, r1}
    27a8:	e51b300c 	ldr	r3, [r11, #-12]
    27ac:	e1a00003 	mov	r0, r3
    27b0:	e28bd000 	add	sp, r11, #0
    27b4:	e8bd0800 	ldmfd	sp!, {r11}
    27b8:	e12fff1e 	bx	lr

000027bc <add>:
 Complex add (Complex c,  Complex rhs )   {
    27bc:	e24dd008 	sub	sp, sp, #8
    27c0:	e52db004 	push	{r11}		; (str r11, [sp, #-4]!)
    27c4:	e28db000 	add	r11, sp, #0
    27c8:	e24dd01c 	sub	sp, sp, #28
    27cc:	e50b0010 	str	r0, [r11, #-16]
    27d0:	e24b0018 	sub	r0, r11, #24
    27d4:	e8800006 	stm	r0, {r1, r2}
    27d8:	e58b3008 	str	r3, [r11, #8]
    Complex newC;
    newC.i += c.i;
    27dc:	e51b2008 	ldr	r2, [r11, #-8]
    27e0:	e51b3014 	ldr	r3, [r11, #-20]	; 0xffffffec
    27e4:	e0823003 	add	r3, r2, r3
    27e8:	e50b3008 	str	r3, [r11, #-8]
    newC.r += c.r;
    27ec:	e51b200c 	ldr	r2, [r11, #-12]
    27f0:	e51b3018 	ldr	r3, [r11, #-24]	; 0xffffffe8
    27f4:	e0823003 	add	r3, r2, r3
    27f8:	e50b300c 	str	r3, [r11, #-12]
    return newC ;
    27fc:	e51b3010 	ldr	r3, [r11, #-16]
    2800:	e24b200c 	sub	r2, r11, #12
    2804:	e8920003 	ldm	r2, {r0, r1}
    2808:	e8830003 	stm	r3, {r0, r1}
}
    280c:	e51b0010 	ldr	r0, [r11, #-16]
    2810:	e28bd000 	add	sp, r11, #0
    2814:	e8bd0800 	ldmfd	sp!, {r11}
    2818:	e28dd008 	add	sp, sp, #8
    281c:	e12fff1e 	bx	lr

00002820 <sub>:
  Complex sub (Complex c,  Complex rhs )   {
    2820:	e24dd008 	sub	sp, sp, #8
    2824:	e52db004 	push	{r11}		; (str r11, [sp, #-4]!)
    2828:	e28db000 	add	r11, sp, #0
    282c:	e24dd01c 	sub	sp, sp, #28
    2830:	e50b0010 	str	r0, [r11, #-16]
    2834:	e24b0018 	sub	r0, r11, #24
    2838:	e8800006 	stm	r0, {r1, r2}
    283c:	e58b3008 	str	r3, [r11, #8]
   Complex newC;
    newC.i -= c.i;
    2840:	e51b2008 	ldr	r2, [r11, #-8]
    2844:	e51b3014 	ldr	r3, [r11, #-20]	; 0xffffffec
    2848:	e0633002 	rsb	r3, r3, r2
    284c:	e50b3008 	str	r3, [r11, #-8]
    newC.r -= c.r;
    2850:	e51b200c 	ldr	r2, [r11, #-12]
    2854:	e51b3018 	ldr	r3, [r11, #-24]	; 0xffffffe8
    2858:	e0633002 	rsb	r3, r3, r2
    285c:	e50b300c 	str	r3, [r11, #-12]
    return newC ;
    2860:	e51b3010 	ldr	r3, [r11, #-16]
    2864:	e24b200c 	sub	r2, r11, #12
    2868:	e8920003 	ldm	r2, {r0, r1}
    286c:	e8830003 	stm	r3, {r0, r1}
}
    2870:	e51b0010 	ldr	r0, [r11, #-16]
    2874:	e28bd000 	add	sp, r11, #0
    2878:	e8bd0800 	ldmfd	sp!, {r11}
    287c:	e28dd008 	add	sp, sp, #8
    2880:	e12fff1e 	bx	lr

00002884 <multiply>:
 Complex multiply (Complex c,  Complex rhs )   {
    2884:	e24dd008 	sub	sp, sp, #8
    2888:	e52db004 	push	{r11}		; (str r11, [sp, #-4]!)
    288c:	e28db000 	add	r11, sp, #0
    2890:	e24dd01c 	sub	sp, sp, #28
    2894:	e50b0010 	str	r0, [r11, #-16]
    2898:	e24b0018 	sub	r0, r11, #24
    289c:	e8800006 	stm	r0, {r1, r2}
    28a0:	e58b3008 	str	r3, [r11, #8]
    Complex newC;
    newC.i = (c.r>>8) * (rhs.i>>8) + (c.i>>8) * (rhs.r>>8);
    28a4:	e51b3018 	ldr	r3, [r11, #-24]	; 0xffffffe8
    28a8:	e1a03443 	asr	r3, r3, #8
    28ac:	e59b200c 	ldr	r2, [r11, #12]
    28b0:	e1a02442 	asr	r2, r2, #8
    28b4:	e0020392 	mul	r2, r2, r3
    28b8:	e51b3014 	ldr	r3, [r11, #-20]	; 0xffffffec
    28bc:	e1a03443 	asr	r3, r3, #8
    28c0:	e59b1008 	ldr	r1, [r11, #8]
    28c4:	e1a01441 	asr	r1, r1, #8
    28c8:	e0030391 	mul	r3, r1, r3
    28cc:	e0823003 	add	r3, r2, r3
    28d0:	e50b3008 	str	r3, [r11, #-8]
    newC.r = (c.r>>8) * (rhs.r>>8) - (c.i>>8) * (rhs.i>>8);
    28d4:	e51b3018 	ldr	r3, [r11, #-24]	; 0xffffffe8
    28d8:	e1a03443 	asr	r3, r3, #8
    28dc:	e59b2008 	ldr	r2, [r11, #8]
    28e0:	e1a02442 	asr	r2, r2, #8
    28e4:	e0020392 	mul	r2, r2, r3
    28e8:	e51b3014 	ldr	r3, [r11, #-20]	; 0xffffffec
    28ec:	e1a03443 	asr	r3, r3, #8
    28f0:	e59b100c 	ldr	r1, [r11, #12]
    28f4:	e1a01441 	asr	r1, r1, #8
    28f8:	e0030391 	mul	r3, r1, r3
    28fc:	e0633002 	rsb	r3, r3, r2
    2900:	e50b300c 	str	r3, [r11, #-12]
    return newC ;
    2904:	e51b3010 	ldr	r3, [r11, #-16]
    2908:	e24b200c 	sub	r2, r11, #12
    290c:	e8920003 	ldm	r2, {r0, r1}
    2910:	e8830003 	stm	r3, {r0, r1}
    //return Complex ( r * rhs.r - i * rhs.i, r * rhs.i + i * rhs.r )
}
    2914:	e51b0010 	ldr	r0, [r11, #-16]
    2918:	e28bd000 	add	sp, r11, #0
    291c:	e8bd0800 	ldmfd	sp!, {r11}
    2920:	e28dd008 	add	sp, sp, #8
    2924:	e12fff1e 	bx	lr

00002928 <divideByInt>:

 Complex divideByInt (Complex c,  int x )   {
    2928:	e92d4800 	push	{r11, lr}
    292c:	e28db004 	add	r11, sp, #4
    2930:	e24dd018 	sub	sp, sp, #24
    2934:	e50b0010 	str	r0, [r11, #-16]
    2938:	e24b0018 	sub	r0, r11, #24
    293c:	e8800006 	stm	r0, {r1, r2}
    2940:	e50b301c 	str	r3, [r11, #-28]	; 0xffffffe4
    Complex newC;
    newC.i /= x;
    2944:	e51b3008 	ldr	r3, [r11, #-8]
    2948:	e1a00003 	mov	r0, r3
    294c:	e51b101c 	ldr	r1, [r11, #-28]	; 0xffffffe4
    2950:	eb00030a 	bl	3580 <__aeabi_idiv>
    2954:	e1a03000 	mov	r3, r0
    2958:	e50b3008 	str	r3, [r11, #-8]
    newC.r /= x;
    295c:	e51b300c 	ldr	r3, [r11, #-12]
    2960:	e1a00003 	mov	r0, r3
    2964:	e51b101c 	ldr	r1, [r11, #-28]	; 0xffffffe4
    2968:	eb000304 	bl	3580 <__aeabi_idiv>
    296c:	e1a03000 	mov	r3, r0
    2970:	e50b300c 	str	r3, [r11, #-12]
    return newC ;
    2974:	e51b3010 	ldr	r3, [r11, #-16]
    2978:	e24b200c 	sub	r2, r11, #12
    297c:	e8920003 	ldm	r2, {r0, r1}
    2980:	e8830003 	stm	r3, {r0, r1}
}
    2984:	e51b0010 	ldr	r0, [r11, #-16]
    2988:	e24bd004 	sub	sp, r11, #4
    298c:	e8bd8800 	pop	{r11, pc}

00002990 <conjg>:

 Complex conjg (Complex c)  {
    2990:	e52db004 	push	{r11}		; (str r11, [sp, #-4]!)
    2994:	e28db000 	add	r11, sp, #0
    2998:	e24dd01c 	sub	sp, sp, #28
    299c:	e50b0010 	str	r0, [r11, #-16]
    29a0:	e24b3018 	sub	r3, r11, #24
    29a4:	e8830006 	stm	r3, {r1, r2}
    Complex newC;
    newC.i = -c.i;
    29a8:	e51b3014 	ldr	r3, [r11, #-20]	; 0xffffffec
    29ac:	e2633000 	rsb	r3, r3, #0
    29b0:	e50b3008 	str	r3, [r11, #-8]
    newC.r = c.r;
    29b4:	e51b3018 	ldr	r3, [r11, #-24]	; 0xffffffe8
    29b8:	e50b300c 	str	r3, [r11, #-12]
    return newC ;
    29bc:	e51b3010 	ldr	r3, [r11, #-16]
    29c0:	e24b200c 	sub	r2, r11, #12
    29c4:	e8920003 	ldm	r2, {r0, r1}
    29c8:	e8830003 	stm	r3, {r0, r1}
}
    29cc:	e51b0010 	ldr	r0, [r11, #-16]
    29d0:	e28bd000 	add	sp, r11, #0
    29d4:	e8bd0800 	ldmfd	sp!, {r11}
    29d8:	e12fff1e 	bx	lr

000029dc <magnitude>:
 
  int magnitude (Complex c)  {
    29dc:	e92d4800 	push	{r11, lr}
    29e0:	e28db004 	add	r11, sp, #4
    29e4:	e24dd008 	sub	sp, sp, #8
    29e8:	e24b300c 	sub	r3, r11, #12
    29ec:	e8830003 	stm	r3, {r0, r1}
    return sqrt((c.i>>10)*(c.i>>10) + (c.r>>10)*(c.r>>10));
    29f0:	e51b3008 	ldr	r3, [r11, #-8]
    29f4:	e1a03543 	asr	r3, r3, #10
    29f8:	e51b2008 	ldr	r2, [r11, #-8]
    29fc:	e1a02542 	asr	r2, r2, #10
    2a00:	e0020392 	mul	r2, r2, r3
    2a04:	e51b300c 	ldr	r3, [r11, #-12]
    2a08:	e1a03543 	asr	r3, r3, #10
    2a0c:	e51b100c 	ldr	r1, [r11, #-12]
    2a10:	e1a01541 	asr	r1, r1, #10
    2a14:	e0030391 	mul	r3, r1, r3
    2a18:	e0823003 	add	r3, r2, r3
    2a1c:	e1a00003 	mov	r0, r3
    2a20:	eb0003f9 	bl	3a0c <__aeabi_i2d>
    2a24:	e1a02000 	mov	r2, r0
    2a28:	e1a03001 	mov	r3, r1
    2a2c:	e1a00002 	mov	r0, r2
    2a30:	e1a01003 	mov	r1, r3
    2a34:	eb000196 	bl	3094 <sqrt>
    2a38:	e1a02000 	mov	r2, r0
    2a3c:	e1a03001 	mov	r3, r1
    2a40:	e1a00002 	mov	r0, r2
    2a44:	e1a01003 	mov	r1, r3
    2a48:	eb00059e 	bl	40c8 <__aeabi_d2iz>
    2a4c:	e1a03000 	mov	r3, r0
}
    2a50:	e1a00003 	mov	r0, r3
    2a54:	e24bd004 	sub	sp, r11, #4
    2a58:	e8bd8800 	pop	{r11, pc}

00002a5c <initOmega>:


 void initOmega (Complex *omega, Complex *omegaInverse,   int n )  {
    2a5c:	e92d4810 	push	{r4, r11, lr}
    2a60:	e28db008 	add	r11, sp, #8
    2a64:	e24dd02c 	sub	sp, sp, #44	; 0x2c
    2a68:	e50b0020 	str	r0, [r11, #-32]	; 0xffffffe0
    2a6c:	e50b1024 	str	r1, [r11, #-36]	; 0xffffffdc
    2a70:	e50b2028 	str	r2, [r11, #-40]	; 0xffffffd8
    for ( int i = 0 ; i < n ; ++ i )  {
    2a74:	e3a03000 	mov	r3, #0
    2a78:	e50b3010 	str	r3, [r11, #-16]
    2a7c:	ea00002d 	b	2b38 <initOmega+0xdc>
        Complex c;
        c.i = VIS_FastSin_d16 ( 360 / n * i );
    2a80:	e3a00f5a 	mov	r0, #360	; 0x168
    2a84:	e51b1028 	ldr	r1, [r11, #-40]	; 0xffffffd8
    2a88:	eb0002bc 	bl	3580 <__aeabi_idiv>
    2a8c:	e1a03000 	mov	r3, r0
    2a90:	e51b2010 	ldr	r2, [r11, #-16]
    2a94:	e0030392 	mul	r3, r2, r3
    2a98:	e1a00003 	mov	r0, r3
    2a9c:	ebfffecb 	bl	25d0 <VIS_FastSin_d16>
    2aa0:	e1a03000 	mov	r3, r0
    2aa4:	e50b3014 	str	r3, [r11, #-20]	; 0xffffffec
        c.r = VIS_FastCos_d16 ( 360 / n * i);
    2aa8:	e3a00f5a 	mov	r0, #360	; 0x168
    2aac:	e51b1028 	ldr	r1, [r11, #-40]	; 0xffffffd8
    2ab0:	eb0002b2 	bl	3580 <__aeabi_idiv>
    2ab4:	e1a03000 	mov	r3, r0
    2ab8:	e51b2010 	ldr	r2, [r11, #-16]
    2abc:	e0030392 	mul	r3, r2, r3
    2ac0:	e1a00003 	mov	r0, r3
    2ac4:	ebfffef4 	bl	269c <VIS_FastCos_d16>
    2ac8:	e1a03000 	mov	r3, r0
    2acc:	e50b3018 	str	r3, [r11, #-24]	; 0xffffffe8
        omega [i] = c;
    2ad0:	e51b3010 	ldr	r3, [r11, #-16]
    2ad4:	e1a03183 	lsl	r3, r3, #3
    2ad8:	e51b2020 	ldr	r2, [r11, #-32]	; 0xffffffe0
    2adc:	e0823003 	add	r3, r2, r3
    2ae0:	e24b2018 	sub	r2, r11, #24
    2ae4:	e8920003 	ldm	r2, {r0, r1}
    2ae8:	e8830003 	stm	r3, {r0, r1}
        omegaInverse [i] = conjg ( omega [i] ) ;
    2aec:	e51b3010 	ldr	r3, [r11, #-16]
    2af0:	e1a03183 	lsl	r3, r3, #3
    2af4:	e51b2024 	ldr	r2, [r11, #-36]	; 0xffffffdc
    2af8:	e0824003 	add	r4, r2, r3
    2afc:	e51b3010 	ldr	r3, [r11, #-16]
    2b00:	e1a03183 	lsl	r3, r3, #3
    2b04:	e51b2020 	ldr	r2, [r11, #-32]	; 0xffffffe0
    2b08:	e0823003 	add	r3, r2, r3
    2b0c:	e24b2034 	sub	r2, r11, #52	; 0x34
    2b10:	e1a00002 	mov	r0, r2
    2b14:	e8930006 	ldm	r3, {r1, r2}
    2b18:	ebffff9c 	bl	2990 <conjg>
    2b1c:	e1a03004 	mov	r3, r4
    2b20:	e24b2034 	sub	r2, r11, #52	; 0x34
    2b24:	e8920003 	ldm	r2, {r0, r1}
    2b28:	e8830003 	stm	r3, {r0, r1}
    return sqrt((c.i>>10)*(c.i>>10) + (c.r>>10)*(c.r>>10));
}


 void initOmega (Complex *omega, Complex *omegaInverse,   int n )  {
    for ( int i = 0 ; i < n ; ++ i )  {
    2b2c:	e51b3010 	ldr	r3, [r11, #-16]
    2b30:	e2833001 	add	r3, r3, #1
    2b34:	e50b3010 	str	r3, [r11, #-16]
    2b38:	e51b2010 	ldr	r2, [r11, #-16]
    2b3c:	e51b3028 	ldr	r3, [r11, #-40]	; 0xffffffd8
    2b40:	e1520003 	cmp	r2, r3
    2b44:	baffffcd 	blt	2a80 <initOmega+0x24>
        c.i = VIS_FastSin_d16 ( 360 / n * i );
        c.r = VIS_FastCos_d16 ( 360 / n * i);
        omega [i] = c;
        omegaInverse [i] = conjg ( omega [i] ) ;
    }
}
    2b48:	e24bd008 	sub	sp, r11, #8
    2b4c:	e8bd8810 	pop	{r4, r11, pc}

00002b50 <transform>:

void transform ( Complex *a,  int n,  Complex* omega ) {
    2b50:	e92d4810 	push	{r4, r11, lr}
    2b54:	e28db008 	add	r11, sp, #8
    2b58:	e24dd054 	sub	sp, sp, #84	; 0x54
    2b5c:	e50b0040 	str	r0, [r11, #-64]	; 0xffffffc0
    2b60:	e50b1044 	str	r1, [r11, #-68]	; 0xffffffbc
    2b64:	e50b2048 	str	r2, [r11, #-72]	; 0xffffffb8
    for ( int i = 0, j = 0 ; i < n ; ++ i )  {
    2b68:	e3a03000 	mov	r3, #0
    2b6c:	e50b3010 	str	r3, [r11, #-16]
    2b70:	e3a03000 	mov	r3, #0
    2b74:	e50b3014 	str	r3, [r11, #-20]	; 0xffffffec
    2b78:	ea00002d 	b	2c34 <transform+0xe4>
        if ( i > j ){
    2b7c:	e51b2010 	ldr	r2, [r11, #-16]
    2b80:	e51b3014 	ldr	r3, [r11, #-20]	; 0xffffffec
    2b84:	e1520003 	cmp	r2, r3
    2b88:	da000017 	ble	2bec <transform+0x9c>
            //swap ( a [i], a [j] )
            Complex temp = a[i];
    2b8c:	e51b3010 	ldr	r3, [r11, #-16]
    2b90:	e1a03183 	lsl	r3, r3, #3
    2b94:	e51b2040 	ldr	r2, [r11, #-64]	; 0xffffffc0
    2b98:	e0822003 	add	r2, r2, r3
    2b9c:	e24b3030 	sub	r3, r11, #48	; 0x30
    2ba0:	e8920003 	ldm	r2, {r0, r1}
    2ba4:	e8830003 	stm	r3, {r0, r1}
            a[i] = a[j];
    2ba8:	e51b3010 	ldr	r3, [r11, #-16]
    2bac:	e1a03183 	lsl	r3, r3, #3
    2bb0:	e51b2040 	ldr	r2, [r11, #-64]	; 0xffffffc0
    2bb4:	e0823003 	add	r3, r2, r3
    2bb8:	e51b2014 	ldr	r2, [r11, #-20]	; 0xffffffec
    2bbc:	e1a02182 	lsl	r2, r2, #3
    2bc0:	e51b1040 	ldr	r1, [r11, #-64]	; 0xffffffc0
    2bc4:	e0812002 	add	r2, r1, r2
    2bc8:	e8920003 	ldm	r2, {r0, r1}
    2bcc:	e8830003 	stm	r3, {r0, r1}
            a[j] = temp;
    2bd0:	e51b3014 	ldr	r3, [r11, #-20]	; 0xffffffec
    2bd4:	e1a03183 	lsl	r3, r3, #3
    2bd8:	e51b2040 	ldr	r2, [r11, #-64]	; 0xffffffc0
    2bdc:	e0823003 	add	r3, r2, r3
    2be0:	e24b2030 	sub	r2, r11, #48	; 0x30
    2be4:	e8920003 	ldm	r2, {r0, r1}
    2be8:	e8830003 	stm	r3, {r0, r1}
        } 
        for( int l = n >> 1 ; ( j ^= l ) < l ; l >>= 1 ) ;
    2bec:	e51b3044 	ldr	r3, [r11, #-68]	; 0xffffffbc
    2bf0:	e1a030c3 	asr	r3, r3, #1
    2bf4:	e50b3018 	str	r3, [r11, #-24]	; 0xffffffe8
    2bf8:	ea000002 	b	2c08 <transform+0xb8>
    2bfc:	e51b3018 	ldr	r3, [r11, #-24]	; 0xffffffe8
    2c00:	e1a030c3 	asr	r3, r3, #1
    2c04:	e50b3018 	str	r3, [r11, #-24]	; 0xffffffe8
    2c08:	e51b2014 	ldr	r2, [r11, #-20]	; 0xffffffec
    2c0c:	e51b3018 	ldr	r3, [r11, #-24]	; 0xffffffe8
    2c10:	e0223003 	eor	r3, r2, r3
    2c14:	e50b3014 	str	r3, [r11, #-20]	; 0xffffffec
    2c18:	e51b2014 	ldr	r2, [r11, #-20]	; 0xffffffec
    2c1c:	e51b3018 	ldr	r3, [r11, #-24]	; 0xffffffe8
    2c20:	e1520003 	cmp	r2, r3
    2c24:	bafffff4 	blt	2bfc <transform+0xac>
        omegaInverse [i] = conjg ( omega [i] ) ;
    }
}

void transform ( Complex *a,  int n,  Complex* omega ) {
    for ( int i = 0, j = 0 ; i < n ; ++ i )  {
    2c28:	e51b3010 	ldr	r3, [r11, #-16]
    2c2c:	e2833001 	add	r3, r3, #1
    2c30:	e50b3010 	str	r3, [r11, #-16]
    2c34:	e51b2010 	ldr	r2, [r11, #-16]
    2c38:	e51b3044 	ldr	r3, [r11, #-68]	; 0xffffffbc
    2c3c:	e1520003 	cmp	r2, r3
    2c40:	baffffcd 	blt	2b7c <transform+0x2c>
            a[j] = temp;
        } 
        for( int l = n >> 1 ; ( j ^= l ) < l ; l >>= 1 ) ;
    }
    
    for ( int l = 2 ; l <= n ; l <<= 1 )  {
    2c44:	e3a03002 	mov	r3, #2
    2c48:	e50b301c 	str	r3, [r11, #-28]	; 0xffffffe4
    2c4c:	ea00005e 	b	2dcc <transform+0x27c>
        int m = l / 2;
    2c50:	e51b301c 	ldr	r3, [r11, #-28]	; 0xffffffe4
    2c54:	e1a02fa3 	lsr	r2, r3, #31
    2c58:	e0823003 	add	r3, r2, r3
    2c5c:	e1a030c3 	asr	r3, r3, #1
    2c60:	e50b3028 	str	r3, [r11, #-40]	; 0xffffffd8
        for (Complex * p = a ; p < a + n ; p += l )  {
    2c64:	e51b3040 	ldr	r3, [r11, #-64]	; 0xffffffc0
    2c68:	e50b3020 	str	r3, [r11, #-32]	; 0xffffffe0
    2c6c:	ea00004c 	b	2da4 <transform+0x254>
            for ( int i = 0 ; i < m ; ++ i )  {
    2c70:	e3a03000 	mov	r3, #0
    2c74:	e50b3024 	str	r3, [r11, #-36]	; 0xffffffdc
    2c78:	ea000040 	b	2d80 <transform+0x230>
                Complex t = multiply(omega [n / l * i] , p [m + i]);
    2c7c:	e51b0044 	ldr	r0, [r11, #-68]	; 0xffffffbc
    2c80:	e51b101c 	ldr	r1, [r11, #-28]	; 0xffffffe4
    2c84:	eb00023d 	bl	3580 <__aeabi_idiv>
    2c88:	e1a03000 	mov	r3, r0
    2c8c:	e51b2024 	ldr	r2, [r11, #-36]	; 0xffffffdc
    2c90:	e0030392 	mul	r3, r2, r3
    2c94:	e1a03183 	lsl	r3, r3, #3
    2c98:	e51b2048 	ldr	r2, [r11, #-72]	; 0xffffffb8
    2c9c:	e0822003 	add	r2, r2, r3
    2ca0:	e51b1028 	ldr	r1, [r11, #-40]	; 0xffffffd8
    2ca4:	e51b3024 	ldr	r3, [r11, #-36]	; 0xffffffdc
    2ca8:	e0813003 	add	r3, r1, r3
    2cac:	e1a03183 	lsl	r3, r3, #3
    2cb0:	e51b1020 	ldr	r1, [r11, #-32]	; 0xffffffe0
    2cb4:	e0813003 	add	r3, r1, r3
    2cb8:	e24b1038 	sub	r1, r11, #56	; 0x38
    2cbc:	e5930004 	ldr	r0, [r3, #4]
    2cc0:	e58d0000 	str	r0, [sp]
    2cc4:	e5933000 	ldr	r3, [r3]
    2cc8:	e1a00001 	mov	r0, r1
    2ccc:	e8920006 	ldm	r2, {r1, r2}
    2cd0:	ebfffeeb 	bl	2884 <multiply>
                p [m + i] = sub (p [i] , t) ;
    2cd4:	e51b2028 	ldr	r2, [r11, #-40]	; 0xffffffd8
    2cd8:	e51b3024 	ldr	r3, [r11, #-36]	; 0xffffffdc
    2cdc:	e0823003 	add	r3, r2, r3
    2ce0:	e1a03183 	lsl	r3, r3, #3
    2ce4:	e51b2020 	ldr	r2, [r11, #-32]	; 0xffffffe0
    2ce8:	e0824003 	add	r4, r2, r3
    2cec:	e51b3024 	ldr	r3, [r11, #-36]	; 0xffffffdc
    2cf0:	e1a03183 	lsl	r3, r3, #3
    2cf4:	e51b2020 	ldr	r2, [r11, #-32]	; 0xffffffe0
    2cf8:	e0822003 	add	r2, r2, r3
    2cfc:	e24b1054 	sub	r1, r11, #84	; 0x54
    2d00:	e51b3034 	ldr	r3, [r11, #-52]	; 0xffffffcc
    2d04:	e58d3000 	str	r3, [sp]
    2d08:	e51b3038 	ldr	r3, [r11, #-56]	; 0xffffffc8
    2d0c:	e1a00001 	mov	r0, r1
    2d10:	e8920006 	ldm	r2, {r1, r2}
    2d14:	ebfffec1 	bl	2820 <sub>
    2d18:	e1a03004 	mov	r3, r4
    2d1c:	e24b2054 	sub	r2, r11, #84	; 0x54
    2d20:	e8920003 	ldm	r2, {r0, r1}
    2d24:	e8830003 	stm	r3, {r0, r1}
                p [i] = add(p [i], t) ;
    2d28:	e51b3024 	ldr	r3, [r11, #-36]	; 0xffffffdc
    2d2c:	e1a03183 	lsl	r3, r3, #3
    2d30:	e51b2020 	ldr	r2, [r11, #-32]	; 0xffffffe0
    2d34:	e0824003 	add	r4, r2, r3
    2d38:	e51b3024 	ldr	r3, [r11, #-36]	; 0xffffffdc
    2d3c:	e1a03183 	lsl	r3, r3, #3
    2d40:	e51b2020 	ldr	r2, [r11, #-32]	; 0xffffffe0
    2d44:	e0822003 	add	r2, r2, r3
    2d48:	e24b1054 	sub	r1, r11, #84	; 0x54
    2d4c:	e51b3034 	ldr	r3, [r11, #-52]	; 0xffffffcc
    2d50:	e58d3000 	str	r3, [sp]
    2d54:	e51b3038 	ldr	r3, [r11, #-56]	; 0xffffffc8
    2d58:	e1a00001 	mov	r0, r1
    2d5c:	e8920006 	ldm	r2, {r1, r2}
    2d60:	ebfffe95 	bl	27bc <add>
    2d64:	e1a03004 	mov	r3, r4
    2d68:	e24b2054 	sub	r2, r11, #84	; 0x54
    2d6c:	e8920003 	ldm	r2, {r0, r1}
    2d70:	e8830003 	stm	r3, {r0, r1}
    }
    
    for ( int l = 2 ; l <= n ; l <<= 1 )  {
        int m = l / 2;
        for (Complex * p = a ; p < a + n ; p += l )  {
            for ( int i = 0 ; i < m ; ++ i )  {
    2d74:	e51b3024 	ldr	r3, [r11, #-36]	; 0xffffffdc
    2d78:	e2833001 	add	r3, r3, #1
    2d7c:	e50b3024 	str	r3, [r11, #-36]	; 0xffffffdc
    2d80:	e51b2024 	ldr	r2, [r11, #-36]	; 0xffffffdc
    2d84:	e51b3028 	ldr	r3, [r11, #-40]	; 0xffffffd8
    2d88:	e1520003 	cmp	r2, r3
    2d8c:	baffffba 	blt	2c7c <transform+0x12c>
        for( int l = n >> 1 ; ( j ^= l ) < l ; l >>= 1 ) ;
    }
    
    for ( int l = 2 ; l <= n ; l <<= 1 )  {
        int m = l / 2;
        for (Complex * p = a ; p < a + n ; p += l )  {
    2d90:	e51b301c 	ldr	r3, [r11, #-28]	; 0xffffffe4
    2d94:	e1a03183 	lsl	r3, r3, #3
    2d98:	e51b2020 	ldr	r2, [r11, #-32]	; 0xffffffe0
    2d9c:	e0823003 	add	r3, r2, r3
    2da0:	e50b3020 	str	r3, [r11, #-32]	; 0xffffffe0
    2da4:	e51b3044 	ldr	r3, [r11, #-68]	; 0xffffffbc
    2da8:	e1a03183 	lsl	r3, r3, #3
    2dac:	e51b2040 	ldr	r2, [r11, #-64]	; 0xffffffc0
    2db0:	e0822003 	add	r2, r2, r3
    2db4:	e51b3020 	ldr	r3, [r11, #-32]	; 0xffffffe0
    2db8:	e1520003 	cmp	r2, r3
    2dbc:	8affffab 	bhi	2c70 <transform+0x120>
            a[j] = temp;
        } 
        for( int l = n >> 1 ; ( j ^= l ) < l ; l >>= 1 ) ;
    }
    
    for ( int l = 2 ; l <= n ; l <<= 1 )  {
    2dc0:	e51b301c 	ldr	r3, [r11, #-28]	; 0xffffffe4
    2dc4:	e1a03083 	lsl	r3, r3, #1
    2dc8:	e50b301c 	str	r3, [r11, #-28]	; 0xffffffe4
    2dcc:	e51b201c 	ldr	r2, [r11, #-28]	; 0xffffffe4
    2dd0:	e51b3044 	ldr	r3, [r11, #-68]	; 0xffffffbc
    2dd4:	e1520003 	cmp	r2, r3
    2dd8:	daffff9c 	ble	2c50 <transform+0x100>
                p [m + i] = sub (p [i] , t) ;
                p [i] = add(p [i], t) ;
            }
        }
    }
}
    2ddc:	e24bd008 	sub	sp, r11, #8
    2de0:	e8bd8810 	pop	{r4, r11, pc}

00002de4 <dft>:

void dft ( Complex *a,  int n ,  Complex* omega)  {
    2de4:	e92d4800 	push	{r11, lr}
    2de8:	e28db004 	add	r11, sp, #4
    2dec:	e24dd010 	sub	sp, sp, #16
    2df0:	e50b0008 	str	r0, [r11, #-8]
    2df4:	e50b100c 	str	r1, [r11, #-12]
    2df8:	e50b2010 	str	r2, [r11, #-16]
        transform ( a, n, omega ) ;
    2dfc:	e51b0008 	ldr	r0, [r11, #-8]
    2e00:	e51b100c 	ldr	r1, [r11, #-12]
    2e04:	e51b2010 	ldr	r2, [r11, #-16]
    2e08:	ebffff50 	bl	2b50 <transform>
}
    2e0c:	e24bd004 	sub	sp, r11, #4
    2e10:	e8bd8800 	pop	{r11, pc}

00002e14 <idft>:

void idft ( Complex *a,  int n,  Complex* omegaInverse )  {
    2e14:	e92d4810 	push	{r4, r11, lr}
    2e18:	e28db008 	add	r11, sp, #8
    2e1c:	e24dd024 	sub	sp, sp, #36	; 0x24
    2e20:	e50b0018 	str	r0, [r11, #-24]	; 0xffffffe8
    2e24:	e50b101c 	str	r1, [r11, #-28]	; 0xffffffe4
    2e28:	e50b2020 	str	r2, [r11, #-32]	; 0xffffffe0
        transform ( a, n, omegaInverse ) ;
    2e2c:	e51b0018 	ldr	r0, [r11, #-24]	; 0xffffffe8
    2e30:	e51b101c 	ldr	r1, [r11, #-28]	; 0xffffffe4
    2e34:	e51b2020 	ldr	r2, [r11, #-32]	; 0xffffffe0
    2e38:	ebffff44 	bl	2b50 <transform>
        for ( int i = 0 ; i < n ; ++ i ) a [i] = divideByInt(a[i],n) ;
    2e3c:	e3a03000 	mov	r3, #0
    2e40:	e50b3010 	str	r3, [r11, #-16]
    2e44:	ea000013 	b	2e98 <idft+0x84>
    2e48:	e51b3010 	ldr	r3, [r11, #-16]
    2e4c:	e1a03183 	lsl	r3, r3, #3
    2e50:	e51b2018 	ldr	r2, [r11, #-24]	; 0xffffffe8
    2e54:	e0824003 	add	r4, r2, r3
    2e58:	e51b3010 	ldr	r3, [r11, #-16]
    2e5c:	e1a03183 	lsl	r3, r3, #3
    2e60:	e51b2018 	ldr	r2, [r11, #-24]	; 0xffffffe8
    2e64:	e0823003 	add	r3, r2, r3
    2e68:	e24b202c 	sub	r2, r11, #44	; 0x2c
    2e6c:	e1a00002 	mov	r0, r2
    2e70:	e8930006 	ldm	r3, {r1, r2}
    2e74:	e51b301c 	ldr	r3, [r11, #-28]	; 0xffffffe4
    2e78:	ebfffeaa 	bl	2928 <divideByInt>
    2e7c:	e1a03004 	mov	r3, r4
    2e80:	e24b202c 	sub	r2, r11, #44	; 0x2c
    2e84:	e8920003 	ldm	r2, {r0, r1}
    2e88:	e8830003 	stm	r3, {r0, r1}
    2e8c:	e51b3010 	ldr	r3, [r11, #-16]
    2e90:	e2833001 	add	r3, r3, #1
    2e94:	e50b3010 	str	r3, [r11, #-16]
    2e98:	e51b2010 	ldr	r2, [r11, #-16]
    2e9c:	e51b301c 	ldr	r3, [r11, #-28]	; 0xffffffe4
    2ea0:	e1520003 	cmp	r2, r3
    2ea4:	baffffe7 	blt	2e48 <idft+0x34>
    }
    2ea8:	e24bd008 	sub	sp, r11, #8
    2eac:	e8bd8810 	pop	{r4, r11, pc}

00002eb0 <FastFourierTransform>:
void FastFourierTransform (Complex *a,  int n ){
    2eb0:	e92d4ff0 	push	{r4, r5, r6, r7, r8, r9, r10, r11, lr}
    2eb4:	e28db020 	add	r11, sp, #32
    2eb8:	e24dd024 	sub	sp, sp, #36	; 0x24
    2ebc:	e50b0038 	str	r0, [r11, #-56]	; 0xffffffc8
    2ec0:	e50b103c 	str	r1, [r11, #-60]	; 0xffffffc4
    2ec4:	e1a0300d 	mov	r3, sp
    2ec8:	e1a0a003 	mov	r10, r3
    Complex omega [n], omegaInverse[n];
    2ecc:	e51b103c 	ldr	r1, [r11, #-60]	; 0xffffffc4
    2ed0:	e2413001 	sub	r3, r1, #1
    2ed4:	e50b3028 	str	r3, [r11, #-40]	; 0xffffffd8
    2ed8:	e1a00001 	mov	r0, r1
    2edc:	e1a02000 	mov	r2, r0
    2ee0:	e3a03000 	mov	r3, #0
    2ee4:	e1a00d22 	lsr	r0, r2, #26
    2ee8:	e1a0c303 	lsl	r12, r3, #6
    2eec:	e50bc040 	str	r12, [r11, #-64]	; 0xffffffc0
    2ef0:	e51bc040 	ldr	r12, [r11, #-64]	; 0xffffffc0
    2ef4:	e180c00c 	orr	r12, r0, r12
    2ef8:	e50bc040 	str	r12, [r11, #-64]	; 0xffffffc0
    2efc:	e1a00302 	lsl	r0, r2, #6
    2f00:	e1a00001 	mov	r0, r1
    2f04:	e1a02000 	mov	r2, r0
    2f08:	e3a03000 	mov	r3, #0
    2f0c:	e1a00d22 	lsr	r0, r2, #26
    2f10:	e1a09303 	lsl	r9, r3, #6
    2f14:	e1809009 	orr	r9, r0, r9
    2f18:	e1a08302 	lsl	r8, r2, #6
    2f1c:	e1a03001 	mov	r3, r1
    2f20:	e1a03183 	lsl	r3, r3, #3
    2f24:	e2833003 	add	r3, r3, #3
    2f28:	e2833007 	add	r3, r3, #7
    2f2c:	e1a031a3 	lsr	r3, r3, #3
    2f30:	e1a03183 	lsl	r3, r3, #3
    2f34:	e04dd003 	sub	sp, sp, r3
    2f38:	e1a0300d 	mov	r3, sp
    2f3c:	e2833003 	add	r3, r3, #3
    2f40:	e1a03123 	lsr	r3, r3, #2
    2f44:	e1a03103 	lsl	r3, r3, #2
    2f48:	e50b302c 	str	r3, [r11, #-44]	; 0xffffffd4
    2f4c:	e51b103c 	ldr	r1, [r11, #-60]	; 0xffffffc4
    2f50:	e2413001 	sub	r3, r1, #1
    2f54:	e50b3030 	str	r3, [r11, #-48]	; 0xffffffd0
    2f58:	e1a00001 	mov	r0, r1
    2f5c:	e1a02000 	mov	r2, r0
    2f60:	e3a03000 	mov	r3, #0
    2f64:	e1a00d22 	lsr	r0, r2, #26
    2f68:	e1a07303 	lsl	r7, r3, #6
    2f6c:	e1807007 	orr	r7, r0, r7
    2f70:	e1a06302 	lsl	r6, r2, #6
    2f74:	e1a00001 	mov	r0, r1
    2f78:	e1a02000 	mov	r2, r0
    2f7c:	e3a03000 	mov	r3, #0
    2f80:	e1a00d22 	lsr	r0, r2, #26
    2f84:	e1a05303 	lsl	r5, r3, #6
    2f88:	e1805005 	orr	r5, r0, r5
    2f8c:	e1a04302 	lsl	r4, r2, #6
    2f90:	e1a03001 	mov	r3, r1
    2f94:	e1a03183 	lsl	r3, r3, #3
    2f98:	e2833003 	add	r3, r3, #3
    2f9c:	e2833007 	add	r3, r3, #7
    2fa0:	e1a031a3 	lsr	r3, r3, #3
    2fa4:	e1a03183 	lsl	r3, r3, #3
    2fa8:	e04dd003 	sub	sp, sp, r3
    2fac:	e1a0300d 	mov	r3, sp
    2fb0:	e2833003 	add	r3, r3, #3
    2fb4:	e1a03123 	lsr	r3, r3, #2
    2fb8:	e1a03103 	lsl	r3, r3, #2
    2fbc:	e50b3034 	str	r3, [r11, #-52]	; 0xffffffcc
    initOmega (omega, omegaInverse, n);
    2fc0:	e51b202c 	ldr	r2, [r11, #-44]	; 0xffffffd4
    2fc4:	e51b3034 	ldr	r3, [r11, #-52]	; 0xffffffcc
    2fc8:	e1a00002 	mov	r0, r2
    2fcc:	e1a01003 	mov	r1, r3
    2fd0:	e51b203c 	ldr	r2, [r11, #-60]	; 0xffffffc4
    2fd4:	ebfffea0 	bl	2a5c <initOmega>
    dft ( a , n ,  omega);
    2fd8:	e51b302c 	ldr	r3, [r11, #-44]	; 0xffffffd4
    2fdc:	e51b0038 	ldr	r0, [r11, #-56]	; 0xffffffc8
    2fe0:	e51b103c 	ldr	r1, [r11, #-60]	; 0xffffffc4
    2fe4:	e1a02003 	mov	r2, r3
    2fe8:	ebffff7d 	bl	2de4 <dft>
    2fec:	e1a0d00a 	mov	sp, r10
}
    2ff0:	e24bd020 	sub	sp, r11, #32
    2ff4:	e8bd8ff0 	pop	{r4, r5, r6, r7, r8, r9, r10, r11, pc}

00002ff8 <idftMag>:
void idftMag (unsigned * result, Complex *a,  int n,  Complex* omegaInverse )  {
    2ff8:	e92d4810 	push	{r4, r11, lr}
    2ffc:	e28db008 	add	r11, sp, #8
    3000:	e24dd01c 	sub	sp, sp, #28
    3004:	e50b0018 	str	r0, [r11, #-24]	; 0xffffffe8
    3008:	e50b101c 	str	r1, [r11, #-28]	; 0xffffffe4
    300c:	e50b2020 	str	r2, [r11, #-32]	; 0xffffffe0
    3010:	e50b3024 	str	r3, [r11, #-36]	; 0xffffffdc
        transform ( a, n, omegaInverse ) ;
    3014:	e51b001c 	ldr	r0, [r11, #-28]	; 0xffffffe4
    3018:	e51b1020 	ldr	r1, [r11, #-32]	; 0xffffffe0
    301c:	e51b2024 	ldr	r2, [r11, #-36]	; 0xffffffdc
    3020:	ebfffeca 	bl	2b50 <transform>
        for ( int i = 0 ; i < n ; ++ i ) result [i] = (magnitude(a [i])/n ) ;
    3024:	e3a03000 	mov	r3, #0
    3028:	e50b3010 	str	r3, [r11, #-16]
    302c:	ea000012 	b	307c <idftMag+0x84>
    3030:	e51b3010 	ldr	r3, [r11, #-16]
    3034:	e1a03103 	lsl	r3, r3, #2
    3038:	e51b2018 	ldr	r2, [r11, #-24]	; 0xffffffe8
    303c:	e0824003 	add	r4, r2, r3
    3040:	e51b3010 	ldr	r3, [r11, #-16]
    3044:	e1a03183 	lsl	r3, r3, #3
    3048:	e51b201c 	ldr	r2, [r11, #-28]	; 0xffffffe4
    304c:	e0823003 	add	r3, r2, r3
    3050:	e8930003 	ldm	r3, {r0, r1}
    3054:	ebfffe60 	bl	29dc <magnitude>
    3058:	e1a03000 	mov	r3, r0
    305c:	e1a00003 	mov	r0, r3
    3060:	e51b1020 	ldr	r1, [r11, #-32]	; 0xffffffe0
    3064:	eb000145 	bl	3580 <__aeabi_idiv>
    3068:	e1a03000 	mov	r3, r0
    306c:	e5843000 	str	r3, [r4]
    3070:	e51b3010 	ldr	r3, [r11, #-16]
    3074:	e2833001 	add	r3, r3, #1
    3078:	e50b3010 	str	r3, [r11, #-16]
    307c:	e51b2010 	ldr	r2, [r11, #-16]
    3080:	e51b3020 	ldr	r3, [r11, #-32]	; 0xffffffe0
    3084:	e1520003 	cmp	r2, r3
    3088:	baffffe8 	blt	3030 <idftMag+0x38>
    308c:	e24bd008 	sub	sp, r11, #8
    3090:	e8bd8810 	pop	{r4, r11, pc}

00003094 <sqrt>:
    3094:	e92d47f0 	push	{r4, r5, r6, r7, r8, r9, r10, lr}
    3098:	e24dd028 	sub	sp, sp, #40	; 0x28
    309c:	e1a04000 	mov	r4, r0
    30a0:	e1a05001 	mov	r5, r1
    30a4:	eb000044 	bl	31bc <__ieee754_sqrt>
    30a8:	e59fa104 	ldr	r10, [pc, #260]	; 31b4 <sqrt+0x120>
    30ac:	e1da30d0 	ldrsb	r3, [r10]
    30b0:	e3730001 	cmn	r3, #1
    30b4:	e1a06000 	mov	r6, r0
    30b8:	e1a07001 	mov	r7, r1
    30bc:	0a00000d 	beq	30f8 <sqrt+0x64>
    30c0:	e1a00004 	mov	r0, r4
    30c4:	e1a01005 	mov	r1, r5
    30c8:	eb0000ca 	bl	33f8 <__fpclassifyd>
    30cc:	e3500000 	cmp	r0, #0
    30d0:	0a000008 	beq	30f8 <sqrt+0x64>
    30d4:	e3a08000 	mov	r8, #0
    30d8:	e3a09000 	mov	r9, #0
    30dc:	e1a00004 	mov	r0, r4
    30e0:	e1a01005 	mov	r1, r5
    30e4:	e1a02008 	mov	r2, r8
    30e8:	e1a03009 	mov	r3, r9
    30ec:	eb0003dd 	bl	4068 <__aeabi_dcmplt>
    30f0:	e3500000 	cmp	r0, #0
    30f4:	1a000004 	bne	310c <sqrt+0x78>
    30f8:	e1a00006 	mov	r0, r6
    30fc:	e1a01007 	mov	r1, r7
    3100:	e28dd028 	add	sp, sp, #40	; 0x28
    3104:	e8bd47f0 	pop	{r4, r5, r6, r7, r8, r9, r10, lr}
    3108:	e12fff1e 	bx	lr
    310c:	e3a03001 	mov	r3, #1
    3110:	e5da6000 	ldrb	r6, [r10]
    3114:	e58d3000 	str	r3, [sp]
    3118:	e59f3098 	ldr	r3, [pc, #152]	; 31b8 <sqrt+0x124>
    311c:	e3560000 	cmp	r6, #0
    3120:	e58d3004 	str	r3, [sp, #4]
    3124:	e3a03000 	mov	r3, #0
    3128:	e58d3020 	str	r3, [sp, #32]
    312c:	e58d4010 	str	r4, [sp, #16]
    3130:	e58d5014 	str	r5, [sp, #20]
    3134:	e58d4008 	str	r4, [sp, #8]
    3138:	e58d500c 	str	r5, [sp, #12]
    313c:	1a00000b 	bne	3170 <sqrt+0xdc>
    3140:	e58d8018 	str	r8, [sp, #24]
    3144:	e58d901c 	str	r9, [sp, #28]
    3148:	e1a0000d 	mov	r0, sp
    314c:	eb0000c4 	bl	3464 <matherr>
    3150:	e3500000 	cmp	r0, #0
    3154:	0a00000e 	beq	3194 <sqrt+0x100>
    3158:	e59d3020 	ldr	r3, [sp, #32]
    315c:	e3530000 	cmp	r3, #0
    3160:	1a00000f 	bne	31a4 <sqrt+0x110>
    3164:	e28d7018 	add	r7, sp, #24
    3168:	e89700c0 	ldm	r7, {r6, r7}
    316c:	eaffffe1 	b	30f8 <sqrt+0x64>
    3170:	e1a00008 	mov	r0, r8
    3174:	e1a01009 	mov	r1, r9
    3178:	e1a02008 	mov	r2, r8
    317c:	e1a03009 	mov	r3, r9
    3180:	eb0002fc 	bl	3d78 <__aeabi_ddiv>
    3184:	e3560002 	cmp	r6, #2
    3188:	e58d0018 	str	r0, [sp, #24]
    318c:	e58d101c 	str	r1, [sp, #28]
    3190:	1affffec 	bne	3148 <sqrt+0xb4>
    3194:	eb0003ea 	bl	4144 <__errno>
    3198:	e3a03021 	mov	r3, #33	; 0x21
    319c:	e5803000 	str	r3, [r0]
    31a0:	eaffffec 	b	3158 <sqrt+0xc4>
    31a4:	eb0003e6 	bl	4144 <__errno>
    31a8:	e59d3020 	ldr	r3, [sp, #32]
    31ac:	e5803000 	str	r3, [r0]
    31b0:	eaffffeb 	b	3164 <sqrt+0xd0>
    31b4:	00006a3c 	.word	0x00006a3c
    31b8:	00006978 	.word	0x00006978

000031bc <__ieee754_sqrt>:
    31bc:	e59fc230 	ldr	r12, [pc, #560]	; 33f4 <__ieee754_sqrt+0x238>
    31c0:	e92d45f8 	push	{r3, r4, r5, r6, r7, r8, r10, lr}
    31c4:	e59f7228 	ldr	r7, [pc, #552]	; 33f4 <__ieee754_sqrt+0x238>
    31c8:	e001c00c 	and	r12, r1, r12
    31cc:	e15c0007 	cmp	r12, r7
    31d0:	e1a04000 	mov	r4, r0
    31d4:	e1a05001 	mov	r5, r1
    31d8:	e1a02000 	mov	r2, r0
    31dc:	e1a03001 	mov	r3, r1
    31e0:	e1a06001 	mov	r6, r1
    31e4:	e1a0c001 	mov	r12, r1
    31e8:	e1a08000 	mov	r8, r0
    31ec:	0a00006a 	beq	339c <__ieee754_sqrt+0x1e0>
    31f0:	e3510000 	cmp	r1, #0
    31f4:	da000051 	ble	3340 <__ieee754_sqrt+0x184>
    31f8:	e1b02a41 	asrs	r2, r1, #20
    31fc:	0a00005a 	beq	336c <__ieee754_sqrt+0x1b0>
    3200:	e3cc34ff 	bic	r3, r12, #-16777216	; 0xff000000
    3204:	e3120001 	tst	r2, #1
    3208:	e3c3360f 	bic	r3, r3, #15728640	; 0xf00000
    320c:	e2426fff 	sub	r6, r2, #1020	; 0x3fc
    3210:	e3833601 	orr	r3, r3, #1048576	; 0x100000
    3214:	01a02fa8 	lsreq	r2, r8, #31
    3218:	01a08088 	lsleq	r8, r8, #1
    321c:	00823083 	addeq	r3, r2, r3, lsl #1
    3220:	e2466003 	sub	r6, r6, #3
    3224:	e1a02fa8 	lsr	r2, r8, #31
    3228:	e3a07000 	mov	r7, #0
    322c:	e0823083 	add	r3, r2, r3, lsl #1
    3230:	e1a060c6 	asr	r6, r6, #1
    3234:	e1a02088 	lsl	r2, r8, #1
    3238:	e3a0c016 	mov	r12, #22
    323c:	e1a00007 	mov	r0, r7
    3240:	e3a01602 	mov	r1, #2097152	; 0x200000
    3244:	e0804001 	add	r4, r0, r1
    3248:	e1540003 	cmp	r4, r3
    324c:	e1a05fa2 	lsr	r5, r2, #31
    3250:	d0840001 	addle	r0, r4, r1
    3254:	d0643003 	rsble	r3, r4, r3
    3258:	d0877001 	addle	r7, r7, r1
    325c:	e25cc001 	subs	r12, r12, #1
    3260:	e0853083 	add	r3, r5, r3, lsl #1
    3264:	e1a02082 	lsl	r2, r2, #1
    3268:	e1a010a1 	lsr	r1, r1, #1
    326c:	1afffff4 	bne	3244 <__ieee754_sqrt+0x88>
    3270:	e3a05020 	mov	r5, #32
    3274:	e1a0800c 	mov	r8, r12
    3278:	e3a01102 	mov	r1, #-2147483648	; 0x80000000
    327c:	ea00000c 	b	32b4 <__ieee754_sqrt+0xf8>
    3280:	e1a0a000 	mov	r10, r0
    3284:	e1540002 	cmp	r4, r2
    3288:	e0603003 	rsb	r3, r0, r3
    328c:	82433001 	subhi	r3, r3, #1
    3290:	e0642002 	rsb	r2, r4, r2
    3294:	e08cc001 	add	r12, r12, r1
    3298:	e1a0000a 	mov	r0, r10
    329c:	e1a04fa2 	lsr	r4, r2, #31
    32a0:	e2555001 	subs	r5, r5, #1
    32a4:	e0843083 	add	r3, r4, r3, lsl #1
    32a8:	e1a02082 	lsl	r2, r2, #1
    32ac:	e1a010a1 	lsr	r1, r1, #1
    32b0:	0a00000d 	beq	32ec <__ieee754_sqrt+0x130>
    32b4:	e1500003 	cmp	r0, r3
    32b8:	e0814008 	add	r4, r1, r8
    32bc:	ba000002 	blt	32cc <__ieee754_sqrt+0x110>
    32c0:	e1540002 	cmp	r4, r2
    32c4:	91530000 	cmpls	r3, r0
    32c8:	1afffff3 	bne	329c <__ieee754_sqrt+0xe0>
    32cc:	e2048102 	and	r8, r4, #-2147483648	; 0x80000000
    32d0:	e3580102 	cmp	r8, #-2147483648	; 0x80000000
    32d4:	e0848001 	add	r8, r4, r1
    32d8:	1affffe8 	bne	3280 <__ieee754_sqrt+0xc4>
    32dc:	e3580000 	cmp	r8, #0
    32e0:	a280a001 	addge	r10, r0, #1
    32e4:	aaffffe6 	bge	3284 <__ieee754_sqrt+0xc8>
    32e8:	eaffffe4 	b	3280 <__ieee754_sqrt+0xc4>
    32ec:	e1923003 	orrs	r3, r2, r3
    32f0:	1a00000b 	bne	3324 <__ieee754_sqrt+0x168>
    32f4:	e1a0c0ac 	lsr	r12, r12, #1
    32f8:	e1a030c7 	asr	r3, r7, #1
    32fc:	e28335ff 	add	r3, r3, #1069547520	; 0x3fc00000
    3300:	e3170001 	tst	r7, #1
    3304:	e2833602 	add	r3, r3, #2097152	; 0x200000
    3308:	138cc102 	orrne	r12, r12, #-2147483648	; 0x80000000
    330c:	e0835a06 	add	r5, r3, r6, lsl #20
    3310:	e1a0400c 	mov	r4, r12
    3314:	e1a00004 	mov	r0, r4
    3318:	e1a01005 	mov	r1, r5
    331c:	e8bd45f8 	pop	{r3, r4, r5, r6, r7, r8, r10, lr}
    3320:	e12fff1e 	bx	lr
    3324:	e37c0001 	cmn	r12, #1
    3328:	02877001 	addeq	r7, r7, #1
    332c:	01a0c005 	moveq	r12, r5
    3330:	0afffff0 	beq	32f8 <__ieee754_sqrt+0x13c>
    3334:	e20c3001 	and	r3, r12, #1
    3338:	e083c00c 	add	r12, r3, r12
    333c:	eaffffec 	b	32f4 <__ieee754_sqrt+0x138>
    3340:	e3c1c102 	bic	r12, r1, #-2147483648	; 0x80000000
    3344:	e19cc000 	orrs	r12, r12, r0
    3348:	0afffff1 	beq	3314 <__ieee754_sqrt+0x158>
    334c:	e3510000 	cmp	r1, #0
    3350:	01a02001 	moveq	r2, r1
    3354:	1a00001d 	bne	33d0 <__ieee754_sqrt+0x214>
    3358:	e1a0c5a8 	lsr	r12, r8, #11
    335c:	e35c0000 	cmp	r12, #0
    3360:	e2422015 	sub	r2, r2, #21
    3364:	e1a08a88 	lsl	r8, r8, #21
    3368:	0afffffa 	beq	3358 <__ieee754_sqrt+0x19c>
    336c:	e21c3601 	ands	r3, r12, #1048576	; 0x100000
    3370:	1a000012 	bne	33c0 <__ieee754_sqrt+0x204>
    3374:	e1a0c08c 	lsl	r12, r12, #1
    3378:	e31c0601 	tst	r12, #1048576	; 0x100000
    337c:	e2833001 	add	r3, r3, #1
    3380:	0afffffb 	beq	3374 <__ieee754_sqrt+0x1b8>
    3384:	e2631001 	rsb	r1, r3, #1
    3388:	e2630020 	rsb	r0, r3, #32
    338c:	e18cc038 	orr	r12, r12, r8, lsr r0
    3390:	e0822001 	add	r2, r2, r1
    3394:	e1a08318 	lsl	r8, r8, r3
    3398:	eaffff98 	b	3200 <__ieee754_sqrt+0x44>
    339c:	eb0001d1 	bl	3ae8 <__aeabi_dmul>
    33a0:	e1a02000 	mov	r2, r0
    33a4:	e1a03001 	mov	r3, r1
    33a8:	e1a00004 	mov	r0, r4
    33ac:	e1a01005 	mov	r1, r5
    33b0:	eb0000c8 	bl	36d8 <__adddf3>
    33b4:	e1a04000 	mov	r4, r0
    33b8:	e1a05001 	mov	r5, r1
    33bc:	eaffffd4 	b	3314 <__ieee754_sqrt+0x158>
    33c0:	e3a00020 	mov	r0, #32
    33c4:	e3a01001 	mov	r1, #1
    33c8:	e3a03000 	mov	r3, #0
    33cc:	eaffffee 	b	338c <__ieee754_sqrt+0x1d0>
    33d0:	e1a02000 	mov	r2, r0
    33d4:	e1a03001 	mov	r3, r1
    33d8:	eb0000bd 	bl	36d4 <__aeabi_dsub>
    33dc:	e1a02000 	mov	r2, r0
    33e0:	e1a03001 	mov	r3, r1
    33e4:	eb000263 	bl	3d78 <__aeabi_ddiv>
    33e8:	e1a04000 	mov	r4, r0
    33ec:	e1a05001 	mov	r5, r1
    33f0:	eaffffc7 	b	3314 <__ieee754_sqrt+0x158>
    33f4:	7ff00000 	.word	0x7ff00000

000033f8 <__fpclassifyd>:
    33f8:	e1902001 	orrs	r2, r0, r1
    33fc:	1a000001 	bne	3408 <__fpclassifyd+0x10>
    3400:	e3a00002 	mov	r0, #2
    3404:	e12fff1e 	bx	lr
    3408:	e2702001 	rsbs	r2, r0, #1
    340c:	33a02000 	movcc	r2, #0
    3410:	e3510102 	cmp	r1, #-2147483648	; 0x80000000
    3414:	03500000 	cmpeq	r0, #0
    3418:	0afffff8 	beq	3400 <__fpclassifyd+0x8>
    341c:	e3c13102 	bic	r3, r1, #-2147483648	; 0x80000000
    3420:	e59f1034 	ldr	r1, [pc, #52]	; 345c <__fpclassifyd+0x64>
    3424:	e2430601 	sub	r0, r3, #1048576	; 0x100000
    3428:	e1500001 	cmp	r0, r1
    342c:	8a000001 	bhi	3438 <__fpclassifyd+0x40>
    3430:	e3a00004 	mov	r0, #4
    3434:	e12fff1e 	bx	lr
    3438:	e3530601 	cmp	r3, #1048576	; 0x100000
    343c:	2a000001 	bcs	3448 <__fpclassifyd+0x50>
    3440:	e3a00003 	mov	r0, #3
    3444:	e12fff1e 	bx	lr
    3448:	e59f0010 	ldr	r0, [pc, #16]	; 3460 <__fpclassifyd+0x68>
    344c:	e1530000 	cmp	r3, r0
    3450:	13a00000 	movne	r0, #0
    3454:	02020001 	andeq	r0, r2, #1
    3458:	e12fff1e 	bx	lr
    345c:	7fdfffff 	.word	0x7fdfffff
    3460:	7ff00000 	.word	0x7ff00000

00003464 <matherr>:
    3464:	e3a00000 	mov	r0, #0
    3468:	e12fff1e 	bx	lr

0000346c <__aeabi_uidiv>:
    346c:	e2512001 	subs	r2, r1, #1
    3470:	012fff1e 	bxeq	lr
    3474:	3a000036 	bcc	3554 <__aeabi_uidiv+0xe8>
    3478:	e1500001 	cmp	r0, r1
    347c:	9a000022 	bls	350c <__aeabi_uidiv+0xa0>
    3480:	e1110002 	tst	r1, r2
    3484:	0a000023 	beq	3518 <__aeabi_uidiv+0xac>
    3488:	e311020e 	tst	r1, #-536870912	; 0xe0000000
    348c:	01a01181 	lsleq	r1, r1, #3
    3490:	03a03008 	moveq	r3, #8
    3494:	13a03001 	movne	r3, #1
    3498:	e3510201 	cmp	r1, #268435456	; 0x10000000
    349c:	31510000 	cmpcc	r1, r0
    34a0:	31a01201 	lslcc	r1, r1, #4
    34a4:	31a03203 	lslcc	r3, r3, #4
    34a8:	3afffffa 	bcc	3498 <__aeabi_uidiv+0x2c>
    34ac:	e3510102 	cmp	r1, #-2147483648	; 0x80000000
    34b0:	31510000 	cmpcc	r1, r0
    34b4:	31a01081 	lslcc	r1, r1, #1
    34b8:	31a03083 	lslcc	r3, r3, #1
    34bc:	3afffffa 	bcc	34ac <__aeabi_uidiv+0x40>
    34c0:	e3a02000 	mov	r2, #0
    34c4:	e1500001 	cmp	r0, r1
    34c8:	20400001 	subcs	r0, r0, r1
    34cc:	21822003 	orrcs	r2, r2, r3
    34d0:	e15000a1 	cmp	r0, r1, lsr #1
    34d4:	204000a1 	subcs	r0, r0, r1, lsr #1
    34d8:	218220a3 	orrcs	r2, r2, r3, lsr #1
    34dc:	e1500121 	cmp	r0, r1, lsr #2
    34e0:	20400121 	subcs	r0, r0, r1, lsr #2
    34e4:	21822123 	orrcs	r2, r2, r3, lsr #2
    34e8:	e15001a1 	cmp	r0, r1, lsr #3
    34ec:	204001a1 	subcs	r0, r0, r1, lsr #3
    34f0:	218221a3 	orrcs	r2, r2, r3, lsr #3
    34f4:	e3500000 	cmp	r0, #0
    34f8:	11b03223 	lsrsne	r3, r3, #4
    34fc:	11a01221 	lsrne	r1, r1, #4
    3500:	1affffef 	bne	34c4 <__aeabi_uidiv+0x58>
    3504:	e1a00002 	mov	r0, r2
    3508:	e12fff1e 	bx	lr
    350c:	03a00001 	moveq	r0, #1
    3510:	13a00000 	movne	r0, #0
    3514:	e12fff1e 	bx	lr
    3518:	e3510801 	cmp	r1, #65536	; 0x10000
    351c:	21a01821 	lsrcs	r1, r1, #16
    3520:	23a02010 	movcs	r2, #16
    3524:	33a02000 	movcc	r2, #0
    3528:	e3510c01 	cmp	r1, #256	; 0x100
    352c:	21a01421 	lsrcs	r1, r1, #8
    3530:	22822008 	addcs	r2, r2, #8
    3534:	e3510010 	cmp	r1, #16
    3538:	21a01221 	lsrcs	r1, r1, #4
    353c:	22822004 	addcs	r2, r2, #4
    3540:	e3510004 	cmp	r1, #4
    3544:	82822003 	addhi	r2, r2, #3
    3548:	908220a1 	addls	r2, r2, r1, lsr #1
    354c:	e1a00230 	lsr	r0, r0, r2
    3550:	e12fff1e 	bx	lr
    3554:	e3500000 	cmp	r0, #0
    3558:	13e00000 	mvnne	r0, #0
    355c:	ea000059 	b	36c8 <__aeabi_idiv0>

00003560 <__aeabi_uidivmod>:
    3560:	e3510000 	cmp	r1, #0
    3564:	0afffffa 	beq	3554 <__aeabi_uidiv+0xe8>
    3568:	e92d4003 	push	{r0, r1, lr}
    356c:	ebffffbe 	bl	346c <__aeabi_uidiv>
    3570:	e8bd4006 	pop	{r1, r2, lr}
    3574:	e0030092 	mul	r3, r2, r0
    3578:	e0411003 	sub	r1, r1, r3
    357c:	e12fff1e 	bx	lr

00003580 <__aeabi_idiv>:
    3580:	e3510000 	cmp	r1, #0
    3584:	0a000043 	beq	3698 <.divsi3_skip_div0_test+0x110>

00003588 <.divsi3_skip_div0_test>:
    3588:	e020c001 	eor	r12, r0, r1
    358c:	42611000 	rsbmi	r1, r1, #0
    3590:	e2512001 	subs	r2, r1, #1
    3594:	0a000027 	beq	3638 <.divsi3_skip_div0_test+0xb0>
    3598:	e1b03000 	movs	r3, r0
    359c:	42603000 	rsbmi	r3, r0, #0
    35a0:	e1530001 	cmp	r3, r1
    35a4:	9a000026 	bls	3644 <.divsi3_skip_div0_test+0xbc>
    35a8:	e1110002 	tst	r1, r2
    35ac:	0a000028 	beq	3654 <.divsi3_skip_div0_test+0xcc>
    35b0:	e311020e 	tst	r1, #-536870912	; 0xe0000000
    35b4:	01a01181 	lsleq	r1, r1, #3
    35b8:	03a02008 	moveq	r2, #8
    35bc:	13a02001 	movne	r2, #1
    35c0:	e3510201 	cmp	r1, #268435456	; 0x10000000
    35c4:	31510003 	cmpcc	r1, r3
    35c8:	31a01201 	lslcc	r1, r1, #4
    35cc:	31a02202 	lslcc	r2, r2, #4
    35d0:	3afffffa 	bcc	35c0 <.divsi3_skip_div0_test+0x38>
    35d4:	e3510102 	cmp	r1, #-2147483648	; 0x80000000
    35d8:	31510003 	cmpcc	r1, r3
    35dc:	31a01081 	lslcc	r1, r1, #1
    35e0:	31a02082 	lslcc	r2, r2, #1
    35e4:	3afffffa 	bcc	35d4 <.divsi3_skip_div0_test+0x4c>
    35e8:	e3a00000 	mov	r0, #0
    35ec:	e1530001 	cmp	r3, r1
    35f0:	20433001 	subcs	r3, r3, r1
    35f4:	21800002 	orrcs	r0, r0, r2
    35f8:	e15300a1 	cmp	r3, r1, lsr #1
    35fc:	204330a1 	subcs	r3, r3, r1, lsr #1
    3600:	218000a2 	orrcs	r0, r0, r2, lsr #1
    3604:	e1530121 	cmp	r3, r1, lsr #2
    3608:	20433121 	subcs	r3, r3, r1, lsr #2
    360c:	21800122 	orrcs	r0, r0, r2, lsr #2
    3610:	e15301a1 	cmp	r3, r1, lsr #3
    3614:	204331a1 	subcs	r3, r3, r1, lsr #3
    3618:	218001a2 	orrcs	r0, r0, r2, lsr #3
    361c:	e3530000 	cmp	r3, #0
    3620:	11b02222 	lsrsne	r2, r2, #4
    3624:	11a01221 	lsrne	r1, r1, #4
    3628:	1affffef 	bne	35ec <.divsi3_skip_div0_test+0x64>
    362c:	e35c0000 	cmp	r12, #0
    3630:	42600000 	rsbmi	r0, r0, #0
    3634:	e12fff1e 	bx	lr
    3638:	e13c0000 	teq	r12, r0
    363c:	42600000 	rsbmi	r0, r0, #0
    3640:	e12fff1e 	bx	lr
    3644:	33a00000 	movcc	r0, #0
    3648:	01a00fcc 	asreq	r0, r12, #31
    364c:	03800001 	orreq	r0, r0, #1
    3650:	e12fff1e 	bx	lr
    3654:	e3510801 	cmp	r1, #65536	; 0x10000
    3658:	21a01821 	lsrcs	r1, r1, #16
    365c:	23a02010 	movcs	r2, #16
    3660:	33a02000 	movcc	r2, #0
    3664:	e3510c01 	cmp	r1, #256	; 0x100
    3668:	21a01421 	lsrcs	r1, r1, #8
    366c:	22822008 	addcs	r2, r2, #8
    3670:	e3510010 	cmp	r1, #16
    3674:	21a01221 	lsrcs	r1, r1, #4
    3678:	22822004 	addcs	r2, r2, #4
    367c:	e3510004 	cmp	r1, #4
    3680:	82822003 	addhi	r2, r2, #3
    3684:	908220a1 	addls	r2, r2, r1, lsr #1
    3688:	e35c0000 	cmp	r12, #0
    368c:	e1a00233 	lsr	r0, r3, r2
    3690:	42600000 	rsbmi	r0, r0, #0
    3694:	e12fff1e 	bx	lr
    3698:	e3500000 	cmp	r0, #0
    369c:	c3e00102 	mvngt	r0, #-2147483648	; 0x80000000
    36a0:	b3a00102 	movlt	r0, #-2147483648	; 0x80000000
    36a4:	ea000007 	b	36c8 <__aeabi_idiv0>

000036a8 <__aeabi_idivmod>:
    36a8:	e3510000 	cmp	r1, #0
    36ac:	0afffff9 	beq	3698 <.divsi3_skip_div0_test+0x110>
    36b0:	e92d4003 	push	{r0, r1, lr}
    36b4:	ebffffb3 	bl	3588 <.divsi3_skip_div0_test>
    36b8:	e8bd4006 	pop	{r1, r2, lr}
    36bc:	e0030092 	mul	r3, r2, r0
    36c0:	e0411003 	sub	r1, r1, r3
    36c4:	e12fff1e 	bx	lr

000036c8 <__aeabi_idiv0>:
    36c8:	e12fff1e 	bx	lr

000036cc <__aeabi_drsub>:
    36cc:	e2211102 	eor	r1, r1, #-2147483648	; 0x80000000
    36d0:	ea000000 	b	36d8 <__adddf3>

000036d4 <__aeabi_dsub>:
    36d4:	e2233102 	eor	r3, r3, #-2147483648	; 0x80000000

000036d8 <__adddf3>:
    36d8:	e92d4030 	push	{r4, r5, lr}
    36dc:	e1a04081 	lsl	r4, r1, #1
    36e0:	e1a05083 	lsl	r5, r3, #1
    36e4:	e1340005 	teq	r4, r5
    36e8:	01300002 	teqeq	r0, r2
    36ec:	1194c000 	orrsne	r12, r4, r0
    36f0:	1195c002 	orrsne	r12, r5, r2
    36f4:	11f0cac4 	mvnsne	r12, r4, asr #21
    36f8:	11f0cac5 	mvnsne	r12, r5, asr #21
    36fc:	0a00008c 	beq	3934 <__adddf3+0x25c>
    3700:	e1a04aa4 	lsr	r4, r4, #21
    3704:	e0745aa5 	rsbs	r5, r4, r5, lsr #21
    3708:	b2655000 	rsblt	r5, r5, #0
    370c:	da000006 	ble	372c <__adddf3+0x54>
    3710:	e0844005 	add	r4, r4, r5
    3714:	e0202002 	eor	r2, r0, r2
    3718:	e0213003 	eor	r3, r1, r3
    371c:	e0220000 	eor	r0, r2, r0
    3720:	e0231001 	eor	r1, r3, r1
    3724:	e0202002 	eor	r2, r0, r2
    3728:	e0213003 	eor	r3, r1, r3
    372c:	e3550036 	cmp	r5, #54	; 0x36
    3730:	88bd4030 	pophi	{r4, r5, lr}
    3734:	812fff1e 	bxhi	lr
    3738:	e3110102 	tst	r1, #-2147483648	; 0x80000000
    373c:	e1a01601 	lsl	r1, r1, #12
    3740:	e3a0c601 	mov	r12, #1048576	; 0x100000
    3744:	e18c1621 	orr	r1, r12, r1, lsr #12
    3748:	0a000001 	beq	3754 <__adddf3+0x7c>
    374c:	e2700000 	rsbs	r0, r0, #0
    3750:	e2e11000 	rsc	r1, r1, #0
    3754:	e3130102 	tst	r3, #-2147483648	; 0x80000000
    3758:	e1a03603 	lsl	r3, r3, #12
    375c:	e18c3623 	orr	r3, r12, r3, lsr #12
    3760:	0a000001 	beq	376c <__adddf3+0x94>
    3764:	e2722000 	rsbs	r2, r2, #0
    3768:	e2e33000 	rsc	r3, r3, #0
    376c:	e1340005 	teq	r4, r5
    3770:	0a000069 	beq	391c <__adddf3+0x244>
    3774:	e2444001 	sub	r4, r4, #1
    3778:	e275e020 	rsbs	lr, r5, #32
    377c:	ba000005 	blt	3798 <__adddf3+0xc0>
    3780:	e1a0ce12 	lsl	r12, r2, lr
    3784:	e0900532 	adds	r0, r0, r2, lsr r5
    3788:	e2a11000 	adc	r1, r1, #0
    378c:	e0900e13 	adds	r0, r0, r3, lsl lr
    3790:	e0b11553 	adcs	r1, r1, r3, asr r5
    3794:	ea000006 	b	37b4 <__adddf3+0xdc>
    3798:	e2455020 	sub	r5, r5, #32
    379c:	e28ee020 	add	lr, lr, #32
    37a0:	e3520001 	cmp	r2, #1
    37a4:	e1a0ce13 	lsl	r12, r3, lr
    37a8:	238cc002 	orrcs	r12, r12, #2
    37ac:	e0900553 	adds	r0, r0, r3, asr r5
    37b0:	e0b11fc3 	adcs	r1, r1, r3, asr #31
    37b4:	e2015102 	and	r5, r1, #-2147483648	; 0x80000000
    37b8:	5a000002 	bpl	37c8 <__adddf3+0xf0>
    37bc:	e27cc000 	rsbs	r12, r12, #0
    37c0:	e2f00000 	rscs	r0, r0, #0
    37c4:	e2e11000 	rsc	r1, r1, #0
    37c8:	e3510601 	cmp	r1, #1048576	; 0x100000
    37cc:	3a00000f 	bcc	3810 <__adddf3+0x138>
    37d0:	e3510602 	cmp	r1, #2097152	; 0x200000
    37d4:	3a000006 	bcc	37f4 <__adddf3+0x11c>
    37d8:	e1b010a1 	lsrs	r1, r1, #1
    37dc:	e1b00060 	rrxs	r0, r0
    37e0:	e1a0c06c 	rrx	r12, r12
    37e4:	e2844001 	add	r4, r4, #1
    37e8:	e1a02a84 	lsl	r2, r4, #21
    37ec:	e3720501 	cmn	r2, #4194304	; 0x400000
    37f0:	2a00006b 	bcs	39a4 <__adddf3+0x2cc>
    37f4:	e35c0102 	cmp	r12, #-2147483648	; 0x80000000
    37f8:	01b0c0a0 	lsrseq	r12, r0, #1
    37fc:	e2b00000 	adcs	r0, r0, #0
    3800:	e0a11a04 	adc	r1, r1, r4, lsl #20
    3804:	e1811005 	orr	r1, r1, r5
    3808:	e8bd4030 	pop	{r4, r5, lr}
    380c:	e12fff1e 	bx	lr
    3810:	e1b0c08c 	lsls	r12, r12, #1
    3814:	e0b00000 	adcs	r0, r0, r0
    3818:	e0a11001 	adc	r1, r1, r1
    381c:	e3110601 	tst	r1, #1048576	; 0x100000
    3820:	e2444001 	sub	r4, r4, #1
    3824:	1afffff2 	bne	37f4 <__adddf3+0x11c>
    3828:	e3310000 	teq	r1, #0
    382c:	13a03014 	movne	r3, #20
    3830:	03a03034 	moveq	r3, #52	; 0x34
    3834:	01a01000 	moveq	r1, r0
    3838:	03a00000 	moveq	r0, #0
    383c:	e1a02001 	mov	r2, r1
    3840:	e3520801 	cmp	r2, #65536	; 0x10000
    3844:	21a02822 	lsrcs	r2, r2, #16
    3848:	22433010 	subcs	r3, r3, #16
    384c:	e3520c01 	cmp	r2, #256	; 0x100
    3850:	21a02422 	lsrcs	r2, r2, #8
    3854:	22433008 	subcs	r3, r3, #8
    3858:	e3520010 	cmp	r2, #16
    385c:	21a02222 	lsrcs	r2, r2, #4
    3860:	22433004 	subcs	r3, r3, #4
    3864:	e3520004 	cmp	r2, #4
    3868:	22433002 	subcs	r3, r3, #2
    386c:	304330a2 	subcc	r3, r3, r2, lsr #1
    3870:	e04331a2 	sub	r3, r3, r2, lsr #3
    3874:	e2532020 	subs	r2, r3, #32
    3878:	aa000007 	bge	389c <__adddf3+0x1c4>
    387c:	e292200c 	adds	r2, r2, #12
    3880:	da000004 	ble	3898 <__adddf3+0x1c0>
    3884:	e282c014 	add	r12, r2, #20
    3888:	e262200c 	rsb	r2, r2, #12
    388c:	e1a00c11 	lsl	r0, r1, r12
    3890:	e1a01231 	lsr	r1, r1, r2
    3894:	ea000004 	b	38ac <__adddf3+0x1d4>
    3898:	e2822014 	add	r2, r2, #20
    389c:	d262c020 	rsble	r12, r2, #32
    38a0:	e1a01211 	lsl	r1, r1, r2
    38a4:	d1811c30 	orrle	r1, r1, r0, lsr r12
    38a8:	d1a00210 	lslle	r0, r0, r2
    38ac:	e0544003 	subs	r4, r4, r3
    38b0:	a0811a04 	addge	r1, r1, r4, lsl #20
    38b4:	a1811005 	orrge	r1, r1, r5
    38b8:	a8bd4030 	popge	{r4, r5, lr}
    38bc:	a12fff1e 	bxge	lr
    38c0:	e1e04004 	mvn	r4, r4
    38c4:	e254401f 	subs	r4, r4, #31
    38c8:	aa00000f 	bge	390c <__adddf3+0x234>
    38cc:	e294400c 	adds	r4, r4, #12
    38d0:	ca000006 	bgt	38f0 <__adddf3+0x218>
    38d4:	e2844014 	add	r4, r4, #20
    38d8:	e2642020 	rsb	r2, r4, #32
    38dc:	e1a00430 	lsr	r0, r0, r4
    38e0:	e1800211 	orr	r0, r0, r1, lsl r2
    38e4:	e1851431 	orr	r1, r5, r1, lsr r4
    38e8:	e8bd4030 	pop	{r4, r5, lr}
    38ec:	e12fff1e 	bx	lr
    38f0:	e264400c 	rsb	r4, r4, #12
    38f4:	e2642020 	rsb	r2, r4, #32
    38f8:	e1a00230 	lsr	r0, r0, r2
    38fc:	e1800411 	orr	r0, r0, r1, lsl r4
    3900:	e1a01005 	mov	r1, r5
    3904:	e8bd4030 	pop	{r4, r5, lr}
    3908:	e12fff1e 	bx	lr
    390c:	e1a00431 	lsr	r0, r1, r4
    3910:	e1a01005 	mov	r1, r5
    3914:	e8bd4030 	pop	{r4, r5, lr}
    3918:	e12fff1e 	bx	lr
    391c:	e3340000 	teq	r4, #0
    3920:	e2233601 	eor	r3, r3, #1048576	; 0x100000
    3924:	02211601 	eoreq	r1, r1, #1048576	; 0x100000
    3928:	02844001 	addeq	r4, r4, #1
    392c:	12455001 	subne	r5, r5, #1
    3930:	eaffff8f 	b	3774 <__adddf3+0x9c>
    3934:	e1f0cac4 	mvns	r12, r4, asr #21
    3938:	11f0cac5 	mvnsne	r12, r5, asr #21
    393c:	0a00001d 	beq	39b8 <__adddf3+0x2e0>
    3940:	e1340005 	teq	r4, r5
    3944:	01300002 	teqeq	r0, r2
    3948:	0a000004 	beq	3960 <__adddf3+0x288>
    394c:	e194c000 	orrs	r12, r4, r0
    3950:	01a01003 	moveq	r1, r3
    3954:	01a00002 	moveq	r0, r2
    3958:	e8bd4030 	pop	{r4, r5, lr}
    395c:	e12fff1e 	bx	lr
    3960:	e1310003 	teq	r1, r3
    3964:	13a01000 	movne	r1, #0
    3968:	13a00000 	movne	r0, #0
    396c:	18bd4030 	popne	{r4, r5, lr}
    3970:	112fff1e 	bxne	lr
    3974:	e1b0caa4 	lsrs	r12, r4, #21
    3978:	1a000004 	bne	3990 <__adddf3+0x2b8>
    397c:	e1b00080 	lsls	r0, r0, #1
    3980:	e0b11001 	adcs	r1, r1, r1
    3984:	23811102 	orrcs	r1, r1, #-2147483648	; 0x80000000
    3988:	e8bd4030 	pop	{r4, r5, lr}
    398c:	e12fff1e 	bx	lr
    3990:	e2944501 	adds	r4, r4, #4194304	; 0x400000
    3994:	32811601 	addcc	r1, r1, #1048576	; 0x100000
    3998:	38bd4030 	popcc	{r4, r5, lr}
    399c:	312fff1e 	bxcc	lr
    39a0:	e2015102 	and	r5, r1, #-2147483648	; 0x80000000
    39a4:	e385147f 	orr	r1, r5, #2130706432	; 0x7f000000
    39a8:	e381160f 	orr	r1, r1, #15728640	; 0xf00000
    39ac:	e3a00000 	mov	r0, #0
    39b0:	e8bd4030 	pop	{r4, r5, lr}
    39b4:	e12fff1e 	bx	lr
    39b8:	e1f0cac4 	mvns	r12, r4, asr #21
    39bc:	11a01003 	movne	r1, r3
    39c0:	11a00002 	movne	r0, r2
    39c4:	01f0cac5 	mvnseq	r12, r5, asr #21
    39c8:	11a03001 	movne	r3, r1
    39cc:	11a02000 	movne	r2, r0
    39d0:	e1904601 	orrs	r4, r0, r1, lsl #12
    39d4:	01925603 	orrseq	r5, r2, r3, lsl #12
    39d8:	01310003 	teqeq	r1, r3
    39dc:	13811702 	orrne	r1, r1, #524288	; 0x80000
    39e0:	e8bd4030 	pop	{r4, r5, lr}
    39e4:	e12fff1e 	bx	lr

000039e8 <__aeabi_ui2d>:
    39e8:	e3300000 	teq	r0, #0
    39ec:	03a01000 	moveq	r1, #0
    39f0:	012fff1e 	bxeq	lr
    39f4:	e92d4030 	push	{r4, r5, lr}
    39f8:	e3a04b01 	mov	r4, #1024	; 0x400
    39fc:	e2844032 	add	r4, r4, #50	; 0x32
    3a00:	e3a05000 	mov	r5, #0
    3a04:	e3a01000 	mov	r1, #0
    3a08:	eaffff86 	b	3828 <__adddf3+0x150>

00003a0c <__aeabi_i2d>:
    3a0c:	e3300000 	teq	r0, #0
    3a10:	03a01000 	moveq	r1, #0
    3a14:	012fff1e 	bxeq	lr
    3a18:	e92d4030 	push	{r4, r5, lr}
    3a1c:	e3a04b01 	mov	r4, #1024	; 0x400
    3a20:	e2844032 	add	r4, r4, #50	; 0x32
    3a24:	e2105102 	ands	r5, r0, #-2147483648	; 0x80000000
    3a28:	42600000 	rsbmi	r0, r0, #0
    3a2c:	e3a01000 	mov	r1, #0
    3a30:	eaffff7c 	b	3828 <__adddf3+0x150>

00003a34 <__aeabi_f2d>:
    3a34:	e1b02080 	lsls	r2, r0, #1
    3a38:	e1a011c2 	asr	r1, r2, #3
    3a3c:	e1a01061 	rrx	r1, r1
    3a40:	e1a00e02 	lsl	r0, r2, #28
    3a44:	121234ff 	andsne	r3, r2, #-16777216	; 0xff000000
    3a48:	133304ff 	teqne	r3, #-16777216	; 0xff000000
    3a4c:	1221130e 	eorne	r1, r1, #939524096	; 0x38000000
    3a50:	112fff1e 	bxne	lr
    3a54:	e3320000 	teq	r2, #0
    3a58:	133304ff 	teqne	r3, #-16777216	; 0xff000000
    3a5c:	012fff1e 	bxeq	lr
    3a60:	e92d4030 	push	{r4, r5, lr}
    3a64:	e3a04d0e 	mov	r4, #896	; 0x380
    3a68:	e2015102 	and	r5, r1, #-2147483648	; 0x80000000
    3a6c:	e3c11102 	bic	r1, r1, #-2147483648	; 0x80000000
    3a70:	eaffff6c 	b	3828 <__adddf3+0x150>

00003a74 <__aeabi_ul2d>:
    3a74:	e1902001 	orrs	r2, r0, r1
    3a78:	012fff1e 	bxeq	lr
    3a7c:	e92d4030 	push	{r4, r5, lr}
    3a80:	e3a05000 	mov	r5, #0
    3a84:	ea000006 	b	3aa4 <__aeabi_l2d+0x1c>

00003a88 <__aeabi_l2d>:
    3a88:	e1902001 	orrs	r2, r0, r1
    3a8c:	012fff1e 	bxeq	lr
    3a90:	e92d4030 	push	{r4, r5, lr}
    3a94:	e2115102 	ands	r5, r1, #-2147483648	; 0x80000000
    3a98:	5a000001 	bpl	3aa4 <__aeabi_l2d+0x1c>
    3a9c:	e2700000 	rsbs	r0, r0, #0
    3aa0:	e2e11000 	rsc	r1, r1, #0
    3aa4:	e3a04b01 	mov	r4, #1024	; 0x400
    3aa8:	e2844032 	add	r4, r4, #50	; 0x32
    3aac:	e1b0cb21 	lsrs	r12, r1, #22
    3ab0:	0affff44 	beq	37c8 <__adddf3+0xf0>
    3ab4:	e3a02003 	mov	r2, #3
    3ab8:	e1b0c1ac 	lsrs	r12, r12, #3
    3abc:	12822003 	addne	r2, r2, #3
    3ac0:	e1b0c1ac 	lsrs	r12, r12, #3
    3ac4:	12822003 	addne	r2, r2, #3
    3ac8:	e08221ac 	add	r2, r2, r12, lsr #3
    3acc:	e2623020 	rsb	r3, r2, #32
    3ad0:	e1a0c310 	lsl	r12, r0, r3
    3ad4:	e1a00230 	lsr	r0, r0, r2
    3ad8:	e1800311 	orr	r0, r0, r1, lsl r3
    3adc:	e1a01231 	lsr	r1, r1, r2
    3ae0:	e0844002 	add	r4, r4, r2
    3ae4:	eaffff37 	b	37c8 <__adddf3+0xf0>

00003ae8 <__aeabi_dmul>:
    3ae8:	e92d4070 	push	{r4, r5, r6, lr}
    3aec:	e3a0c0ff 	mov	r12, #255	; 0xff
    3af0:	e38ccc07 	orr	r12, r12, #1792	; 0x700
    3af4:	e01c4a21 	ands	r4, r12, r1, lsr #20
    3af8:	101c5a23 	andsne	r5, r12, r3, lsr #20
    3afc:	1134000c 	teqne	r4, r12
    3b00:	1135000c 	teqne	r5, r12
    3b04:	0b000075 	bleq	3ce0 <__aeabi_dmul+0x1f8>
    3b08:	e0844005 	add	r4, r4, r5
    3b0c:	e0216003 	eor	r6, r1, r3
    3b10:	e1c11a8c 	bic	r1, r1, r12, lsl #21
    3b14:	e1c33a8c 	bic	r3, r3, r12, lsl #21
    3b18:	e1905601 	orrs	r5, r0, r1, lsl #12
    3b1c:	11925603 	orrsne	r5, r2, r3, lsl #12
    3b20:	e3811601 	orr	r1, r1, #1048576	; 0x100000
    3b24:	e3833601 	orr	r3, r3, #1048576	; 0x100000
    3b28:	0a00001d 	beq	3ba4 <__aeabi_dmul+0xbc>
    3b2c:	e08ec290 	umull	r12, lr, r0, r2
    3b30:	e3a05000 	mov	r5, #0
    3b34:	e0a5e291 	umlal	lr, r5, r1, r2
    3b38:	e2062102 	and	r2, r6, #-2147483648	; 0x80000000
    3b3c:	e0a5e390 	umlal	lr, r5, r0, r3
    3b40:	e3a06000 	mov	r6, #0
    3b44:	e0a65391 	umlal	r5, r6, r1, r3
    3b48:	e33c0000 	teq	r12, #0
    3b4c:	138ee001 	orrne	lr, lr, #1
    3b50:	e24440ff 	sub	r4, r4, #255	; 0xff
    3b54:	e3560c02 	cmp	r6, #512	; 0x200
    3b58:	e2c44c03 	sbc	r4, r4, #768	; 0x300
    3b5c:	2a000002 	bcs	3b6c <__aeabi_dmul+0x84>
    3b60:	e1b0e08e 	lsls	lr, lr, #1
    3b64:	e0b55005 	adcs	r5, r5, r5
    3b68:	e0a66006 	adc	r6, r6, r6
    3b6c:	e1821586 	orr	r1, r2, r6, lsl #11
    3b70:	e1811aa5 	orr	r1, r1, r5, lsr #21
    3b74:	e1a00585 	lsl	r0, r5, #11
    3b78:	e1800aae 	orr	r0, r0, lr, lsr #21
    3b7c:	e1a0e58e 	lsl	lr, lr, #11
    3b80:	e254c0fd 	subs	r12, r4, #253	; 0xfd
    3b84:	835c0c07 	cmphi	r12, #1792	; 0x700
    3b88:	8a000011 	bhi	3bd4 <__aeabi_dmul+0xec>
    3b8c:	e35e0102 	cmp	lr, #-2147483648	; 0x80000000
    3b90:	01b0e0a0 	lsrseq	lr, r0, #1
    3b94:	e2b00000 	adcs	r0, r0, #0
    3b98:	e0a11a04 	adc	r1, r1, r4, lsl #20
    3b9c:	e8bd4070 	pop	{r4, r5, r6, lr}
    3ba0:	e12fff1e 	bx	lr
    3ba4:	e2066102 	and	r6, r6, #-2147483648	; 0x80000000
    3ba8:	e1861001 	orr	r1, r6, r1
    3bac:	e1800002 	orr	r0, r0, r2
    3bb0:	e0211003 	eor	r1, r1, r3
    3bb4:	e05440ac 	subs	r4, r4, r12, lsr #1
    3bb8:	c074500c 	rsbsgt	r5, r4, r12
    3bbc:	c1811a04 	orrgt	r1, r1, r4, lsl #20
    3bc0:	c8bd4070 	popgt	{r4, r5, r6, lr}
    3bc4:	c12fff1e 	bxgt	lr
    3bc8:	e3811601 	orr	r1, r1, #1048576	; 0x100000
    3bcc:	e3a0e000 	mov	lr, #0
    3bd0:	e2544001 	subs	r4, r4, #1
    3bd4:	ca00005d 	bgt	3d50 <__aeabi_dmul+0x268>
    3bd8:	e3740036 	cmn	r4, #54	; 0x36
    3bdc:	d3a00000 	movle	r0, #0
    3be0:	d2011102 	andle	r1, r1, #-2147483648	; 0x80000000
    3be4:	d8bd4070 	pople	{r4, r5, r6, lr}
    3be8:	d12fff1e 	bxle	lr
    3bec:	e2644000 	rsb	r4, r4, #0
    3bf0:	e2544020 	subs	r4, r4, #32
    3bf4:	aa00001a 	bge	3c64 <__aeabi_dmul+0x17c>
    3bf8:	e294400c 	adds	r4, r4, #12
    3bfc:	ca00000c 	bgt	3c34 <__aeabi_dmul+0x14c>
    3c00:	e2844014 	add	r4, r4, #20
    3c04:	e2645020 	rsb	r5, r4, #32
    3c08:	e1a03510 	lsl	r3, r0, r5
    3c0c:	e1a00430 	lsr	r0, r0, r4
    3c10:	e1800511 	orr	r0, r0, r1, lsl r5
    3c14:	e2012102 	and	r2, r1, #-2147483648	; 0x80000000
    3c18:	e3c11102 	bic	r1, r1, #-2147483648	; 0x80000000
    3c1c:	e0900fa3 	adds	r0, r0, r3, lsr #31
    3c20:	e0a21431 	adc	r1, r2, r1, lsr r4
    3c24:	e19ee083 	orrs	lr, lr, r3, lsl #1
    3c28:	01c00fa3 	biceq	r0, r0, r3, lsr #31
    3c2c:	e8bd4070 	pop	{r4, r5, r6, lr}
    3c30:	e12fff1e 	bx	lr
    3c34:	e264400c 	rsb	r4, r4, #12
    3c38:	e2645020 	rsb	r5, r4, #32
    3c3c:	e1a03410 	lsl	r3, r0, r4
    3c40:	e1a00530 	lsr	r0, r0, r5
    3c44:	e1800411 	orr	r0, r0, r1, lsl r4
    3c48:	e2011102 	and	r1, r1, #-2147483648	; 0x80000000
    3c4c:	e0900fa3 	adds	r0, r0, r3, lsr #31
    3c50:	e2a11000 	adc	r1, r1, #0
    3c54:	e19ee083 	orrs	lr, lr, r3, lsl #1
    3c58:	01c00fa3 	biceq	r0, r0, r3, lsr #31
    3c5c:	e8bd4070 	pop	{r4, r5, r6, lr}
    3c60:	e12fff1e 	bx	lr
    3c64:	e2645020 	rsb	r5, r4, #32
    3c68:	e18ee510 	orr	lr, lr, r0, lsl r5
    3c6c:	e1a03430 	lsr	r3, r0, r4
    3c70:	e1833511 	orr	r3, r3, r1, lsl r5
    3c74:	e1a00431 	lsr	r0, r1, r4
    3c78:	e2011102 	and	r1, r1, #-2147483648	; 0x80000000
    3c7c:	e1c00431 	bic	r0, r0, r1, lsr r4
    3c80:	e0800fa3 	add	r0, r0, r3, lsr #31
    3c84:	e19ee083 	orrs	lr, lr, r3, lsl #1
    3c88:	01c00fa3 	biceq	r0, r0, r3, lsr #31
    3c8c:	e8bd4070 	pop	{r4, r5, r6, lr}
    3c90:	e12fff1e 	bx	lr
    3c94:	e3340000 	teq	r4, #0
    3c98:	1a000008 	bne	3cc0 <__aeabi_dmul+0x1d8>
    3c9c:	e2016102 	and	r6, r1, #-2147483648	; 0x80000000
    3ca0:	e1b00080 	lsls	r0, r0, #1
    3ca4:	e0a11001 	adc	r1, r1, r1
    3ca8:	e3110601 	tst	r1, #1048576	; 0x100000
    3cac:	02444001 	subeq	r4, r4, #1
    3cb0:	0afffffa 	beq	3ca0 <__aeabi_dmul+0x1b8>
    3cb4:	e1811006 	orr	r1, r1, r6
    3cb8:	e3350000 	teq	r5, #0
    3cbc:	112fff1e 	bxne	lr
    3cc0:	e2036102 	and	r6, r3, #-2147483648	; 0x80000000
    3cc4:	e1b02082 	lsls	r2, r2, #1
    3cc8:	e0a33003 	adc	r3, r3, r3
    3ccc:	e3130601 	tst	r3, #1048576	; 0x100000
    3cd0:	02455001 	subeq	r5, r5, #1
    3cd4:	0afffffa 	beq	3cc4 <__aeabi_dmul+0x1dc>
    3cd8:	e1833006 	orr	r3, r3, r6
    3cdc:	e12fff1e 	bx	lr
    3ce0:	e134000c 	teq	r4, r12
    3ce4:	e00c5a23 	and	r5, r12, r3, lsr #20
    3ce8:	1135000c 	teqne	r5, r12
    3cec:	0a000007 	beq	3d10 <__aeabi_dmul+0x228>
    3cf0:	e1906081 	orrs	r6, r0, r1, lsl #1
    3cf4:	11926083 	orrsne	r6, r2, r3, lsl #1
    3cf8:	1affffe5 	bne	3c94 <__aeabi_dmul+0x1ac>
    3cfc:	e0211003 	eor	r1, r1, r3
    3d00:	e2011102 	and	r1, r1, #-2147483648	; 0x80000000
    3d04:	e3a00000 	mov	r0, #0
    3d08:	e8bd4070 	pop	{r4, r5, r6, lr}
    3d0c:	e12fff1e 	bx	lr
    3d10:	e1906081 	orrs	r6, r0, r1, lsl #1
    3d14:	01a00002 	moveq	r0, r2
    3d18:	01a01003 	moveq	r1, r3
    3d1c:	11926083 	orrsne	r6, r2, r3, lsl #1
    3d20:	0a000010 	beq	3d68 <__aeabi_dmul+0x280>
    3d24:	e134000c 	teq	r4, r12
    3d28:	1a000001 	bne	3d34 <__aeabi_dmul+0x24c>
    3d2c:	e1906601 	orrs	r6, r0, r1, lsl #12
    3d30:	1a00000c 	bne	3d68 <__aeabi_dmul+0x280>
    3d34:	e135000c 	teq	r5, r12
    3d38:	1a000003 	bne	3d4c <__aeabi_dmul+0x264>
    3d3c:	e1926603 	orrs	r6, r2, r3, lsl #12
    3d40:	11a00002 	movne	r0, r2
    3d44:	11a01003 	movne	r1, r3
    3d48:	1a000006 	bne	3d68 <__aeabi_dmul+0x280>
    3d4c:	e0211003 	eor	r1, r1, r3
    3d50:	e2011102 	and	r1, r1, #-2147483648	; 0x80000000
    3d54:	e381147f 	orr	r1, r1, #2130706432	; 0x7f000000
    3d58:	e381160f 	orr	r1, r1, #15728640	; 0xf00000
    3d5c:	e3a00000 	mov	r0, #0
    3d60:	e8bd4070 	pop	{r4, r5, r6, lr}
    3d64:	e12fff1e 	bx	lr
    3d68:	e381147f 	orr	r1, r1, #2130706432	; 0x7f000000
    3d6c:	e381173e 	orr	r1, r1, #16252928	; 0xf80000
    3d70:	e8bd4070 	pop	{r4, r5, r6, lr}
    3d74:	e12fff1e 	bx	lr

00003d78 <__aeabi_ddiv>:
    3d78:	e92d4070 	push	{r4, r5, r6, lr}
    3d7c:	e3a0c0ff 	mov	r12, #255	; 0xff
    3d80:	e38ccc07 	orr	r12, r12, #1792	; 0x700
    3d84:	e01c4a21 	ands	r4, r12, r1, lsr #20
    3d88:	101c5a23 	andsne	r5, r12, r3, lsr #20
    3d8c:	1134000c 	teqne	r4, r12
    3d90:	1135000c 	teqne	r5, r12
    3d94:	0b00005e 	bleq	3f14 <__aeabi_ddiv+0x19c>
    3d98:	e0444005 	sub	r4, r4, r5
    3d9c:	e021e003 	eor	lr, r1, r3
    3da0:	e1925603 	orrs	r5, r2, r3, lsl #12
    3da4:	e1a01601 	lsl	r1, r1, #12
    3da8:	0a00004c 	beq	3ee0 <__aeabi_ddiv+0x168>
    3dac:	e1a03603 	lsl	r3, r3, #12
    3db0:	e3a05201 	mov	r5, #268435456	; 0x10000000
    3db4:	e1853223 	orr	r3, r5, r3, lsr #4
    3db8:	e1833c22 	orr	r3, r3, r2, lsr #24
    3dbc:	e1a02402 	lsl	r2, r2, #8
    3dc0:	e1855221 	orr	r5, r5, r1, lsr #4
    3dc4:	e1855c20 	orr	r5, r5, r0, lsr #24
    3dc8:	e1a06400 	lsl	r6, r0, #8
    3dcc:	e20e1102 	and	r1, lr, #-2147483648	; 0x80000000
    3dd0:	e1550003 	cmp	r5, r3
    3dd4:	01560002 	cmpeq	r6, r2
    3dd8:	e2a440fd 	adc	r4, r4, #253	; 0xfd
    3ddc:	e2844c03 	add	r4, r4, #768	; 0x300
    3de0:	2a000001 	bcs	3dec <__aeabi_ddiv+0x74>
    3de4:	e1b030a3 	lsrs	r3, r3, #1
    3de8:	e1a02062 	rrx	r2, r2
    3dec:	e0566002 	subs	r6, r6, r2
    3df0:	e0c55003 	sbc	r5, r5, r3
    3df4:	e1b030a3 	lsrs	r3, r3, #1
    3df8:	e1a02062 	rrx	r2, r2
    3dfc:	e3a00601 	mov	r0, #1048576	; 0x100000
    3e00:	e3a0c702 	mov	r12, #524288	; 0x80000
    3e04:	e056e002 	subs	lr, r6, r2
    3e08:	e0d5e003 	sbcs	lr, r5, r3
    3e0c:	20466002 	subcs	r6, r6, r2
    3e10:	21a0500e 	movcs	r5, lr
    3e14:	2180000c 	orrcs	r0, r0, r12
    3e18:	e1b030a3 	lsrs	r3, r3, #1
    3e1c:	e1a02062 	rrx	r2, r2
    3e20:	e056e002 	subs	lr, r6, r2
    3e24:	e0d5e003 	sbcs	lr, r5, r3
    3e28:	20466002 	subcs	r6, r6, r2
    3e2c:	21a0500e 	movcs	r5, lr
    3e30:	218000ac 	orrcs	r0, r0, r12, lsr #1
    3e34:	e1b030a3 	lsrs	r3, r3, #1
    3e38:	e1a02062 	rrx	r2, r2
    3e3c:	e056e002 	subs	lr, r6, r2
    3e40:	e0d5e003 	sbcs	lr, r5, r3
    3e44:	20466002 	subcs	r6, r6, r2
    3e48:	21a0500e 	movcs	r5, lr
    3e4c:	2180012c 	orrcs	r0, r0, r12, lsr #2
    3e50:	e1b030a3 	lsrs	r3, r3, #1
    3e54:	e1a02062 	rrx	r2, r2
    3e58:	e056e002 	subs	lr, r6, r2
    3e5c:	e0d5e003 	sbcs	lr, r5, r3
    3e60:	20466002 	subcs	r6, r6, r2
    3e64:	21a0500e 	movcs	r5, lr
    3e68:	218001ac 	orrcs	r0, r0, r12, lsr #3
    3e6c:	e195e006 	orrs	lr, r5, r6
    3e70:	0a00000d 	beq	3eac <__aeabi_ddiv+0x134>
    3e74:	e1a05205 	lsl	r5, r5, #4
    3e78:	e1855e26 	orr	r5, r5, r6, lsr #28
    3e7c:	e1a06206 	lsl	r6, r6, #4
    3e80:	e1a03183 	lsl	r3, r3, #3
    3e84:	e1833ea2 	orr	r3, r3, r2, lsr #29
    3e88:	e1a02182 	lsl	r2, r2, #3
    3e8c:	e1b0c22c 	lsrs	r12, r12, #4
    3e90:	1affffdb 	bne	3e04 <__aeabi_ddiv+0x8c>
    3e94:	e3110601 	tst	r1, #1048576	; 0x100000
    3e98:	1a000006 	bne	3eb8 <__aeabi_ddiv+0x140>
    3e9c:	e1811000 	orr	r1, r1, r0
    3ea0:	e3a00000 	mov	r0, #0
    3ea4:	e3a0c102 	mov	r12, #-2147483648	; 0x80000000
    3ea8:	eaffffd5 	b	3e04 <__aeabi_ddiv+0x8c>
    3eac:	e3110601 	tst	r1, #1048576	; 0x100000
    3eb0:	01811000 	orreq	r1, r1, r0
    3eb4:	03a00000 	moveq	r0, #0
    3eb8:	e254c0fd 	subs	r12, r4, #253	; 0xfd
    3ebc:	835c0c07 	cmphi	r12, #1792	; 0x700
    3ec0:	8affff43 	bhi	3bd4 <__aeabi_dmul+0xec>
    3ec4:	e055c003 	subs	r12, r5, r3
    3ec8:	0056c002 	subseq	r12, r6, r2
    3ecc:	01b0c0a0 	lsrseq	r12, r0, #1
    3ed0:	e2b00000 	adcs	r0, r0, #0
    3ed4:	e0a11a04 	adc	r1, r1, r4, lsl #20
    3ed8:	e8bd4070 	pop	{r4, r5, r6, lr}
    3edc:	e12fff1e 	bx	lr
    3ee0:	e20ee102 	and	lr, lr, #-2147483648	; 0x80000000
    3ee4:	e18e1621 	orr	r1, lr, r1, lsr #12
    3ee8:	e09440ac 	adds	r4, r4, r12, lsr #1
    3eec:	c074500c 	rsbsgt	r5, r4, r12
    3ef0:	c1811a04 	orrgt	r1, r1, r4, lsl #20
    3ef4:	c8bd4070 	popgt	{r4, r5, r6, lr}
    3ef8:	c12fff1e 	bxgt	lr
    3efc:	e3811601 	orr	r1, r1, #1048576	; 0x100000
    3f00:	e3a0e000 	mov	lr, #0
    3f04:	e2544001 	subs	r4, r4, #1
    3f08:	eaffff31 	b	3bd4 <__aeabi_dmul+0xec>
    3f0c:	e185e006 	orr	lr, r5, r6
    3f10:	eaffff2f 	b	3bd4 <__aeabi_dmul+0xec>
    3f14:	e00c5a23 	and	r5, r12, r3, lsr #20
    3f18:	e134000c 	teq	r4, r12
    3f1c:	0135000c 	teqeq	r5, r12
    3f20:	0affff90 	beq	3d68 <__aeabi_dmul+0x280>
    3f24:	e134000c 	teq	r4, r12
    3f28:	1a000006 	bne	3f48 <__aeabi_ddiv+0x1d0>
    3f2c:	e1904601 	orrs	r4, r0, r1, lsl #12
    3f30:	1affff8c 	bne	3d68 <__aeabi_dmul+0x280>
    3f34:	e135000c 	teq	r5, r12
    3f38:	1affff83 	bne	3d4c <__aeabi_dmul+0x264>
    3f3c:	e1a00002 	mov	r0, r2
    3f40:	e1a01003 	mov	r1, r3
    3f44:	eaffff87 	b	3d68 <__aeabi_dmul+0x280>
    3f48:	e135000c 	teq	r5, r12
    3f4c:	1a000004 	bne	3f64 <__aeabi_ddiv+0x1ec>
    3f50:	e1925603 	orrs	r5, r2, r3, lsl #12
    3f54:	0affff68 	beq	3cfc <__aeabi_dmul+0x214>
    3f58:	e1a00002 	mov	r0, r2
    3f5c:	e1a01003 	mov	r1, r3
    3f60:	eaffff80 	b	3d68 <__aeabi_dmul+0x280>
    3f64:	e1906081 	orrs	r6, r0, r1, lsl #1
    3f68:	11926083 	orrsne	r6, r2, r3, lsl #1
    3f6c:	1affff48 	bne	3c94 <__aeabi_dmul+0x1ac>
    3f70:	e1904081 	orrs	r4, r0, r1, lsl #1
    3f74:	1affff74 	bne	3d4c <__aeabi_dmul+0x264>
    3f78:	e1925083 	orrs	r5, r2, r3, lsl #1
    3f7c:	1affff5e 	bne	3cfc <__aeabi_dmul+0x214>
    3f80:	eaffff78 	b	3d68 <__aeabi_dmul+0x280>

00003f84 <__gedf2>:
    3f84:	e3e0c000 	mvn	r12, #0
    3f88:	ea000002 	b	3f98 <__cmpdf2+0x4>

00003f8c <__ledf2>:
    3f8c:	e3a0c001 	mov	r12, #1
    3f90:	ea000000 	b	3f98 <__cmpdf2+0x4>

00003f94 <__cmpdf2>:
    3f94:	e3a0c001 	mov	r12, #1
    3f98:	e52dc004 	push	{r12}		; (str r12, [sp, #-4]!)
    3f9c:	e1a0c081 	lsl	r12, r1, #1
    3fa0:	e1f0cacc 	mvns	r12, r12, asr #21
    3fa4:	e1a0c083 	lsl	r12, r3, #1
    3fa8:	11f0cacc 	mvnsne	r12, r12, asr #21
    3fac:	0a00000e 	beq	3fec <__cmpdf2+0x58>
    3fb0:	e28dd004 	add	sp, sp, #4
    3fb4:	e190c081 	orrs	r12, r0, r1, lsl #1
    3fb8:	0192c083 	orrseq	r12, r2, r3, lsl #1
    3fbc:	11310003 	teqne	r1, r3
    3fc0:	01300002 	teqeq	r0, r2
    3fc4:	03a00000 	moveq	r0, #0
    3fc8:	012fff1e 	bxeq	lr
    3fcc:	e3700000 	cmn	r0, #0
    3fd0:	e1310003 	teq	r1, r3
    3fd4:	51510003 	cmppl	r1, r3
    3fd8:	01500002 	cmpeq	r0, r2
    3fdc:	21a00fc3 	asrcs	r0, r3, #31
    3fe0:	31e00fc3 	mvncc	r0, r3, asr #31
    3fe4:	e3800001 	orr	r0, r0, #1
    3fe8:	e12fff1e 	bx	lr
    3fec:	e1a0c081 	lsl	r12, r1, #1
    3ff0:	e1f0cacc 	mvns	r12, r12, asr #21
    3ff4:	1a000001 	bne	4000 <__cmpdf2+0x6c>
    3ff8:	e190c601 	orrs	r12, r0, r1, lsl #12
    3ffc:	1a000004 	bne	4014 <__cmpdf2+0x80>
    4000:	e1a0c083 	lsl	r12, r3, #1
    4004:	e1f0cacc 	mvns	r12, r12, asr #21
    4008:	1affffe8 	bne	3fb0 <__cmpdf2+0x1c>
    400c:	e192c603 	orrs	r12, r2, r3, lsl #12
    4010:	0affffe6 	beq	3fb0 <__cmpdf2+0x1c>
    4014:	e49d0004 	pop	{r0}		; (ldr r0, [sp], #4)
    4018:	e12fff1e 	bx	lr

0000401c <__aeabi_cdrcmple>:
    401c:	e1a0c000 	mov	r12, r0
    4020:	e1a00002 	mov	r0, r2
    4024:	e1a0200c 	mov	r2, r12
    4028:	e1a0c001 	mov	r12, r1
    402c:	e1a01003 	mov	r1, r3
    4030:	e1a0300c 	mov	r3, r12
    4034:	eaffffff 	b	4038 <__aeabi_cdcmpeq>

00004038 <__aeabi_cdcmpeq>:
    4038:	e92d4001 	push	{r0, lr}
    403c:	ebffffd4 	bl	3f94 <__cmpdf2>
    4040:	e3500000 	cmp	r0, #0
    4044:	43700000 	cmnmi	r0, #0
    4048:	e8bd4001 	pop	{r0, lr}
    404c:	e12fff1e 	bx	lr

00004050 <__aeabi_dcmpeq>:
    4050:	e52de008 	str	lr, [sp, #-8]!
    4054:	ebfffff7 	bl	4038 <__aeabi_cdcmpeq>
    4058:	03a00001 	moveq	r0, #1
    405c:	13a00000 	movne	r0, #0
    4060:	e49de008 	ldr	lr, [sp], #8
    4064:	e12fff1e 	bx	lr

00004068 <__aeabi_dcmplt>:
    4068:	e52de008 	str	lr, [sp, #-8]!
    406c:	ebfffff1 	bl	4038 <__aeabi_cdcmpeq>
    4070:	33a00001 	movcc	r0, #1
    4074:	23a00000 	movcs	r0, #0
    4078:	e49de008 	ldr	lr, [sp], #8
    407c:	e12fff1e 	bx	lr

00004080 <__aeabi_dcmple>:
    4080:	e52de008 	str	lr, [sp, #-8]!
    4084:	ebffffeb 	bl	4038 <__aeabi_cdcmpeq>
    4088:	93a00001 	movls	r0, #1
    408c:	83a00000 	movhi	r0, #0
    4090:	e49de008 	ldr	lr, [sp], #8
    4094:	e12fff1e 	bx	lr

00004098 <__aeabi_dcmpge>:
    4098:	e52de008 	str	lr, [sp, #-8]!
    409c:	ebffffde 	bl	401c <__aeabi_cdrcmple>
    40a0:	93a00001 	movls	r0, #1
    40a4:	83a00000 	movhi	r0, #0
    40a8:	e49de008 	ldr	lr, [sp], #8
    40ac:	e12fff1e 	bx	lr

000040b0 <__aeabi_dcmpgt>:
    40b0:	e52de008 	str	lr, [sp, #-8]!
    40b4:	ebffffd8 	bl	401c <__aeabi_cdrcmple>
    40b8:	33a00001 	movcc	r0, #1
    40bc:	23a00000 	movcs	r0, #0
    40c0:	e49de008 	ldr	lr, [sp], #8
    40c4:	e12fff1e 	bx	lr

000040c8 <__aeabi_d2iz>:
    40c8:	e1a02081 	lsl	r2, r1, #1
    40cc:	e2922602 	adds	r2, r2, #2097152	; 0x200000
    40d0:	2a00000c 	bcs	4108 <__aeabi_d2iz+0x40>
    40d4:	5a000009 	bpl	4100 <__aeabi_d2iz+0x38>
    40d8:	e3e03e3e 	mvn	r3, #992	; 0x3e0
    40dc:	e0532ac2 	subs	r2, r3, r2, asr #21
    40e0:	9a00000a 	bls	4110 <__aeabi_d2iz+0x48>
    40e4:	e1a03581 	lsl	r3, r1, #11
    40e8:	e3833102 	orr	r3, r3, #-2147483648	; 0x80000000
    40ec:	e1833aa0 	orr	r3, r3, r0, lsr #21
    40f0:	e3110102 	tst	r1, #-2147483648	; 0x80000000
    40f4:	e1a00233 	lsr	r0, r3, r2
    40f8:	12600000 	rsbne	r0, r0, #0
    40fc:	e12fff1e 	bx	lr
    4100:	e3a00000 	mov	r0, #0
    4104:	e12fff1e 	bx	lr
    4108:	e1900601 	orrs	r0, r0, r1, lsl #12
    410c:	1a000002 	bne	411c <__aeabi_d2iz+0x54>
    4110:	e2110102 	ands	r0, r1, #-2147483648	; 0x80000000
    4114:	03e00102 	mvneq	r0, #-2147483648	; 0x80000000
    4118:	e12fff1e 	bx	lr
    411c:	e3a00000 	mov	r0, #0
    4120:	e12fff1e 	bx	lr

00004124 <atexit>:
    4124:	e1a01000 	mov	r1, r0
    4128:	e3a00000 	mov	r0, #0
    412c:	e92d4008 	push	{r3, lr}
    4130:	e1a02000 	mov	r2, r0
    4134:	e1a03000 	mov	r3, r0
    4138:	eb000095 	bl	4394 <__register_exitproc>
    413c:	e8bd4008 	pop	{r3, lr}
    4140:	e12fff1e 	bx	lr

00004144 <__errno>:
    4144:	e59f3004 	ldr	r3, [pc, #4]	; 4150 <__errno+0xc>
    4148:	e5930000 	ldr	r0, [r3]
    414c:	e12fff1e 	bx	lr
    4150:	00006a40 	.word	0x00006a40

00004154 <exit>:
    4154:	e92d4008 	push	{r3, lr}
    4158:	e3a01000 	mov	r1, #0
    415c:	e1a04000 	mov	r4, r0
    4160:	eb0000c8 	bl	4488 <__call_exitprocs>
    4164:	e59f3018 	ldr	r3, [pc, #24]	; 4184 <exit+0x30>
    4168:	e5930000 	ldr	r0, [r3]
    416c:	e590303c 	ldr	r3, [r0, #60]	; 0x3c
    4170:	e3530000 	cmp	r3, #0
    4174:	11a0e00f 	movne	lr, pc
    4178:	112fff13 	bxne	r3
    417c:	e1a00004 	mov	r0, r4
    4180:	eb00014c 	bl	46b8 <_exit>
    4184:	00006980 	.word	0x00006980

00004188 <memset>:
    4188:	e3520003 	cmp	r2, #3
    418c:	e52d4004 	push	{r4}		; (str r4, [sp, #-4]!)
    4190:	e20110ff 	and	r1, r1, #255	; 0xff
    4194:	8a000008 	bhi	41bc <memset+0x34>
    4198:	e3520000 	cmp	r2, #0
    419c:	0a000004 	beq	41b4 <memset+0x2c>
    41a0:	e1a03000 	mov	r3, r0
    41a4:	e0822000 	add	r2, r2, r0
    41a8:	e4c31001 	strb	r1, [r3], #1
    41ac:	e1530002 	cmp	r3, r2
    41b0:	1afffffc 	bne	41a8 <memset+0x20>
    41b4:	e8bd0010 	ldmfd	sp!, {r4}
    41b8:	e12fff1e 	bx	lr
    41bc:	e3100003 	tst	r0, #3
    41c0:	e0802002 	add	r2, r0, r2
    41c4:	0a000007 	beq	41e8 <memset+0x60>
    41c8:	e280c001 	add	r12, r0, #1
    41cc:	e20c3003 	and	r3, r12, #3
    41d0:	e3530000 	cmp	r3, #0
    41d4:	e54c1001 	strb	r1, [r12, #-1]
    41d8:	e1a0300c 	mov	r3, r12
    41dc:	e28cc001 	add	r12, r12, #1
    41e0:	1afffff9 	bne	41cc <memset+0x44>
    41e4:	ea000000 	b	41ec <memset+0x64>
    41e8:	e1a03000 	mov	r3, r0
    41ec:	e0634002 	rsb	r4, r3, r2
    41f0:	e081c401 	add	r12, r1, r1, lsl #8
    41f4:	e354003f 	cmp	r4, #63	; 0x3f
    41f8:	e08cc80c 	add	r12, r12, r12, lsl #16
    41fc:	da00001a 	ble	426c <memset+0xe4>
    4200:	e583c000 	str	r12, [r3]
    4204:	e583c004 	str	r12, [r3, #4]
    4208:	e583c008 	str	r12, [r3, #8]
    420c:	e583c00c 	str	r12, [r3, #12]
    4210:	e583c010 	str	r12, [r3, #16]
    4214:	e583c014 	str	r12, [r3, #20]
    4218:	e583c018 	str	r12, [r3, #24]
    421c:	e583c01c 	str	r12, [r3, #28]
    4220:	e583c020 	str	r12, [r3, #32]
    4224:	e583c024 	str	r12, [r3, #36]	; 0x24
    4228:	e583c028 	str	r12, [r3, #40]	; 0x28
    422c:	e583c02c 	str	r12, [r3, #44]	; 0x2c
    4230:	e583c030 	str	r12, [r3, #48]	; 0x30
    4234:	e583c034 	str	r12, [r3, #52]	; 0x34
    4238:	e583c038 	str	r12, [r3, #56]	; 0x38
    423c:	e583c03c 	str	r12, [r3, #60]	; 0x3c
    4240:	e2833040 	add	r3, r3, #64	; 0x40
    4244:	e0634002 	rsb	r4, r3, r2
    4248:	e354003f 	cmp	r4, #63	; 0x3f
    424c:	caffffeb 	bgt	4200 <memset+0x78>
    4250:	ea000005 	b	426c <memset+0xe4>
    4254:	e583c000 	str	r12, [r3]
    4258:	e583c004 	str	r12, [r3, #4]
    425c:	e583c008 	str	r12, [r3, #8]
    4260:	e583c00c 	str	r12, [r3, #12]
    4264:	e2833010 	add	r3, r3, #16
    4268:	e0634002 	rsb	r4, r3, r2
    426c:	e354000f 	cmp	r4, #15
    4270:	cafffff7 	bgt	4254 <memset+0xcc>
    4274:	e3540003 	cmp	r4, #3
    4278:	da000006 	ble	4298 <memset+0x110>
    427c:	e2834004 	add	r4, r3, #4
    4280:	e0643002 	rsb	r3, r4, r2
    4284:	e3530003 	cmp	r3, #3
    4288:	e504c004 	str	r12, [r4, #-4]
    428c:	e1a03004 	mov	r3, r4
    4290:	e2844004 	add	r4, r4, #4
    4294:	cafffff9 	bgt	4280 <memset+0xf8>
    4298:	e1520003 	cmp	r2, r3
    429c:	9affffc4 	bls	41b4 <memset+0x2c>
    42a0:	e2833001 	add	r3, r3, #1
    42a4:	e2822001 	add	r2, r2, #1
    42a8:	e5431001 	strb	r1, [r3, #-1]
    42ac:	e2833001 	add	r3, r3, #1
    42b0:	e1530002 	cmp	r3, r2
    42b4:	1afffffb 	bne	42a8 <memset+0x120>
    42b8:	eaffffbd 	b	41b4 <memset+0x2c>

000042bc <srand>:
    42bc:	e59f3010 	ldr	r3, [pc, #16]	; 42d4 <srand+0x18>
    42c0:	e5933000 	ldr	r3, [r3]
    42c4:	e3a02000 	mov	r2, #0
    42c8:	e58300a8 	str	r0, [r3, #168]	; 0xa8
    42cc:	e58320ac 	str	r2, [r3, #172]	; 0xac
    42d0:	e12fff1e 	bx	lr
    42d4:	00006a40 	.word	0x00006a40

000042d8 <rand>:
    42d8:	e52d4004 	push	{r4}		; (str r4, [sp, #-4]!)
    42dc:	e59f3044 	ldr	r3, [pc, #68]	; 4328 <rand+0x50>
    42e0:	e593c000 	ldr	r12, [r3]
    42e4:	e59f4040 	ldr	r4, [pc, #64]	; 432c <rand+0x54>
    42e8:	e59c20a8 	ldr	r2, [r12, #168]	; 0xa8
    42ec:	e0040492 	mul	r4, r2, r4
    42f0:	e59c10ac 	ldr	r1, [r12, #172]	; 0xac
    42f4:	e59f3034 	ldr	r3, [pc, #52]	; 4330 <rand+0x58>
    42f8:	e0244193 	mla	r4, r3, r1, r4
    42fc:	e0810392 	umull	r0, r1, r2, r3
    4300:	e3a02001 	mov	r2, #1
    4304:	e0922000 	adds	r2, r2, r0
    4308:	e0841001 	add	r1, r4, r1
    430c:	e3a03000 	mov	r3, #0
    4310:	e0a33001 	adc	r3, r3, r1
    4314:	e58c20a8 	str	r2, [r12, #168]	; 0xa8
    4318:	e58c30ac 	str	r3, [r12, #172]	; 0xac
    431c:	e3c30102 	bic	r0, r3, #-2147483648	; 0x80000000
    4320:	e8bd0010 	ldmfd	sp!, {r4}
    4324:	e12fff1e 	bx	lr
    4328:	00006a40 	.word	0x00006a40
    432c:	5851f42d 	.word	0x5851f42d
    4330:	4c957f2d 	.word	0x4c957f2d

00004334 <strlen>:
    4334:	e3c01003 	bic	r1, r0, #3
    4338:	e2100003 	ands	r0, r0, #3
    433c:	e2600000 	rsb	r0, r0, #0
    4340:	e4913004 	ldr	r3, [r1], #4
    4344:	e280c004 	add	r12, r0, #4
    4348:	e1a0c18c 	lsl	r12, r12, #3
    434c:	e3e02000 	mvn	r2, #0
    4350:	11833c32 	orrne	r3, r3, r2, lsr r12
    4354:	e3a0c001 	mov	r12, #1
    4358:	e18cc40c 	orr	r12, r12, r12, lsl #8
    435c:	e18cc80c 	orr	r12, r12, r12, lsl #16
    4360:	e043200c 	sub	r2, r3, r12
    4364:	e1c22003 	bic	r2, r2, r3
    4368:	e012238c 	ands	r2, r2, r12, lsl #7
    436c:	04913004 	ldreq	r3, [r1], #4
    4370:	02800004 	addeq	r0, r0, #4
    4374:	0afffff9 	beq	4360 <strlen+0x2c>
    4378:	e31300ff 	tst	r3, #255	; 0xff
    437c:	12800001 	addne	r0, r0, #1
    4380:	13130cff 	tstne	r3, #65280	; 0xff00
    4384:	12800001 	addne	r0, r0, #1
    4388:	131308ff 	tstne	r3, #16711680	; 0xff0000
    438c:	12800001 	addne	r0, r0, #1
    4390:	e12fff1e 	bx	lr

00004394 <__register_exitproc>:
    4394:	e59fc0e4 	ldr	r12, [pc, #228]	; 4480 <__register_exitproc+0xec>
    4398:	e92d41f0 	push	{r4, r5, r6, r7, r8, lr}
    439c:	e59c4000 	ldr	r4, [r12]
    43a0:	e594c148 	ldr	r12, [r4, #328]	; 0x148
    43a4:	e35c0000 	cmp	r12, #0
    43a8:	0284cf53 	addeq	r12, r4, #332	; 0x14c
    43ac:	e59c5004 	ldr	r5, [r12, #4]
    43b0:	0584c148 	streq	r12, [r4, #328]	; 0x148
    43b4:	e355001f 	cmp	r5, #31
    43b8:	e24dd010 	sub	sp, sp, #16
    43bc:	e1a06000 	mov	r6, r0
    43c0:	da000015 	ble	441c <__register_exitproc+0x88>
    43c4:	e59f00b8 	ldr	r0, [pc, #184]	; 4484 <__register_exitproc+0xf0>
    43c8:	e3500000 	cmp	r0, #0
    43cc:	1a000001 	bne	43d8 <__register_exitproc+0x44>
    43d0:	e3e00000 	mvn	r0, #0
    43d4:	ea000018 	b	443c <__register_exitproc+0xa8>
    43d8:	e3a00e19 	mov	r0, #400	; 0x190
    43dc:	e58d100c 	str	r1, [sp, #12]
    43e0:	e58d2008 	str	r2, [sp, #8]
    43e4:	e58d3004 	str	r3, [sp, #4]
    43e8:	e320f000 	nop	{0}
    43ec:	e250c000 	subs	r12, r0, #0
    43f0:	e59d100c 	ldr	r1, [sp, #12]
    43f4:	e59d2008 	ldr	r2, [sp, #8]
    43f8:	e59d3004 	ldr	r3, [sp, #4]
    43fc:	0afffff3 	beq	43d0 <__register_exitproc+0x3c>
    4400:	e5945148 	ldr	r5, [r4, #328]	; 0x148
    4404:	e3a00000 	mov	r0, #0
    4408:	e58c0004 	str	r0, [r12, #4]
    440c:	e58c5000 	str	r5, [r12]
    4410:	e584c148 	str	r12, [r4, #328]	; 0x148
    4414:	e58c0188 	str	r0, [r12, #392]	; 0x188
    4418:	e58c018c 	str	r0, [r12, #396]	; 0x18c
    441c:	e3560000 	cmp	r6, #0
    4420:	e59c4004 	ldr	r4, [r12, #4]
    4424:	1a000007 	bne	4448 <__register_exitproc+0xb4>
    4428:	e2843002 	add	r3, r4, #2
    442c:	e2844001 	add	r4, r4, #1
    4430:	e78c1103 	str	r1, [r12, r3, lsl #2]
    4434:	e58c4004 	str	r4, [r12, #4]
    4438:	e3a00000 	mov	r0, #0
    443c:	e28dd010 	add	sp, sp, #16
    4440:	e8bd41f0 	pop	{r4, r5, r6, r7, r8, lr}
    4444:	e12fff1e 	bx	lr
    4448:	e3a00001 	mov	r0, #1
    444c:	e1a00410 	lsl	r0, r0, r4
    4450:	e08c8104 	add	r8, r12, r4, lsl #2
    4454:	e3560002 	cmp	r6, #2
    4458:	e59c7188 	ldr	r7, [r12, #392]	; 0x188
    445c:	e5883108 	str	r3, [r8, #264]	; 0x108
    4460:	059c318c 	ldreq	r3, [r12, #396]	; 0x18c
    4464:	e1877000 	orr	r7, r7, r0
    4468:	01830000 	orreq	r0, r3, r0
    446c:	e1a05008 	mov	r5, r8
    4470:	e5882088 	str	r2, [r8, #136]	; 0x88
    4474:	e58c7188 	str	r7, [r12, #392]	; 0x188
    4478:	058c018c 	streq	r0, [r12, #396]	; 0x18c
    447c:	eaffffe9 	b	4428 <__register_exitproc+0x94>
    4480:	00006980 	.word	0x00006980
    4484:	00000000 	.word	0x00000000

00004488 <__call_exitprocs>:
    4488:	e92d4ff0 	push	{r4, r5, r6, r7, r8, r9, r10, r11, lr}
    448c:	e59f3168 	ldr	r3, [pc, #360]	; 45fc <__call_exitprocs+0x174>
    4490:	e5933000 	ldr	r3, [r3]
    4494:	e24dd014 	sub	sp, sp, #20
    4498:	e58d3004 	str	r3, [sp, #4]
    449c:	e2833f52 	add	r3, r3, #328	; 0x148
    44a0:	e58d0008 	str	r0, [sp, #8]
    44a4:	e58d300c 	str	r3, [sp, #12]
    44a8:	e1a07001 	mov	r7, r1
    44ac:	e3a08001 	mov	r8, #1
    44b0:	e59d3004 	ldr	r3, [sp, #4]
    44b4:	e5936148 	ldr	r6, [r3, #328]	; 0x148
    44b8:	e3560000 	cmp	r6, #0
    44bc:	e59db00c 	ldr	r11, [sp, #12]
    44c0:	0a000033 	beq	4594 <__call_exitprocs+0x10c>
    44c4:	e5965004 	ldr	r5, [r6, #4]
    44c8:	e2554001 	subs	r4, r5, #1
    44cc:	5286a088 	addpl	r10, r6, #136	; 0x88
    44d0:	5285501f 	addpl	r5, r5, #31
    44d4:	508a5105 	addpl	r5, r10, r5, lsl #2
    44d8:	5a000007 	bpl	44fc <__call_exitprocs+0x74>
    44dc:	ea000029 	b	4588 <__call_exitprocs+0x100>
    44e0:	e5953000 	ldr	r3, [r5]
    44e4:	e1530007 	cmp	r3, r7
    44e8:	0a000005 	beq	4504 <__call_exitprocs+0x7c>
    44ec:	e2444001 	sub	r4, r4, #1
    44f0:	e3740001 	cmn	r4, #1
    44f4:	e2455004 	sub	r5, r5, #4
    44f8:	0a000022 	beq	4588 <__call_exitprocs+0x100>
    44fc:	e3570000 	cmp	r7, #0
    4500:	1afffff6 	bne	44e0 <__call_exitprocs+0x58>
    4504:	e5963004 	ldr	r3, [r6, #4]
    4508:	e06a2005 	rsb	r2, r10, r5
    450c:	e2433001 	sub	r3, r3, #1
    4510:	e0862002 	add	r2, r6, r2
    4514:	e1530004 	cmp	r3, r4
    4518:	e5123078 	ldr	r3, [r2, #-120]	; 0xffffff88
    451c:	13a01000 	movne	r1, #0
    4520:	05864004 	streq	r4, [r6, #4]
    4524:	15021078 	strne	r1, [r2, #-120]	; 0xffffff88
    4528:	e3530000 	cmp	r3, #0
    452c:	0affffee 	beq	44ec <__call_exitprocs+0x64>
    4530:	e1a02418 	lsl	r2, r8, r4
    4534:	e5961188 	ldr	r1, [r6, #392]	; 0x188
    4538:	e1120001 	tst	r2, r1
    453c:	e5969004 	ldr	r9, [r6, #4]
    4540:	0a000016 	beq	45a0 <__call_exitprocs+0x118>
    4544:	e596118c 	ldr	r1, [r6, #396]	; 0x18c
    4548:	e1120001 	tst	r2, r1
    454c:	1a000016 	bne	45ac <__call_exitprocs+0x124>
    4550:	e59d0008 	ldr	r0, [sp, #8]
    4554:	e5151080 	ldr	r1, [r5, #-128]	; 0xffffff80
    4558:	e1a0e00f 	mov	lr, pc
    455c:	e12fff13 	bx	r3
    4560:	e5963004 	ldr	r3, [r6, #4]
    4564:	e1530009 	cmp	r3, r9
    4568:	1affffd0 	bne	44b0 <__call_exitprocs+0x28>
    456c:	e59b3000 	ldr	r3, [r11]
    4570:	e1530006 	cmp	r3, r6
    4574:	1affffcd 	bne	44b0 <__call_exitprocs+0x28>
    4578:	e2444001 	sub	r4, r4, #1
    457c:	e3740001 	cmn	r4, #1
    4580:	e2455004 	sub	r5, r5, #4
    4584:	1affffdc 	bne	44fc <__call_exitprocs+0x74>
    4588:	e59f1070 	ldr	r1, [pc, #112]	; 4600 <__call_exitprocs+0x178>
    458c:	e3510000 	cmp	r1, #0
    4590:	1a000009 	bne	45bc <__call_exitprocs+0x134>
    4594:	e28dd014 	add	sp, sp, #20
    4598:	e8bd4ff0 	pop	{r4, r5, r6, r7, r8, r9, r10, r11, lr}
    459c:	e12fff1e 	bx	lr
    45a0:	e1a0e00f 	mov	lr, pc
    45a4:	e12fff13 	bx	r3
    45a8:	eaffffec 	b	4560 <__call_exitprocs+0xd8>
    45ac:	e5150080 	ldr	r0, [r5, #-128]	; 0xffffff80
    45b0:	e1a0e00f 	mov	lr, pc
    45b4:	e12fff13 	bx	r3
    45b8:	eaffffe8 	b	4560 <__call_exitprocs+0xd8>
    45bc:	e5963004 	ldr	r3, [r6, #4]
    45c0:	e3530000 	cmp	r3, #0
    45c4:	e5963000 	ldr	r3, [r6]
    45c8:	1a000008 	bne	45f0 <__call_exitprocs+0x168>
    45cc:	e3530000 	cmp	r3, #0
    45d0:	0a000006 	beq	45f0 <__call_exitprocs+0x168>
    45d4:	e1a00006 	mov	r0, r6
    45d8:	e58b3000 	str	r3, [r11]
    45dc:	e320f000 	nop	{0}
    45e0:	e59b6000 	ldr	r6, [r11]
    45e4:	e3560000 	cmp	r6, #0
    45e8:	1affffb5 	bne	44c4 <__call_exitprocs+0x3c>
    45ec:	eaffffe8 	b	4594 <__call_exitprocs+0x10c>
    45f0:	e1a0b006 	mov	r11, r6
    45f4:	e1a06003 	mov	r6, r3
    45f8:	eafffff9 	b	45e4 <__call_exitprocs+0x15c>
    45fc:	00006980 	.word	0x00006980
    4600:	00000000 	.word	0x00000000

00004604 <register_fini>:
    4604:	e92d4008 	push	{r3, lr}
    4608:	e59f3010 	ldr	r3, [pc, #16]	; 4620 <register_fini+0x1c>
    460c:	e3530000 	cmp	r3, #0
    4610:	159f000c 	ldrne	r0, [pc, #12]	; 4624 <register_fini+0x20>
    4614:	1bfffec2 	blne	4124 <atexit>
    4618:	e8bd4008 	pop	{r3, lr}
    461c:	e12fff1e 	bx	lr
    4620:	000069a8 	.word	0x000069a8
    4624:	00004628 	.word	0x00004628

00004628 <__libc_fini_array>:
    4628:	e92d4038 	push	{r3, r4, r5, lr}
    462c:	e59f5030 	ldr	r5, [pc, #48]	; 4664 <__libc_fini_array+0x3c>
    4630:	e59f4030 	ldr	r4, [pc, #48]	; 4668 <__libc_fini_array+0x40>
    4634:	e0654004 	rsb	r4, r5, r4
    4638:	e1b04144 	asrs	r4, r4, #2
    463c:	10855104 	addne	r5, r5, r4, lsl #2
    4640:	0a000004 	beq	4658 <__libc_fini_array+0x30>
    4644:	e5353004 	ldr	r3, [r5, #-4]!
    4648:	e1a0e00f 	mov	lr, pc
    464c:	e12fff13 	bx	r3
    4650:	e2544001 	subs	r4, r4, #1
    4654:	1afffffa 	bne	4644 <__libc_fini_array+0x1c>
    4658:	eb0008d2 	bl	69a8 <__libc_fini>
    465c:	e8bd4038 	pop	{r3, r4, r5, lr}
    4660:	e12fff1e 	bx	lr
    4664:	000069c0 	.word	0x000069c0
    4668:	000069c4 	.word	0x000069c4

0000466c <__cs3_premain>:
    466c:	e92d4008 	push	{r3, lr}
    4670:	eb00001d 	bl	46ec <__libc_init_array>
    4674:	e59f3030 	ldr	r3, [pc, #48]	; 46ac <__cs3_premain+0x40>
    4678:	e3530000 	cmp	r3, #0
    467c:	15930000 	ldrne	r0, [r3]
    4680:	01a00003 	moveq	r0, r3
    4684:	e59f3024 	ldr	r3, [pc, #36]	; 46b0 <__cs3_premain+0x44>
    4688:	e3530000 	cmp	r3, #0
    468c:	15931000 	ldrne	r1, [r3]
    4690:	01a01003 	moveq	r1, r3
    4694:	e3a02000 	mov	r2, #0
    4698:	ebffeeef 	bl	25c <main>
    469c:	e59f3010 	ldr	r3, [pc, #16]	; 46b4 <__cs3_premain+0x48>
    46a0:	e3530000 	cmp	r3, #0
    46a4:	1bfffeaa 	blne	4154 <exit>
    46a8:	eafffffe 	b	46a8 <__cs3_premain+0x3c>
	...
    46b4:	00004154 	.word	0x00004154

000046b8 <_exit>:
    46b8:	e52de004 	push	{lr}		; (str lr, [sp, #-4]!)
    46bc:	e3a00018 	mov	r0, #24
    46c0:	e59f1004 	ldr	r1, [pc, #4]	; 46cc <_exit+0x14>
    46c4:	ef123456 	svc	0x00123456
    46c8:	eafffffe 	b	46c8 <_exit+0x10>
    46cc:	00020026 	.word	0x00020026

000046d0 <__cs3_isr_interrupt>:
    46d0:	eafffffe 	b	46d0 <__cs3_isr_interrupt>

000046d4 <__cs3_isr_undef>:
    46d4:	eafffffe 	b	46d4 <__cs3_isr_undef>

000046d8 <__cs3_isr_swi>:
    46d8:	eafffffe 	b	46d8 <__cs3_isr_swi>

000046dc <__cs3_isr_pabort>:
    46dc:	eafffffe 	b	46dc <__cs3_isr_pabort>

000046e0 <__cs3_isr_dabort>:
    46e0:	eafffffe 	b	46e0 <__cs3_isr_dabort>

000046e4 <__cs3_isr_irq>:
    46e4:	eafffffe 	b	46e4 <__cs3_isr_irq>

000046e8 <__cs3_isr_fiq>:
    46e8:	eafffffe 	b	46e8 <__cs3_isr_fiq>

000046ec <__libc_init_array>:
    46ec:	e92d4070 	push	{r4, r5, r6, lr}
    46f0:	e59f506c 	ldr	r5, [pc, #108]	; 4764 <__libc_init_array+0x78>
    46f4:	e59f606c 	ldr	r6, [pc, #108]	; 4768 <__libc_init_array+0x7c>
    46f8:	e0656006 	rsb	r6, r5, r6
    46fc:	e1b06146 	asrs	r6, r6, #2
    4700:	12455004 	subne	r5, r5, #4
    4704:	13a04000 	movne	r4, #0
    4708:	0a000005 	beq	4724 <__libc_init_array+0x38>
    470c:	e5b53004 	ldr	r3, [r5, #4]!
    4710:	e2844001 	add	r4, r4, #1
    4714:	e1a0e00f 	mov	lr, pc
    4718:	e12fff13 	bx	r3
    471c:	e1560004 	cmp	r6, r4
    4720:	1afffff9 	bne	470c <__libc_init_array+0x20>
    4724:	e59f5040 	ldr	r5, [pc, #64]	; 476c <__libc_init_array+0x80>
    4728:	e59f6040 	ldr	r6, [pc, #64]	; 4770 <__libc_init_array+0x84>
    472c:	e0656006 	rsb	r6, r5, r6
    4730:	eb000894 	bl	6988 <_init>
    4734:	e1b06146 	asrs	r6, r6, #2
    4738:	12455004 	subne	r5, r5, #4
    473c:	13a04000 	movne	r4, #0
    4740:	0a000005 	beq	475c <__libc_init_array+0x70>
    4744:	e5b53004 	ldr	r3, [r5, #4]!
    4748:	e2844001 	add	r4, r4, #1
    474c:	e1a0e00f 	mov	lr, pc
    4750:	e12fff13 	bx	r3
    4754:	e1560004 	cmp	r6, r4
    4758:	1afffff9 	bne	4744 <__libc_init_array+0x58>
    475c:	e8bd4070 	pop	{r4, r5, r6, lr}
    4760:	e12fff1e 	bx	lr
    4764:	000069a0 	.word	0x000069a0
    4768:	000069a0 	.word	0x000069a0
    476c:	000069a0 	.word	0x000069a0
    4770:	000069a8 	.word	0x000069a8

Disassembly of section .rodata:

00004778 <intToChar>:
    4778:	33323130 37363534 00003938 41544a0a     0123456789...JTA
    4788:	41552047 74205452 0a747365 0000203e     G UART test.> ..
    4798:	6572500a 61207373 6b20796e 74207965     .Press any key t
    47a8:	6f63206f 6e69746e 3e0a6575 00000020     o continue.> ...

000047b8 <COSs>:
    47b8:	00000000 3ff00000 91d14e3c 3feffe5c     .......?<N..\..?
    47c8:	b573eab3 3feffb15 fcb923a3 3feff487     ..s....?.#.....?
    47d8:	d5cfaace 3fefec56 d288ce70 3fefe0de     ....V..?p......?
    47e8:	a9fbe76d 3fefd2f1 5c28f5c3 3fefc28f     m......?..(\...?
    47f8:	a0275254 3fefb089 07c84b5e 3fef9b3d     TR'....?^K..=..?
    4808:	4a2339c1 3fef837b 67381d7e 3fef6944     .9#J{..?~.8gDi.?
    4818:	5f06f694 3fef4c98 e8a71de7 3fef2e48     ..._.L.?....H..?
    4828:	95e9e1b1 3fef0cb2 1de69ad4 3feee8a7     .......?.......?
    4838:	37b4a234 3feec2f8 7525460b 3fee9a02     4..7...?.F%u...?
    4848:	4467381d 3fee6f69 374bc6a8 3fee4189     .8gDio.?..K7.A.?
    4858:	bc01a36e 3fee1205 1b71758e 3fede00d     n......?.uq....?
    4868:	559b3d08 3fedab9f 6a7ef9db 3fed74bc     .=.U...?..~j.t.?
    4878:	5a1cac08 3fed3b64 db8bac71 3fed0068     ...Zd;.?q...h..?
    4888:	37b4a234 3fecc2f8 6e978d50 3fec8312     4..7...?P..n...?
    4898:	80346dc6 3fec40b7 23a29c78 3febfcb9     .m4..@.?x..#...?
    48a8:	a1cac083 3febb645 b1c432ca 3feb6e2e     ....E..?.2...n.?
    48b8:	e5604189 3feb22d0 61e4f766 3fead6a1     .A`..".?f..a...?
    48c8:	020c49ba 3fea872b eb1c432d 3fea36e2     .I..+..?-C...6.?
    48d8:	f7ced917 3fe9e353 9652bd3c 3fe98e21     ....S..?<.R.!..?
    48e8:	c6a7ef9e 3fe9374b d1b71759 3fe8de00     ....K7.?Y......?
    48f8:	6e978d50 3fe88312 9d495183 3fe82680     P..n...?.QI..&.?
    4908:	a6b50b0f 3fe7c779 f9096bba 3fe767a0     ....y..?.k...g.?
    4918:	6f0068dc 3fe70481 2de00d1b 3fe6a090     .h.o...?...-...?
    4928:	7e90ff97 3fe63afb a9fbe76d 3fe5d2f1     ...~.:.?m......?
    4938:	67381d7e 3fe56944 6d5cfaad 3fe4fec5     ~.8gDi.?..\m...?
    4948:	4e3bcd36 3fe491d1 c0ebedfa 3fe42339     6.;N...?....9#.?
    4958:	7c84b5dd 3fe3b3d0 12d77319 3fe341f2     ...|...?.s...A.?
    4968:	f212d773 3fe2cf41 631f8a09 3fe25aee     s...A..?...c.Z.?
    4978:	65fd8adb 3fe1e4f7 faacd9e8 3fe16d5c     ...e...?....\m.?
    4988:	d844d014 3fe0f4f0 47ae147b 3fe07ae1     ..D....?{..G.z.?
    4998:	00000000 3fe00000 94467382 3fdf06f6     .......?.sF....?
    49a8:	ba5e353f 3fde0c49 04189375 3fdd0e56     ?5^.I..?u...V..?
    49b8:	dfa43fe6 3fdc0ebe ded288ce 3fdb0be0     .?.....?.......?
    49c8:	6fd21ff3 3fda075f 92a30553 3fd9013a     ...o_..?S...:..?
    49d8:	474538ef 3fd7f972 8db8bac7 3fd6f006     .8EGr..?.......?
    49e8:	f7ced917 3fd5e353 61e4f766 3fd4d6a1     ....S..?f..a...?
    49f8:	ef9db22d 3fd3c6a7 7d566cf4 3fd2b6ae     -......?.lV}...?
    4a08:	2eb1c433 3fd1a36e e00d1b71 3fd0902d     3...n..?q...-..?
    4a18:	467381d8 3fcef694 cccccccd 3fcccccc     ..sF...?.......?
    4a28:	9a6b50b1 3fca9c77 6809d495 3fc86c22     .Pk.w..?...h"l.?
    4a38:	594af4f1 3fc63886 4a8c154d 3fc404ea     ..JY.8.?M..J...?
    4a48:	3bcd35a8 3fc1d14e a161e4f7 3fbf34d6     .5.;N..?..a..4.?
    4a58:	126e978d 3fbac083 3c361134 3fb652bd     ..n....?4.6<.R.?
    4a68:	ad42c3ca 3fb1de69 cb295e9e 3faac710     ..B.i..?.^)....?
    4a78:	ad42c3ca 3fa1de69 1eb851ec 3f91eb85     ..B.i..?.Q.....?
	...
    4a90:	1eb851ec bf91eb85 ad42c3ca bfa1de69     .Q........B.i...
    4aa0:	cb295e9e bfaac710 ad42c3ca bfb1de69     .^).......B.i...
    4ab0:	3c361134 bfb652bd 126e978d bfbac083     4.6<.R....n.....
    4ac0:	a161e4f7 bfbf34d6 3bcd35a8 bfc1d14e     ..a..4...5.;N...
    4ad0:	4a8c154d bfc404ea 594af4f1 bfc63886     M..J......JY.8..
    4ae0:	6809d495 bfc86c22 9a6b50b1 bfca9c77     ...h"l...Pk.w...
    4af0:	cccccccd bfcccccc 467381d8 bfcef694     ..........sF....
    4b00:	e00d1b71 bfd0902d 2eb1c433 bfd1a36e     q...-...3...n...
    4b10:	7d566cf4 bfd2b6ae ef9db22d bfd3c6a7     .lV}....-.......
    4b20:	61e4f766 bfd4d6a1 f7ced917 bfd5e353     f..a........S...
    4b30:	8db8bac7 bfd6f006 474538ef bfd7f972     .........8EGr...
    4b40:	92a30553 bfd9013a 6fd21ff3 bfda075f     S...:......o_...
    4b50:	ded288ce bfdb0be0 dfa43fe6 bfdc0ebe     .........?......
    4b60:	04189375 bfdd0e56 ba5e353f bfde0c49     u...V...?5^.I...
    4b70:	94467382 bfdf06f6 00000000 bfe00000     .sF.............
    4b80:	47ae147b bfe07ae1 d844d014 bfe0f4f0     {..G.z....D.....
    4b90:	faacd9e8 bfe16d5c 65fd8adb bfe1e4f7     ....\m.....e....
    4ba0:	631f8a09 bfe25aee f212d773 bfe2cf41     ...c.Z..s...A...
    4bb0:	12d77319 bfe341f2 7c84b5dd bfe3b3d0     .s...A.....|....
    4bc0:	c0ebedfa bfe42339 4e3bcd36 bfe491d1     ....9#..6.;N....
    4bd0:	6d5cfaad bfe4fec5 67381d7e bfe56944     ..\m....~.8gDi..
    4be0:	a9fbe76d bfe5d2f1 7e90ff97 bfe63afb     m..........~.:..
    4bf0:	2de00d1b bfe6a090 6f0068dc bfe70481     ...-.....h.o....
    4c00:	f9096bba bfe767a0 a6b50b0f bfe7c779     .k...g......y...
    4c10:	9d495183 bfe82680 6e978d50 bfe88312     .QI..&..P..n....
    4c20:	d1b71759 bfe8de00 c6a7ef9e bfe9374b     Y...........K7..
    4c30:	9652bd3c bfe98e21 f7ced917 bfe9e353     <.R.!.......S...
    4c40:	eb1c432d bfea36e2 020c49ba bfea872b     -C...6...I..+...
    4c50:	61e4f766 bfead6a1 e5604189 bfeb22d0     f..a.....A`.."..
    4c60:	b1c432ca bfeb6e2e a1cac083 bfebb645     .2...n......E...
    4c70:	23a29c78 bfebfcb9 80346dc6 bfec40b7     x..#.....m4..@..
    4c80:	6e978d50 bfec8312 37b4a234 bfecc2f8     P..n....4..7....
    4c90:	db8bac71 bfed0068 5a1cac08 bfed3b64     q...h......Zd;..
    4ca0:	6a7ef9db bfed74bc 559b3d08 bfedab9f     ..~j.t...=.U....
    4cb0:	1b71758e bfede00d bc01a36e bfee1205     .uq.....n.......
    4cc0:	374bc6a8 bfee4189 4467381d bfee6f69     ..K7.A...8gDio..
    4cd0:	7525460b bfee9a02 37b4a234 bfeec2f8     .F%u....4..7....
    4ce0:	1de69ad4 bfeee8a7 95e9e1b1 bfef0cb2     ................
    4cf0:	e8a71de7 bfef2e48 5f06f694 bfef4c98     ....H......_.L..
    4d00:	67381d7e bfef6944 4a2339c1 bfef837b     ~.8gDi...9#J{...
    4d10:	07c84b5e bfef9b3d a0275254 bfefb089     ^K..=...TR'.....
    4d20:	5c28f5c3 bfefc28f a9fbe76d bfefd2f1     ..(\....m.......
    4d30:	d288ce70 bfefe0de d5cfaace bfefec56     p...........V...
    4d40:	fcb923a3 bfeff487 b573eab3 bfeffb15     .#........s.....
    4d50:	91d14e3c bfeffe5c 00000000 bff00000     <N..\...........
    4d60:	91d14e3c bfeffe5c b573eab3 bfeffb15     <N..\.....s.....
    4d70:	fcb923a3 bfeff487 d5cfaace bfefec56     .#..........V...
    4d80:	d288ce70 bfefe0de a9fbe76d bfefd2f1     p.......m.......
    4d90:	5c28f5c3 bfefc28f a0275254 bfefb089     ..(\....TR'.....
    4da0:	07c84b5e bfef9b3d 4a2339c1 bfef837b     ^K..=....9#J{...
    4db0:	67381d7e bfef6944 5f06f694 bfef4c98     ~.8gDi....._.L..
    4dc0:	e8a71de7 bfef2e48 95e9e1b1 bfef0cb2     ....H...........
    4dd0:	1de69ad4 bfeee8a7 37b4a234 bfeec2f8     ........4..7....
    4de0:	7525460b bfee9a02 4467381d bfee6f69     .F%u.....8gDio..
    4df0:	374bc6a8 bfee4189 bc01a36e bfee1205     ..K7.A..n.......
    4e00:	1b71758e bfede00d 559b3d08 bfedab9f     .uq......=.U....
    4e10:	6a7ef9db bfed74bc 5a1cac08 bfed3b64     ..~j.t.....Zd;..
    4e20:	db8bac71 bfed0068 37b4a234 bfecc2f8     q...h...4..7....
    4e30:	6e978d50 bfec8312 80346dc6 bfec40b7     P..n.....m4..@..
    4e40:	23a29c78 bfebfcb9 a1cac083 bfebb645     x..#........E...
    4e50:	b1c432ca bfeb6e2e e5604189 bfeb22d0     .2...n...A`.."..
    4e60:	61e4f766 bfead6a1 020c49ba bfea872b     f..a.....I..+...
    4e70:	eb1c432d bfea36e2 f7ced917 bfe9e353     -C...6......S...
    4e80:	9652bd3c bfe98e21 c6a7ef9e bfe9374b     <.R.!.......K7..
    4e90:	d1b71759 bfe8de00 6e978d50 bfe88312     Y.......P..n....
    4ea0:	9d495183 bfe82680 a6b50b0f bfe7c779     .QI..&......y...
    4eb0:	f9096bba bfe767a0 6f0068dc bfe70481     .k...g...h.o....
    4ec0:	2de00d1b bfe6a090 7e90ff97 bfe63afb     ...-.......~.:..
    4ed0:	a9fbe76d bfe5d2f1 67381d7e bfe56944     m.......~.8gDi..
    4ee0:	6d5cfaad bfe4fec5 4e3bcd36 bfe491d1     ..\m....6.;N....
    4ef0:	c0ebedfa bfe42339 7c84b5dd bfe3b3d0     ....9#.....|....
    4f00:	12d77319 bfe341f2 f212d773 bfe2cf41     .s...A..s...A...
    4f10:	631f8a09 bfe25aee 65fd8adb bfe1e4f7     ...c.Z.....e....
    4f20:	faacd9e8 bfe16d5c d844d014 bfe0f4f0     ....\m....D.....
    4f30:	47ae147b bfe07ae1 00000000 bfe00000     {..G.z..........
    4f40:	94467382 bfdf06f6 ba5e353f bfde0c49     .sF.....?5^.I...
    4f50:	04189375 bfdd0e56 dfa43fe6 bfdc0ebe     u...V....?......
    4f60:	ded288ce bfdb0be0 6fd21ff3 bfda075f     ...........o_...
    4f70:	92a30553 bfd9013a 474538ef bfd7f972     S...:....8EGr...
    4f80:	8db8bac7 bfd6f006 f7ced917 bfd5e353     ............S...
    4f90:	61e4f766 bfd4d6a1 ef9db22d bfd3c6a7     f..a....-.......
    4fa0:	7d566cf4 bfd2b6ae 2eb1c433 bfd1a36e     .lV}....3...n...
    4fb0:	e00d1b71 bfd0902d 467381d8 bfcef694     q...-.....sF....
    4fc0:	cccccccd bfcccccc 9a6b50b1 bfca9c77     .........Pk.w...
    4fd0:	6809d495 bfc86c22 594af4f1 bfc63886     ...h"l....JY.8..
    4fe0:	4a8c154d bfc404ea 3bcd35a8 bfc1d14e     M..J.....5.;N...
    4ff0:	a161e4f7 bfbf34d6 126e978d bfbac083     ..a..4....n.....
    5000:	3c361134 bfb652bd ad42c3ca bfb1de69     4.6<.R....B.i...
    5010:	cb295e9e bfaac710 ad42c3ca bfa1de69     .^).......B.i...
    5020:	1eb851ec bf91eb85 00000000 80000000     .Q..............
    5030:	1eb851ec 3f91eb85 ad42c3ca 3fa1de69     .Q.....?..B.i..?
    5040:	cb295e9e 3faac710 ad42c3ca 3fb1de69     .^)....?..B.i..?
    5050:	3c361134 3fb652bd 126e978d 3fbac083     4.6<.R.?..n....?
    5060:	a161e4f7 3fbf34d6 3bcd35a8 3fc1d14e     ..a..4.?.5.;N..?
    5070:	4a8c154d 3fc404ea 594af4f1 3fc63886     M..J...?..JY.8.?
    5080:	6809d495 3fc86c22 9a6b50b1 3fca9c77     ...h"l.?.Pk.w..?
    5090:	cccccccd 3fcccccc 467381d8 3fcef694     .......?..sF...?
    50a0:	e00d1b71 3fd0902d 2eb1c433 3fd1a36e     q...-..?3...n..?
    50b0:	7d566cf4 3fd2b6ae ef9db22d 3fd3c6a7     .lV}...?-......?
    50c0:	61e4f766 3fd4d6a1 f7ced917 3fd5e353     f..a...?....S..?
    50d0:	8db8bac7 3fd6f006 474538ef 3fd7f972     .......?.8EGr..?
    50e0:	92a30553 3fd9013a 6fd21ff3 3fda075f     S...:..?...o_..?
    50f0:	ded288ce 3fdb0be0 dfa43fe6 3fdc0ebe     .......?.?.....?
    5100:	04189375 3fdd0e56 ba5e353f 3fde0c49     u...V..??5^.I..?
    5110:	94467382 3fdf06f6 00000000 3fe00000     .sF....?.......?
    5120:	47ae147b 3fe07ae1 d844d014 3fe0f4f0     {..G.z.?..D....?
    5130:	faacd9e8 3fe16d5c 65fd8adb 3fe1e4f7     ....\m.?...e...?
    5140:	631f8a09 3fe25aee f212d773 3fe2cf41     ...c.Z.?s...A..?
    5150:	12d77319 3fe341f2 7c84b5dd 3fe3b3d0     .s...A.?...|...?
    5160:	c0ebedfa 3fe42339 4e3bcd36 3fe491d1     ....9#.?6.;N...?
    5170:	6d5cfaad 3fe4fec5 67381d7e 3fe56944     ..\m...?~.8gDi.?
    5180:	a9fbe76d 3fe5d2f1 7e90ff97 3fe63afb     m......?...~.:.?
    5190:	2de00d1b 3fe6a090 6f0068dc 3fe70481     ...-...?.h.o...?
    51a0:	f9096bba 3fe767a0 a6b50b0f 3fe7c779     .k...g.?....y..?
    51b0:	9d495183 3fe82680 6e978d50 3fe88312     .QI..&.?P..n...?
    51c0:	d1b71759 3fe8de00 c6a7ef9e 3fe9374b     Y......?....K7.?
    51d0:	9652bd3c 3fe98e21 f7ced917 3fe9e353     <.R.!..?....S..?
    51e0:	eb1c432d 3fea36e2 020c49ba 3fea872b     -C...6.?.I..+..?
    51f0:	61e4f766 3fead6a1 e5604189 3feb22d0     f..a...?.A`..".?
    5200:	b1c432ca 3feb6e2e a1cac083 3febb645     .2...n.?....E..?
    5210:	23a29c78 3febfcb9 80346dc6 3fec40b7     x..#...?.m4..@.?
    5220:	6e978d50 3fec8312 37b4a234 3fecc2f8     P..n...?4..7...?
    5230:	db8bac71 3fed0068 5a1cac08 3fed3b64     q...h..?...Zd;.?
    5240:	6a7ef9db 3fed74bc 559b3d08 3fedab9f     ..~j.t.?.=.U...?
    5250:	1b71758e 3fede00d bc01a36e 3fee1205     .uq....?n......?
    5260:	374bc6a8 3fee4189 4467381d 3fee6f69     ..K7.A.?.8gDio.?
    5270:	7525460b 3fee9a02 37b4a234 3feec2f8     .F%u...?4..7...?
    5280:	1de69ad4 3feee8a7 95e9e1b1 3fef0cb2     .......?.......?
    5290:	e8a71de7 3fef2e48 5f06f694 3fef4c98     ....H..?..._.L.?
    52a0:	67381d7e 3fef6944 4a2339c1 3fef837b     ~.8gDi.?.9#J{..?
    52b0:	07c84b5e 3fef9b3d a0275254 3fefb089     ^K..=..?TR'....?
    52c0:	5c28f5c3 3fefc28f a9fbe76d 3fefd2f1     ..(\...?m......?
    52d0:	d288ce70 3fefe0de d5cfaace 3fefec56     p......?....V..?
    52e0:	fcb923a3 3feff487 b573eab3 3feffb15     .#.....?..s....?
    52f0:	91d14e3c 3feffe5c                       <N..\..?

000052f8 <SINs>:
	...
    5300:	1eb851ec 3f91eb85 ad42c3ca 3fa1de69     .Q.....?..B.i..?
    5310:	cb295e9e 3faac710 ad42c3ca 3fb1de69     .^)....?..B.i..?
    5320:	3c361134 3fb652bd 126e978d 3fbac083     4.6<.R.?..n....?
    5330:	a161e4f7 3fbf34d6 3bcd35a8 3fc1d14e     ..a..4.?.5.;N..?
    5340:	4a8c154d 3fc404ea 594af4f1 3fc63886     M..J...?..JY.8.?
    5350:	6809d495 3fc86c22 9a6b50b1 3fca9c77     ...h"l.?.Pk.w..?
    5360:	cccccccd 3fcccccc 467381d8 3fcef694     .......?..sF...?
    5370:	e00d1b71 3fd0902d 2eb1c433 3fd1a36e     q...-..?3...n..?
    5380:	7d566cf4 3fd2b6ae ef9db22d 3fd3c6a7     .lV}...?-......?
    5390:	61e4f766 3fd4d6a1 f7ced917 3fd5e353     f..a...?....S..?
    53a0:	8db8bac7 3fd6f006 474538ef 3fd7f972     .......?.8EGr..?
    53b0:	92a30553 3fd9013a 6fd21ff3 3fda075f     S...:..?...o_..?
    53c0:	ded288ce 3fdb0be0 dfa43fe6 3fdc0ebe     .......?.?.....?
    53d0:	04189375 3fdd0e56 ba5e353f 3fde0c49     u...V..??5^.I..?
    53e0:	94467382 3fdf06f6 00000000 3fe00000     .sF....?.......?
    53f0:	47ae147b 3fe07ae1 d844d014 3fe0f4f0     {..G.z.?..D....?
    5400:	faacd9e8 3fe16d5c 65fd8adb 3fe1e4f7     ....\m.?...e...?
    5410:	631f8a09 3fe25aee f212d773 3fe2cf41     ...c.Z.?s...A..?
    5420:	12d77319 3fe341f2 7c84b5dd 3fe3b3d0     .s...A.?...|...?
    5430:	c0ebedfa 3fe42339 4e3bcd36 3fe491d1     ....9#.?6.;N...?
    5440:	6d5cfaad 3fe4fec5 67381d7e 3fe56944     ..\m...?~.8gDi.?
    5450:	a9fbe76d 3fe5d2f1 7e90ff97 3fe63afb     m......?...~.:.?
    5460:	2de00d1b 3fe6a090 6f0068dc 3fe70481     ...-...?.h.o...?
    5470:	f9096bba 3fe767a0 a6b50b0f 3fe7c779     .k...g.?....y..?
    5480:	9d495183 3fe82680 6e978d50 3fe88312     .QI..&.?P..n...?
    5490:	d1b71759 3fe8de00 c6a7ef9e 3fe9374b     Y......?....K7.?
    54a0:	9652bd3c 3fe98e21 f7ced917 3fe9e353     <.R.!..?....S..?
    54b0:	eb1c432d 3fea36e2 020c49ba 3fea872b     -C...6.?.I..+..?
    54c0:	61e4f766 3fead6a1 e5604189 3feb22d0     f..a...?.A`..".?
    54d0:	b1c432ca 3feb6e2e a1cac083 3febb645     .2...n.?....E..?
    54e0:	23a29c78 3febfcb9 80346dc6 3fec40b7     x..#...?.m4..@.?
    54f0:	6e978d50 3fec8312 37b4a234 3fecc2f8     P..n...?4..7...?
    5500:	db8bac71 3fed0068 5a1cac08 3fed3b64     q...h..?...Zd;.?
    5510:	6a7ef9db 3fed74bc 559b3d08 3fedab9f     ..~j.t.?.=.U...?
    5520:	1b71758e 3fede00d bc01a36e 3fee1205     .uq....?n......?
    5530:	374bc6a8 3fee4189 4467381d 3fee6f69     ..K7.A.?.8gDio.?
    5540:	7525460b 3fee9a02 37b4a234 3feec2f8     .F%u...?4..7...?
    5550:	1de69ad4 3feee8a7 95e9e1b1 3fef0cb2     .......?.......?
    5560:	e8a71de7 3fef2e48 5f06f694 3fef4c98     ....H..?..._.L.?
    5570:	67381d7e 3fef6944 4a2339c1 3fef837b     ~.8gDi.?.9#J{..?
    5580:	07c84b5e 3fef9b3d a0275254 3fefb089     ^K..=..?TR'....?
    5590:	5c28f5c3 3fefc28f a9fbe76d 3fefd2f1     ..(\...?m......?
    55a0:	d288ce70 3fefe0de d5cfaace 3fefec56     p......?....V..?
    55b0:	fcb923a3 3feff487 b573eab3 3feffb15     .#.....?..s....?
    55c0:	91d14e3c 3feffe5c 00000000 3ff00000     <N..\..?.......?
    55d0:	91d14e3c 3feffe5c b573eab3 3feffb15     <N..\..?..s....?
    55e0:	fcb923a3 3feff487 d5cfaace 3fefec56     .#.....?....V..?
    55f0:	d288ce70 3fefe0de a9fbe76d 3fefd2f1     p......?m......?
    5600:	5c28f5c3 3fefc28f a0275254 3fefb089     ..(\...?TR'....?
    5610:	07c84b5e 3fef9b3d 4a2339c1 3fef837b     ^K..=..?.9#J{..?
    5620:	67381d7e 3fef6944 5f06f694 3fef4c98     ~.8gDi.?..._.L.?
    5630:	e8a71de7 3fef2e48 95e9e1b1 3fef0cb2     ....H..?.......?
    5640:	1de69ad4 3feee8a7 37b4a234 3feec2f8     .......?4..7...?
    5650:	7525460b 3fee9a02 4467381d 3fee6f69     .F%u...?.8gDio.?
    5660:	374bc6a8 3fee4189 bc01a36e 3fee1205     ..K7.A.?n......?
    5670:	1b71758e 3fede00d 559b3d08 3fedab9f     .uq....?.=.U...?
    5680:	6a7ef9db 3fed74bc 5a1cac08 3fed3b64     ..~j.t.?...Zd;.?
    5690:	db8bac71 3fed0068 37b4a234 3fecc2f8     q...h..?4..7...?
    56a0:	6e978d50 3fec8312 80346dc6 3fec40b7     P..n...?.m4..@.?
    56b0:	23a29c78 3febfcb9 a1cac083 3febb645     x..#...?....E..?
    56c0:	b1c432ca 3feb6e2e e5604189 3feb22d0     .2...n.?.A`..".?
    56d0:	61e4f766 3fead6a1 020c49ba 3fea872b     f..a...?.I..+..?
    56e0:	eb1c432d 3fea36e2 f7ced917 3fe9e353     -C...6.?....S..?
    56f0:	9652bd3c 3fe98e21 c6a7ef9e 3fe9374b     <.R.!..?....K7.?
    5700:	d1b71759 3fe8de00 6e978d50 3fe88312     Y......?P..n...?
    5710:	9d495183 3fe82680 a6b50b0f 3fe7c779     .QI..&.?....y..?
    5720:	f9096bba 3fe767a0 6f0068dc 3fe70481     .k...g.?.h.o...?
    5730:	2de00d1b 3fe6a090 7e90ff97 3fe63afb     ...-...?...~.:.?
    5740:	a9fbe76d 3fe5d2f1 67381d7e 3fe56944     m......?~.8gDi.?
    5750:	6d5cfaad 3fe4fec5 4e3bcd36 3fe491d1     ..\m...?6.;N...?
    5760:	c0ebedfa 3fe42339 7c84b5dd 3fe3b3d0     ....9#.?...|...?
    5770:	12d77319 3fe341f2 f212d773 3fe2cf41     .s...A.?s...A..?
    5780:	631f8a09 3fe25aee 65fd8adb 3fe1e4f7     ...c.Z.?...e...?
    5790:	faacd9e8 3fe16d5c d844d014 3fe0f4f0     ....\m.?..D....?
    57a0:	47ae147b 3fe07ae1 00000000 3fe00000     {..G.z.?.......?
    57b0:	94467382 3fdf06f6 ba5e353f 3fde0c49     .sF....??5^.I..?
    57c0:	04189375 3fdd0e56 dfa43fe6 3fdc0ebe     u...V..?.?.....?
    57d0:	ded288ce 3fdb0be0 6fd21ff3 3fda075f     .......?...o_..?
    57e0:	92a30553 3fd9013a 474538ef 3fd7f972     S...:..?.8EGr..?
    57f0:	8db8bac7 3fd6f006 f7ced917 3fd5e353     .......?....S..?
    5800:	61e4f766 3fd4d6a1 ef9db22d 3fd3c6a7     f..a...?-......?
    5810:	7d566cf4 3fd2b6ae 2eb1c433 3fd1a36e     .lV}...?3...n..?
    5820:	e00d1b71 3fd0902d 467381d8 3fcef694     q...-..?..sF...?
    5830:	cccccccd 3fcccccc 9a6b50b1 3fca9c77     .......?.Pk.w..?
    5840:	6809d495 3fc86c22 594af4f1 3fc63886     ...h"l.?..JY.8.?
    5850:	4a8c154d 3fc404ea 3bcd35a8 3fc1d14e     M..J...?.5.;N..?
    5860:	a161e4f7 3fbf34d6 126e978d 3fbac083     ..a..4.?..n....?
    5870:	3c361134 3fb652bd ad42c3ca 3fb1de69     4.6<.R.?..B.i..?
    5880:	cb295e9e 3faac710 ad42c3ca 3fa1de69     .^)....?..B.i..?
    5890:	1eb851ec 3f91eb85 00000000 00000000     .Q.....?........
    58a0:	1eb851ec bf91eb85 ad42c3ca bfa1de69     .Q........B.i...
    58b0:	cb295e9e bfaac710 ad42c3ca bfb1de69     .^).......B.i...
    58c0:	3c361134 bfb652bd 126e978d bfbac083     4.6<.R....n.....
    58d0:	a161e4f7 bfbf34d6 3bcd35a8 bfc1d14e     ..a..4...5.;N...
    58e0:	4a8c154d bfc404ea 594af4f1 bfc63886     M..J......JY.8..
    58f0:	6809d495 bfc86c22 9a6b50b1 bfca9c77     ...h"l...Pk.w...
    5900:	cccccccd bfcccccc 467381d8 bfcef694     ..........sF....
    5910:	e00d1b71 bfd0902d 2eb1c433 bfd1a36e     q...-...3...n...
    5920:	7d566cf4 bfd2b6ae ef9db22d bfd3c6a7     .lV}....-.......
    5930:	61e4f766 bfd4d6a1 f7ced917 bfd5e353     f..a........S...
    5940:	8db8bac7 bfd6f006 474538ef bfd7f972     .........8EGr...
    5950:	92a30553 bfd9013a 6fd21ff3 bfda075f     S...:......o_...
    5960:	ded288ce bfdb0be0 dfa43fe6 bfdc0ebe     .........?......
    5970:	04189375 bfdd0e56 ba5e353f bfde0c49     u...V...?5^.I...
    5980:	94467382 bfdf06f6 00000000 bfe00000     .sF.............
    5990:	47ae147b bfe07ae1 d844d014 bfe0f4f0     {..G.z....D.....
    59a0:	faacd9e8 bfe16d5c 65fd8adb bfe1e4f7     ....\m.....e....
    59b0:	631f8a09 bfe25aee f212d773 bfe2cf41     ...c.Z..s...A...
    59c0:	12d77319 bfe341f2 7c84b5dd bfe3b3d0     .s...A.....|....
    59d0:	c0ebedfa bfe42339 4e3bcd36 bfe491d1     ....9#..6.;N....
    59e0:	6d5cfaad bfe4fec5 67381d7e bfe56944     ..\m....~.8gDi..
    59f0:	a9fbe76d bfe5d2f1 7e90ff97 bfe63afb     m..........~.:..
    5a00:	2de00d1b bfe6a090 6f0068dc bfe70481     ...-.....h.o....
    5a10:	f9096bba bfe767a0 a6b50b0f bfe7c779     .k...g......y...
    5a20:	9d495183 bfe82680 6e978d50 bfe88312     .QI..&..P..n....
    5a30:	d1b71759 bfe8de00 c6a7ef9e bfe9374b     Y...........K7..
    5a40:	9652bd3c bfe98e21 f7ced917 bfe9e353     <.R.!.......S...
    5a50:	eb1c432d bfea36e2 020c49ba bfea872b     -C...6...I..+...
    5a60:	61e4f766 bfead6a1 e5604189 bfeb22d0     f..a.....A`.."..
    5a70:	b1c432ca bfeb6e2e a1cac083 bfebb645     .2...n......E...
    5a80:	23a29c78 bfebfcb9 80346dc6 bfec40b7     x..#.....m4..@..
    5a90:	6e978d50 bfec8312 37b4a234 bfecc2f8     P..n....4..7....
    5aa0:	db8bac71 bfed0068 5a1cac08 bfed3b64     q...h......Zd;..
    5ab0:	6a7ef9db bfed74bc 559b3d08 bfedab9f     ..~j.t...=.U....
    5ac0:	1b71758e bfede00d bc01a36e bfee1205     .uq.....n.......
    5ad0:	374bc6a8 bfee4189 4467381d bfee6f69     ..K7.A...8gDio..
    5ae0:	7525460b bfee9a02 37b4a234 bfeec2f8     .F%u....4..7....
    5af0:	1de69ad4 bfeee8a7 95e9e1b1 bfef0cb2     ................
    5b00:	e8a71de7 bfef2e48 5f06f694 bfef4c98     ....H......_.L..
    5b10:	67381d7e bfef6944 4a2339c1 bfef837b     ~.8gDi...9#J{...
    5b20:	07c84b5e bfef9b3d a0275254 bfefb089     ^K..=...TR'.....
    5b30:	5c28f5c3 bfefc28f a9fbe76d bfefd2f1     ..(\....m.......
    5b40:	d288ce70 bfefe0de d5cfaace bfefec56     p...........V...
    5b50:	fcb923a3 bfeff487 b573eab3 bfeffb15     .#........s.....
    5b60:	91d14e3c bfeffe5c 00000000 bff00000     <N..\...........
    5b70:	91d14e3c bfeffe5c b573eab3 bfeffb15     <N..\.....s.....
    5b80:	fcb923a3 bfeff487 d5cfaace bfefec56     .#..........V...
    5b90:	d288ce70 bfefe0de a9fbe76d bfefd2f1     p.......m.......
    5ba0:	5c28f5c3 bfefc28f a0275254 bfefb089     ..(\....TR'.....
    5bb0:	07c84b5e bfef9b3d 4a2339c1 bfef837b     ^K..=....9#J{...
    5bc0:	67381d7e bfef6944 5f06f694 bfef4c98     ~.8gDi....._.L..
    5bd0:	e8a71de7 bfef2e48 95e9e1b1 bfef0cb2     ....H...........
    5be0:	1de69ad4 bfeee8a7 37b4a234 bfeec2f8     ........4..7....
    5bf0:	7525460b bfee9a02 4467381d bfee6f69     .F%u.....8gDio..
    5c00:	374bc6a8 bfee4189 bc01a36e bfee1205     ..K7.A..n.......
    5c10:	1b71758e bfede00d 559b3d08 bfedab9f     .uq......=.U....
    5c20:	6a7ef9db bfed74bc 5a1cac08 bfed3b64     ..~j.t.....Zd;..
    5c30:	db8bac71 bfed0068 37b4a234 bfecc2f8     q...h...4..7....
    5c40:	6e978d50 bfec8312 80346dc6 bfec40b7     P..n.....m4..@..
    5c50:	23a29c78 bfebfcb9 a1cac083 bfebb645     x..#........E...
    5c60:	b1c432ca bfeb6e2e e5604189 bfeb22d0     .2...n...A`.."..
    5c70:	61e4f766 bfead6a1 020c49ba bfea872b     f..a.....I..+...
    5c80:	eb1c432d bfea36e2 f7ced917 bfe9e353     -C...6......S...
    5c90:	9652bd3c bfe98e21 c6a7ef9e bfe9374b     <.R.!.......K7..
    5ca0:	d1b71759 bfe8de00 6e978d50 bfe88312     Y.......P..n....
    5cb0:	9d495183 bfe82680 a6b50b0f bfe7c779     .QI..&......y...
    5cc0:	f9096bba bfe767a0 6f0068dc bfe70481     .k...g...h.o....
    5cd0:	2de00d1b bfe6a090 7e90ff97 bfe63afb     ...-.......~.:..
    5ce0:	a9fbe76d bfe5d2f1 67381d7e bfe56944     m.......~.8gDi..
    5cf0:	6d5cfaad bfe4fec5 4e3bcd36 bfe491d1     ..\m....6.;N....
    5d00:	c0ebedfa bfe42339 7c84b5dd bfe3b3d0     ....9#.....|....
    5d10:	12d77319 bfe341f2 f212d773 bfe2cf41     .s...A..s...A...
    5d20:	631f8a09 bfe25aee 65fd8adb bfe1e4f7     ...c.Z.....e....
    5d30:	faacd9e8 bfe16d5c d844d014 bfe0f4f0     ....\m....D.....
    5d40:	47ae147b bfe07ae1 00000000 bfe00000     {..G.z..........
    5d50:	94467382 bfdf06f6 ba5e353f bfde0c49     .sF.....?5^.I...
    5d60:	04189375 bfdd0e56 dfa43fe6 bfdc0ebe     u...V....?......
    5d70:	ded288ce bfdb0be0 6fd21ff3 bfda075f     ...........o_...
    5d80:	92a30553 bfd9013a 474538ef bfd7f972     S...:....8EGr...
    5d90:	8db8bac7 bfd6f006 f7ced917 bfd5e353     ............S...
    5da0:	61e4f766 bfd4d6a1 ef9db22d bfd3c6a7     f..a....-.......
    5db0:	7d566cf4 bfd2b6ae 2eb1c433 bfd1a36e     .lV}....3...n...
    5dc0:	e00d1b71 bfd0902d 467381d8 bfcef694     q...-.....sF....
    5dd0:	cccccccd bfcccccc 9a6b50b1 bfca9c77     .........Pk.w...
    5de0:	6809d495 bfc86c22 594af4f1 bfc63886     ...h"l....JY.8..
    5df0:	4a8c154d bfc404ea 3bcd35a8 bfc1d14e     M..J.....5.;N...
    5e00:	a161e4f7 bfbf34d6 126e978d bfbac083     ..a..4....n.....
    5e10:	3c361134 bfb652bd ad42c3ca bfb1de69     4.6<.R....B.i...
    5e20:	cb295e9e bfaac710 ad42c3ca bfa1de69     .^).......B.i...
    5e30:	1eb851ec bf91eb85                       .Q......

00005e38 <SIN_large>:
    5e38:	00000000 00000477 000008ef 00000d65     ....w.......e...
    5e48:	000011db 0000164f 00001ac2 00001f32     ....O.......2...
    5e58:	000023a0 0000280c 00002c74 000030d8     .#...(..t,...0..
    5e68:	00003539 00003996 00003dee 00004241     95...9...=..AB..
    5e78:	00004690 00004ad8 00004f1b 00005358     .F...J...O..XS..
    5e88:	0000578e 00005bbe 00005fe6 00006406     .W...[..._...d..
    5e98:	0000681f 00006c30 00007039 00007438     .h..0l..9p..8t..
    5ea8:	0000782f 00007c1c 00007fff 000083d9     /x...|..........
    5eb8:	000087a8 00008b6d 00008f27 000092d5     ....m...'.......
    5ec8:	00009679 00009a10 00009d9b 0000a11b     y...............
    5ed8:	0000a48d 0000a7f3 0000ab4c 0000ae97     ........L.......
    5ee8:	0000b1d5 0000b504 0000b826 0000bb39     ........&...9...
    5ef8:	0000be3e 0000c134 0000c41b 0000c6f3     >...4...........
    5f08:	0000c9bb 0000cc73 0000cf1b 0000d1b3     ....s...........
    5f18:	0000d43b 0000d6b3 0000d919 0000db6f     ;...........o...
    5f28:	0000ddb3 0000dfe7 0000e208 0000e419     ................
    5f38:	0000e617 0000e803 0000e9de 0000eba6     ................
    5f48:	0000ed5b 0000eeff 0000f08f 0000f20d     [...............
    5f58:	0000f378 0000f4d0 0000f615 0000f746     x...........F...
    5f68:	0000f865 0000f970 0000fa67 0000fb4b     e...p...g...K...
    5f78:	0000fc1c 0000fcd9 0000fd82 0000fe17     ................
    5f88:	0000fe98 0000ff06 0000ff60 0000ffa6     ........`.......
    5f98:	0000ffd8 0000fff6 00010000 0000fff6     ................
    5fa8:	0000ffd8 0000ffa6 0000ff60 0000ff06     ........`.......
    5fb8:	0000fe98 0000fe17 0000fd82 0000fcd9     ................
    5fc8:	0000fc1c 0000fb4b 0000fa67 0000f970     ....K...g...p...
    5fd8:	0000f865 0000f746 0000f615 0000f4d0     e...F...........
    5fe8:	0000f378 0000f20d 0000f08f 0000eeff     x...............
    5ff8:	0000ed5b 0000eba6 0000e9de 0000e803     [...............
    6008:	0000e617 0000e419 0000e208 0000dfe7     ................
    6018:	0000ddb3 0000db6f 0000d919 0000d6b3     ....o...........
    6028:	0000d43b 0000d1b3 0000cf1b 0000cc73     ;...........s...
    6038:	0000c9bb 0000c6f3 0000c41b 0000c134     ............4...
    6048:	0000be3e 0000bb39 0000b826 0000b504     >...9...&.......
    6058:	0000b1d5 0000ae97 0000ab4c 0000a7f3     ........L.......
    6068:	0000a48d 0000a11b 00009d9b 00009a10     ................
    6078:	00009679 000092d5 00008f27 00008b6d     y.......'...m...
    6088:	000087a8 000083d9 00007fff 00007c1c     .............|..
    6098:	0000782f 00007438 00007039 00006c30     /x..8t..9p..0l..
    60a8:	0000681f 00006406 00005fe6 00005bbe     .h...d..._...[..
    60b8:	0000578e 00005358 00004f1b 00004ad8     .W..XS...O...J..
    60c8:	00004690 00004241 00003dee 00003996     .F..AB...=...9..
    60d8:	00003539 000030d8 00002c74 0000280c     95...0..t,...(..
    60e8:	000023a0 00001f32 00001ac2 0000164f     .#..2.......O...
    60f8:	000011db 00000d65 000008ef 00000477     ....e.......w...
    6108:	00000000 fffffb89 fffff711 fffff29b     ................
    6118:	ffffee25 ffffe9b1 ffffe53e ffffe0ce     %.......>.......
    6128:	ffffdc60 ffffd7f4 ffffd38c ffffcf28     `...........(...
    6138:	ffffcac7 ffffc66a ffffc212 ffffbdbf     ....j...........
    6148:	ffffb970 ffffb528 ffffb0e5 ffffaca8     p...(...........
    6158:	ffffa872 ffffa442 ffffa01a ffff9bfa     r...B...........
    6168:	ffff97e1 ffff93d0 ffff8fc7 ffff8bc8     ................
    6178:	ffff87d1 ffff83e4 ffff8000 ffff7c27     ............'|..
    6188:	ffff7858 ffff7493 ffff70d9 ffff6d2b     Xx...t...p..+m..
    6198:	ffff6987 ffff65f0 ffff6265 ffff5ee5     .i...e..eb...^..
    61a8:	ffff5b73 ffff580d ffff54b4 ffff5169     s[...X...T..iQ..
    61b8:	ffff4e2b ffff4afc ffff47da ffff44c7     +N...J...G...D..
    61c8:	ffff41c2 ffff3ecc ffff3be5 ffff390d     .A...>...;...9..
    61d8:	ffff3645 ffff338d ffff30e5 ffff2e4d     E6...3...0..M...
    61e8:	ffff2bc5 ffff294d ffff26e7 ffff2491     .+..M)...&...$..
    61f8:	ffff224d ffff2019 ffff1df8 ffff1be7     M"... ..........
    6208:	ffff19e9 ffff17fd ffff1622 ffff145a     ........"...Z...
    6218:	ffff12a5 ffff1101 ffff0f71 ffff0df3     ........q.......
    6228:	ffff0c88 ffff0b30 ffff09eb ffff08ba     ....0...........
    6238:	ffff079b ffff0690 ffff0599 ffff04b5     ................
    6248:	ffff03e4 ffff0327 ffff027e ffff01e9     ....'...~.......
    6258:	ffff0168 ffff00fa ffff00a0 ffff005a     h...........Z...
    6268:	ffff0028 ffff000a ffff0000 ffff000a     (...............
    6278:	ffff0028 ffff005a ffff00a0 ffff00fa     (...Z...........
    6288:	ffff0168 ffff01e9 ffff027e ffff0327     h.......~...'...
    6298:	ffff03e4 ffff04b5 ffff0599 ffff0690     ................
    62a8:	ffff079b ffff08ba ffff09eb ffff0b30     ............0...
    62b8:	ffff0c88 ffff0df3 ffff0f71 ffff1101     ........q.......
    62c8:	ffff12a5 ffff145a ffff1622 ffff17fd     ....Z...".......
    62d8:	ffff19e9 ffff1be7 ffff1df8 ffff2019     ............. ..
    62e8:	ffff224d ffff2491 ffff26e7 ffff294d     M"...$...&..M)..
    62f8:	ffff2bc5 ffff2e4d ffff30e5 ffff338d     .+..M....0...3..
    6308:	ffff3645 ffff390d ffff3be5 ffff3ecc     E6...9...;...>..
    6318:	ffff41c2 ffff44c7 ffff47da ffff4afc     .A...D...G...J..
    6328:	ffff4e2b ffff5169 ffff54b4 ffff580d     +N..iQ...T...X..
    6338:	ffff5b73 ffff5ee5 ffff6265 ffff65f0     s[...^..eb...e..
    6348:	ffff6987 ffff6d2b ffff70d9 ffff7493     .i..+m...p...t..
    6358:	ffff7858 ffff7c27 ffff8000 ffff83e4     Xx..'|..........
    6368:	ffff87d1 ffff8bc8 ffff8fc7 ffff93d0     ................
    6378:	ffff97e1 ffff9bfa ffffa01a ffffa442     ............B...
    6388:	ffffa872 ffffaca8 ffffb0e5 ffffb528     r...........(...
    6398:	ffffb970 ffffbdbf ffffc212 ffffc66a     p...........j...
    63a8:	ffffcac7 ffffcf28 ffffd38c ffffd7f4     ....(...........
    63b8:	ffffdc60 ffffe0ce ffffe53e ffffe9b1     `.......>.......
    63c8:	ffffee25 fffff29b fffff711 fffffb89     %...............

000063d8 <COS_large>:
    63d8:	00010000 0000fff6 0000ffd8 0000ffa6     ................
    63e8:	0000ff60 0000ff06 0000fe98 0000fe17     `...............
    63f8:	0000fd82 0000fcd9 0000fc1c 0000fb4b     ............K...
    6408:	0000fa67 0000f970 0000f865 0000f746     g...p...e...F...
    6418:	0000f615 0000f4d0 0000f378 0000f20d     ........x.......
    6428:	0000f08f 0000eeff 0000ed5b 0000eba6     ........[.......
    6438:	0000e9de 0000e803 0000e617 0000e419     ................
    6448:	0000e208 0000dfe7 0000ddb3 0000db6f     ............o...
    6458:	0000d919 0000d6b3 0000d43b 0000d1b3     ........;.......
    6468:	0000cf1b 0000cc73 0000c9bb 0000c6f3     ....s...........
    6478:	0000c41b 0000c134 0000be3e 0000bb39     ....4...>...9...
    6488:	0000b826 0000b504 0000b1d5 0000ae97     &...............
    6498:	0000ab4c 0000a7f3 0000a48d 0000a11b     L...............
    64a8:	00009d9b 00009a10 00009679 000092d5     ........y.......
    64b8:	00008f27 00008b6d 000087a8 000083d9     '...m...........
    64c8:	00008000 00007c1c 0000782f 00007438     .....|../x..8t..
    64d8:	00007039 00006c30 0000681f 00006406     9p..0l...h...d..
    64e8:	00005fe6 00005bbe 0000578e 00005358     ._...[...W..XS..
    64f8:	00004f1b 00004ad8 00004690 00004241     .O...J...F..AB..
    6508:	00003dee 00003996 00003539 000030d8     .=...9..95...0..
    6518:	00002c74 0000280c 000023a0 00001f32     t,...(...#..2...
    6528:	00001ac2 0000164f 000011db 00000d65     ....O.......e...
    6538:	000008ef 00000477 00000000 fffffb89     ....w...........
    6548:	fffff711 fffff29b ffffee25 ffffe9b1     ........%.......
    6558:	ffffe53e ffffe0ce ffffdc60 ffffd7f4     >.......`.......
    6568:	ffffd38c ffffcf28 ffffcac7 ffffc66a     ....(.......j...
    6578:	ffffc212 ffffbdbf ffffb970 ffffb528     ........p...(...
    6588:	ffffb0e5 ffffaca8 ffffa872 ffffa442     ........r...B...
    6598:	ffffa01a ffff9bfa ffff97e1 ffff93d0     ................
    65a8:	ffff8fc7 ffff8bc8 ffff87d1 ffff83e4     ................
    65b8:	ffff8001 ffff7c27 ffff7858 ffff7493     ....'|..Xx...t..
    65c8:	ffff70d9 ffff6d2b ffff6987 ffff65f0     .p..+m...i...e..
    65d8:	ffff6265 ffff5ee5 ffff5b73 ffff580d     eb...^..s[...X..
    65e8:	ffff54b4 ffff5169 ffff4e2b ffff4afc     .T..iQ..+N...J..
    65f8:	ffff47da ffff44c7 ffff41c2 ffff3ecc     .G...D...A...>..
    6608:	ffff3be5 ffff390d ffff3645 ffff338d     .;...9..E6...3..
    6618:	ffff30e5 ffff2e4d ffff2bc5 ffff294d     .0..M....+..M)..
    6628:	ffff26e7 ffff2491 ffff224d ffff2019     .&...$..M"... ..
    6638:	ffff1df8 ffff1be7 ffff19e9 ffff17fd     ................
    6648:	ffff1622 ffff145a ffff12a5 ffff1101     "...Z...........
    6658:	ffff0f71 ffff0df3 ffff0c88 ffff0b30     q...........0...
    6668:	ffff09eb ffff08ba ffff079b ffff0690     ................
    6678:	ffff0599 ffff04b5 ffff03e4 ffff0327     ............'...
    6688:	ffff027e ffff01e9 ffff0168 ffff00fa     ~.......h.......
    6698:	ffff00a0 ffff005a ffff0028 ffff000a     ....Z...(.......
    66a8:	ffff0000 ffff000a ffff0028 ffff005a     ........(...Z...
    66b8:	ffff00a0 ffff00fa ffff0168 ffff01e9     ........h.......
    66c8:	ffff027e ffff0327 ffff03e4 ffff04b5     ~...'...........
    66d8:	ffff0599 ffff0690 ffff079b ffff08ba     ................
    66e8:	ffff09eb ffff0b30 ffff0c88 ffff0df3     ....0...........
    66f8:	ffff0f71 ffff1101 ffff12a5 ffff145a     q...........Z...
    6708:	ffff1622 ffff17fd ffff19e9 ffff1be7     "...............
    6718:	ffff1df8 ffff2019 ffff224d ffff2491     ..... ..M"...$..
    6728:	ffff26e7 ffff294d ffff2bc5 ffff2e4d     .&..M)...+..M...
    6738:	ffff30e5 ffff338d ffff3645 ffff390d     .0...3..E6...9..
    6748:	ffff3be5 ffff3ecc ffff41c2 ffff44c7     .;...>...A...D..
    6758:	ffff47da ffff4afc ffff4e2b ffff5169     .G...J..+N..iQ..
    6768:	ffff54b4 ffff580d ffff5b73 ffff5ee5     .T...X..s[...^..
    6778:	ffff6265 ffff65f0 ffff6987 ffff6d2b     eb...e...i..+m..
    6788:	ffff70d9 ffff7493 ffff7858 ffff7c27     .p...t..Xx..'|..
    6798:	ffff8000 ffff83e4 ffff87d1 ffff8bc8     ................
    67a8:	ffff8fc7 ffff93d0 ffff97e1 ffff9bfa     ................
    67b8:	ffffa01a ffffa442 ffffa872 ffffaca8     ....B...r.......
    67c8:	ffffb0e5 ffffb528 ffffb970 ffffbdbf     ....(...p.......
    67d8:	ffffc212 ffffc66a ffffcac7 ffffcf28     ....j.......(...
    67e8:	ffffd38c ffffd7f4 ffffdc60 ffffe0ce     ........`.......
    67f8:	ffffe53e ffffe9b1 ffffee25 fffff29b     >.......%.......
    6808:	fffff711 fffffb89 00000000 00000477     ............w...
    6818:	000008ef 00000d65 000011db 0000164f     ....e.......O...
    6828:	00001ac2 00001f32 000023a0 0000280c     ....2....#...(..
    6838:	00002c74 000030d8 00003539 00003996     t,...0..95...9..
    6848:	00003dee 00004241 00004690 00004ad8     .=..AB...F...J..
    6858:	00004f1b 00005358 0000578e 00005bbe     .O..XS...W...[..
    6868:	00005fe6 00006406 0000681f 00006c30     ._...d...h..0l..
    6878:	00007039 00007438 0000782f 00007c1c     9p..8t../x...|..
    6888:	00008000 000083d9 000087a8 00008b6d     ............m...
    6898:	00008f27 000092d5 00009679 00009a10     '.......y.......
    68a8:	00009d9b 0000a11b 0000a48d 0000a7f3     ................
    68b8:	0000ab4c 0000ae97 0000b1d5 0000b504     L...............
    68c8:	0000b826 0000bb39 0000be3e 0000c134     &...9...>...4...
    68d8:	0000c41b 0000c6f3 0000c9bb 0000cc73     ............s...
    68e8:	0000cf1b 0000d1b3 0000d43b 0000d6b3     ........;.......
    68f8:	0000d919 0000db6f 0000ddb3 0000dfe7     ....o...........
    6908:	0000e208 0000e419 0000e617 0000e803     ................
    6918:	0000e9de 0000eba6 0000ed5b 0000eeff     ........[.......
    6928:	0000f08f 0000f20d 0000f378 0000f4d0     ........x.......
    6938:	0000f615 0000f746 0000f865 0000f970     ....F...e...p...
    6948:	0000fa67 0000fb4b 0000fc1c 0000fcd9     g...K...........
    6958:	0000fd82 0000fe17 0000fe98 0000ff06     ................
    6968:	0000ff60 0000ffa6 0000ffd8 0000fff6     `...............
    6978:	74727173 00000000                       sqrt....

00006980 <_global_impure_ptr>:
    6980:	00006a48 00000043                       Hj..C...

00006988 <_init>:
    6988:	e1a0c00d 	mov	r12, sp
    698c:	e92ddff8 	push	{r3, r4, r5, r6, r7, r8, r9, r10, r11, r12, lr, pc}
    6990:	e24cb004 	sub	r11, r12, #4
    6994:	e24bd028 	sub	sp, r11, #40	; 0x28
    6998:	e89d6ff0 	ldm	sp, {r4, r5, r6, r7, r8, r9, r10, r11, sp, lr}
    699c:	e12fff1e 	bx	lr

000069a0 <__init_array_start>:
    69a0:	00004604 	.word	0x00004604

000069a4 <__frame_dummy_init_array_entry>:
    69a4:	00000208                                ....

000069a8 <__libc_fini>:
    69a8:	e1a0c00d 	mov	r12, sp
    69ac:	e92ddff8 	push	{r3, r4, r5, r6, r7, r8, r9, r10, r11, r12, lr, pc}
    69b0:	e24cb004 	sub	r11, r12, #4
    69b4:	e24bd028 	sub	sp, r11, #40	; 0x28
    69b8:	e89d6ff0 	ldm	sp, {r4, r5, r6, r7, r8, r9, r10, r11, sp, lr}
    69bc:	e12fff1e 	bx	lr

000069c0 <__fini_array_start>:
    69c0:	000001c4 	.word	0x000001c4

000069c4 <__cs3_regions>:
	...
    69d0:	00006e78 	.word	0x00006e78
    69d4:	00009c80 	.word	0x00009c80
